
CANtest446.elf:     file format elf32-littlearm

Sections:
Idx Name          Size      VMA       LMA       File off  Algn
  0 .isr_vector   000001c4  08000000  08000000  00010000  2**0
                  CONTENTS, ALLOC, LOAD, READONLY, DATA
  1 .text         000056ac  080001d0  080001d0  000101d0  2**4
                  CONTENTS, ALLOC, LOAD, READONLY, CODE
  2 .rodata       0000022c  0800587c  0800587c  0001587c  2**2
                  CONTENTS, ALLOC, LOAD, READONLY, DATA
  3 .ARM          00000008  08005aa8  08005aa8  00015aa8  2**2
                  CONTENTS, ALLOC, LOAD, READONLY, DATA
  4 .init_array   00000004  08005ab0  08005ab0  00015ab0  2**2
                  CONTENTS, ALLOC, LOAD, DATA
  5 .fini_array   00000004  08005ab4  08005ab4  00015ab4  2**2
                  CONTENTS, ALLOC, LOAD, DATA
  6 .data         00000078  20000000  08005ab8  00020000  2**2
                  CONTENTS, ALLOC, LOAD, DATA
  7 .bss          00000b44  20000078  08005b30  00020078  2**2
                  ALLOC
  8 ._user_heap_stack 00000604  20000bbc  08005b30  00020bbc  2**0
                  ALLOC
  9 .ARM.attributes 00000030  00000000  00000000  00020078  2**0
                  CONTENTS, READONLY
 10 .debug_info   0001b0ba  00000000  00000000  000200a8  2**0
                  CONTENTS, READONLY, DEBUGGING, OCTETS
 11 .debug_abbrev 000032ab  00000000  00000000  0003b162  2**0
                  CONTENTS, READONLY, DEBUGGING, OCTETS
 12 .debug_loc    000117b3  00000000  00000000  0003e40d  2**0
                  CONTENTS, READONLY, DEBUGGING, OCTETS
 13 .debug_aranges 000010f8  00000000  00000000  0004fbc0  2**3
                  CONTENTS, READONLY, DEBUGGING, OCTETS
 14 .debug_ranges 00001058  00000000  00000000  00050cb8  2**3
                  CONTENTS, READONLY, DEBUGGING, OCTETS
 15 .debug_macro  00025034  00000000  00000000  00051d10  2**0
                  CONTENTS, READONLY, DEBUGGING, OCTETS
 16 .debug_line   0001c991  00000000  00000000  00076d44  2**0
                  CONTENTS, READONLY, DEBUGGING, OCTETS
 17 .debug_str    000e22ae  00000000  00000000  000936d5  2**0
                  CONTENTS, READONLY, DEBUGGING, OCTETS
 18 .comment      00000053  00000000  00000000  00175983  2**0
                  CONTENTS, READONLY
 19 .debug_frame  000035dc  00000000  00000000  001759d8  2**2
                  CONTENTS, READONLY, DEBUGGING, OCTETS

Disassembly of section .text:

080001d0 <__do_global_dtors_aux>:
 80001d0:	b510      	push	{r4, lr}
 80001d2:	4c05      	ldr	r4, [pc, #20]	; (80001e8 <__do_global_dtors_aux+0x18>)
 80001d4:	7823      	ldrb	r3, [r4, #0]
 80001d6:	b933      	cbnz	r3, 80001e6 <__do_global_dtors_aux+0x16>
 80001d8:	4b04      	ldr	r3, [pc, #16]	; (80001ec <__do_global_dtors_aux+0x1c>)
 80001da:	b113      	cbz	r3, 80001e2 <__do_global_dtors_aux+0x12>
 80001dc:	4804      	ldr	r0, [pc, #16]	; (80001f0 <__do_global_dtors_aux+0x20>)
 80001de:	f3af 8000 	nop.w
 80001e2:	2301      	movs	r3, #1
 80001e4:	7023      	strb	r3, [r4, #0]
 80001e6:	bd10      	pop	{r4, pc}
 80001e8:	20000078 	.word	0x20000078
 80001ec:	00000000 	.word	0x00000000
 80001f0:	08005864 	.word	0x08005864

080001f4 <frame_dummy>:
 80001f4:	b508      	push	{r3, lr}
 80001f6:	4b03      	ldr	r3, [pc, #12]	; (8000204 <frame_dummy+0x10>)
 80001f8:	b11b      	cbz	r3, 8000202 <frame_dummy+0xe>
 80001fa:	4903      	ldr	r1, [pc, #12]	; (8000208 <frame_dummy+0x14>)
 80001fc:	4803      	ldr	r0, [pc, #12]	; (800020c <frame_dummy+0x18>)
 80001fe:	f3af 8000 	nop.w
 8000202:	bd08      	pop	{r3, pc}
 8000204:	00000000 	.word	0x00000000
 8000208:	2000007c 	.word	0x2000007c
 800020c:	08005864 	.word	0x08005864

08000210 <strlen>:
 8000210:	4603      	mov	r3, r0
 8000212:	f813 2b01 	ldrb.w	r2, [r3], #1
 8000216:	2a00      	cmp	r2, #0
 8000218:	d1fb      	bne.n	8000212 <strlen+0x2>
 800021a:	1a18      	subs	r0, r3, r0
 800021c:	3801      	subs	r0, #1
 800021e:	4770      	bx	lr

08000220 <memchr>:
 8000220:	f001 01ff 	and.w	r1, r1, #255	; 0xff
 8000224:	2a10      	cmp	r2, #16
 8000226:	db2b      	blt.n	8000280 <memchr+0x60>
 8000228:	f010 0f07 	tst.w	r0, #7
 800022c:	d008      	beq.n	8000240 <memchr+0x20>
 800022e:	f810 3b01 	ldrb.w	r3, [r0], #1
 8000232:	3a01      	subs	r2, #1
 8000234:	428b      	cmp	r3, r1
 8000236:	d02d      	beq.n	8000294 <memchr+0x74>
 8000238:	f010 0f07 	tst.w	r0, #7
 800023c:	b342      	cbz	r2, 8000290 <memchr+0x70>
 800023e:	d1f6      	bne.n	800022e <memchr+0xe>
 8000240:	b4f0      	push	{r4, r5, r6, r7}
 8000242:	ea41 2101 	orr.w	r1, r1, r1, lsl #8
 8000246:	ea41 4101 	orr.w	r1, r1, r1, lsl #16
 800024a:	f022 0407 	bic.w	r4, r2, #7
 800024e:	f07f 0700 	mvns.w	r7, #0
 8000252:	2300      	movs	r3, #0
 8000254:	e8f0 5602 	ldrd	r5, r6, [r0], #8
 8000258:	3c08      	subs	r4, #8
 800025a:	ea85 0501 	eor.w	r5, r5, r1
 800025e:	ea86 0601 	eor.w	r6, r6, r1
 8000262:	fa85 f547 	uadd8	r5, r5, r7
 8000266:	faa3 f587 	sel	r5, r3, r7
 800026a:	fa86 f647 	uadd8	r6, r6, r7
 800026e:	faa5 f687 	sel	r6, r5, r7
 8000272:	b98e      	cbnz	r6, 8000298 <memchr+0x78>
 8000274:	d1ee      	bne.n	8000254 <memchr+0x34>
 8000276:	bcf0      	pop	{r4, r5, r6, r7}
 8000278:	f001 01ff 	and.w	r1, r1, #255	; 0xff
 800027c:	f002 0207 	and.w	r2, r2, #7
 8000280:	b132      	cbz	r2, 8000290 <memchr+0x70>
 8000282:	f810 3b01 	ldrb.w	r3, [r0], #1
 8000286:	3a01      	subs	r2, #1
 8000288:	ea83 0301 	eor.w	r3, r3, r1
 800028c:	b113      	cbz	r3, 8000294 <memchr+0x74>
 800028e:	d1f8      	bne.n	8000282 <memchr+0x62>
 8000290:	2000      	movs	r0, #0
 8000292:	4770      	bx	lr
 8000294:	3801      	subs	r0, #1
 8000296:	4770      	bx	lr
 8000298:	2d00      	cmp	r5, #0
 800029a:	bf06      	itte	eq
 800029c:	4635      	moveq	r5, r6
 800029e:	3803      	subeq	r0, #3
 80002a0:	3807      	subne	r0, #7
 80002a2:	f015 0f01 	tst.w	r5, #1
 80002a6:	d107      	bne.n	80002b8 <memchr+0x98>
 80002a8:	3001      	adds	r0, #1
 80002aa:	f415 7f80 	tst.w	r5, #256	; 0x100
 80002ae:	bf02      	ittt	eq
 80002b0:	3001      	addeq	r0, #1
 80002b2:	f415 3fc0 	tsteq.w	r5, #98304	; 0x18000
 80002b6:	3001      	addeq	r0, #1
 80002b8:	bcf0      	pop	{r4, r5, r6, r7}
 80002ba:	3801      	subs	r0, #1
 80002bc:	4770      	bx	lr
 80002be:	bf00      	nop

080002c0 <__aeabi_uldivmod>:
 80002c0:	b953      	cbnz	r3, 80002d8 <__aeabi_uldivmod+0x18>
 80002c2:	b94a      	cbnz	r2, 80002d8 <__aeabi_uldivmod+0x18>
 80002c4:	2900      	cmp	r1, #0
 80002c6:	bf08      	it	eq
 80002c8:	2800      	cmpeq	r0, #0
 80002ca:	bf1c      	itt	ne
 80002cc:	f04f 31ff 	movne.w	r1, #4294967295
 80002d0:	f04f 30ff 	movne.w	r0, #4294967295
 80002d4:	f000 b96e 	b.w	80005b4 <__aeabi_idiv0>
 80002d8:	f1ad 0c08 	sub.w	ip, sp, #8
 80002dc:	e96d ce04 	strd	ip, lr, [sp, #-16]!
 80002e0:	f000 f806 	bl	80002f0 <__udivmoddi4>
 80002e4:	f8dd e004 	ldr.w	lr, [sp, #4]
 80002e8:	e9dd 2302 	ldrd	r2, r3, [sp, #8]
 80002ec:	b004      	add	sp, #16
 80002ee:	4770      	bx	lr

080002f0 <__udivmoddi4>:
 80002f0:	e92d 47f0 	stmdb	sp!, {r4, r5, r6, r7, r8, r9, sl, lr}
 80002f4:	9d08      	ldr	r5, [sp, #32]
 80002f6:	4604      	mov	r4, r0
 80002f8:	468c      	mov	ip, r1
 80002fa:	2b00      	cmp	r3, #0
 80002fc:	f040 8083 	bne.w	8000406 <__udivmoddi4+0x116>
 8000300:	428a      	cmp	r2, r1
 8000302:	4617      	mov	r7, r2
 8000304:	d947      	bls.n	8000396 <__udivmoddi4+0xa6>
 8000306:	fab2 f282 	clz	r2, r2
 800030a:	b142      	cbz	r2, 800031e <__udivmoddi4+0x2e>
 800030c:	f1c2 0020 	rsb	r0, r2, #32
 8000310:	fa24 f000 	lsr.w	r0, r4, r0
 8000314:	4091      	lsls	r1, r2
 8000316:	4097      	lsls	r7, r2
 8000318:	ea40 0c01 	orr.w	ip, r0, r1
 800031c:	4094      	lsls	r4, r2
 800031e:	ea4f 4817 	mov.w	r8, r7, lsr #16
 8000322:	0c23      	lsrs	r3, r4, #16
 8000324:	fbbc f6f8 	udiv	r6, ip, r8
 8000328:	fa1f fe87 	uxth.w	lr, r7
 800032c:	fb08 c116 	mls	r1, r8, r6, ip
 8000330:	ea43 4301 	orr.w	r3, r3, r1, lsl #16
 8000334:	fb06 f10e 	mul.w	r1, r6, lr
 8000338:	4299      	cmp	r1, r3
 800033a:	d909      	bls.n	8000350 <__udivmoddi4+0x60>
 800033c:	18fb      	adds	r3, r7, r3
 800033e:	f106 30ff 	add.w	r0, r6, #4294967295
 8000342:	f080 8119 	bcs.w	8000578 <__udivmoddi4+0x288>
 8000346:	4299      	cmp	r1, r3
 8000348:	f240 8116 	bls.w	8000578 <__udivmoddi4+0x288>
 800034c:	3e02      	subs	r6, #2
 800034e:	443b      	add	r3, r7
 8000350:	1a5b      	subs	r3, r3, r1
 8000352:	b2a4      	uxth	r4, r4
 8000354:	fbb3 f0f8 	udiv	r0, r3, r8
 8000358:	fb08 3310 	mls	r3, r8, r0, r3
 800035c:	ea44 4403 	orr.w	r4, r4, r3, lsl #16
 8000360:	fb00 fe0e 	mul.w	lr, r0, lr
 8000364:	45a6      	cmp	lr, r4
 8000366:	d909      	bls.n	800037c <__udivmoddi4+0x8c>
 8000368:	193c      	adds	r4, r7, r4
 800036a:	f100 33ff 	add.w	r3, r0, #4294967295
 800036e:	f080 8105 	bcs.w	800057c <__udivmoddi4+0x28c>
 8000372:	45a6      	cmp	lr, r4
 8000374:	f240 8102 	bls.w	800057c <__udivmoddi4+0x28c>
 8000378:	3802      	subs	r0, #2
 800037a:	443c      	add	r4, r7
 800037c:	ea40 4006 	orr.w	r0, r0, r6, lsl #16
 8000380:	eba4 040e 	sub.w	r4, r4, lr
 8000384:	2600      	movs	r6, #0
 8000386:	b11d      	cbz	r5, 8000390 <__udivmoddi4+0xa0>
 8000388:	40d4      	lsrs	r4, r2
 800038a:	2300      	movs	r3, #0
 800038c:	e9c5 4300 	strd	r4, r3, [r5]
 8000390:	4631      	mov	r1, r6
 8000392:	e8bd 87f0 	ldmia.w	sp!, {r4, r5, r6, r7, r8, r9, sl, pc}
 8000396:	b902      	cbnz	r2, 800039a <__udivmoddi4+0xaa>
 8000398:	deff      	udf	#255	; 0xff
 800039a:	fab2 f282 	clz	r2, r2
 800039e:	2a00      	cmp	r2, #0
 80003a0:	d150      	bne.n	8000444 <__udivmoddi4+0x154>
 80003a2:	1bcb      	subs	r3, r1, r7
 80003a4:	ea4f 4e17 	mov.w	lr, r7, lsr #16
 80003a8:	fa1f f887 	uxth.w	r8, r7
 80003ac:	2601      	movs	r6, #1
 80003ae:	fbb3 fcfe 	udiv	ip, r3, lr
 80003b2:	0c21      	lsrs	r1, r4, #16
 80003b4:	fb0e 331c 	mls	r3, lr, ip, r3
 80003b8:	ea41 4103 	orr.w	r1, r1, r3, lsl #16
 80003bc:	fb08 f30c 	mul.w	r3, r8, ip
 80003c0:	428b      	cmp	r3, r1
 80003c2:	d907      	bls.n	80003d4 <__udivmoddi4+0xe4>
 80003c4:	1879      	adds	r1, r7, r1
 80003c6:	f10c 30ff 	add.w	r0, ip, #4294967295
 80003ca:	d202      	bcs.n	80003d2 <__udivmoddi4+0xe2>
 80003cc:	428b      	cmp	r3, r1
 80003ce:	f200 80e9 	bhi.w	80005a4 <__udivmoddi4+0x2b4>
 80003d2:	4684      	mov	ip, r0
 80003d4:	1ac9      	subs	r1, r1, r3
 80003d6:	b2a3      	uxth	r3, r4
 80003d8:	fbb1 f0fe 	udiv	r0, r1, lr
 80003dc:	fb0e 1110 	mls	r1, lr, r0, r1
 80003e0:	ea43 4401 	orr.w	r4, r3, r1, lsl #16
 80003e4:	fb08 f800 	mul.w	r8, r8, r0
 80003e8:	45a0      	cmp	r8, r4
 80003ea:	d907      	bls.n	80003fc <__udivmoddi4+0x10c>
 80003ec:	193c      	adds	r4, r7, r4
 80003ee:	f100 33ff 	add.w	r3, r0, #4294967295
 80003f2:	d202      	bcs.n	80003fa <__udivmoddi4+0x10a>
 80003f4:	45a0      	cmp	r8, r4
 80003f6:	f200 80d9 	bhi.w	80005ac <__udivmoddi4+0x2bc>
 80003fa:	4618      	mov	r0, r3
 80003fc:	eba4 0408 	sub.w	r4, r4, r8
 8000400:	ea40 400c 	orr.w	r0, r0, ip, lsl #16
 8000404:	e7bf      	b.n	8000386 <__udivmoddi4+0x96>
 8000406:	428b      	cmp	r3, r1
 8000408:	d909      	bls.n	800041e <__udivmoddi4+0x12e>
 800040a:	2d00      	cmp	r5, #0
 800040c:	f000 80b1 	beq.w	8000572 <__udivmoddi4+0x282>
 8000410:	2600      	movs	r6, #0
 8000412:	e9c5 0100 	strd	r0, r1, [r5]
 8000416:	4630      	mov	r0, r6
 8000418:	4631      	mov	r1, r6
 800041a:	e8bd 87f0 	ldmia.w	sp!, {r4, r5, r6, r7, r8, r9, sl, pc}
 800041e:	fab3 f683 	clz	r6, r3
 8000422:	2e00      	cmp	r6, #0
 8000424:	d14a      	bne.n	80004bc <__udivmoddi4+0x1cc>
 8000426:	428b      	cmp	r3, r1
 8000428:	d302      	bcc.n	8000430 <__udivmoddi4+0x140>
 800042a:	4282      	cmp	r2, r0
 800042c:	f200 80b8 	bhi.w	80005a0 <__udivmoddi4+0x2b0>
 8000430:	1a84      	subs	r4, r0, r2
 8000432:	eb61 0103 	sbc.w	r1, r1, r3
 8000436:	2001      	movs	r0, #1
 8000438:	468c      	mov	ip, r1
 800043a:	2d00      	cmp	r5, #0
 800043c:	d0a8      	beq.n	8000390 <__udivmoddi4+0xa0>
 800043e:	e9c5 4c00 	strd	r4, ip, [r5]
 8000442:	e7a5      	b.n	8000390 <__udivmoddi4+0xa0>
 8000444:	f1c2 0320 	rsb	r3, r2, #32
 8000448:	fa20 f603 	lsr.w	r6, r0, r3
 800044c:	4097      	lsls	r7, r2
 800044e:	fa01 f002 	lsl.w	r0, r1, r2
 8000452:	ea4f 4e17 	mov.w	lr, r7, lsr #16
 8000456:	40d9      	lsrs	r1, r3
 8000458:	4330      	orrs	r0, r6
 800045a:	0c03      	lsrs	r3, r0, #16
 800045c:	fbb1 f6fe 	udiv	r6, r1, lr
 8000460:	fa1f f887 	uxth.w	r8, r7
 8000464:	fb0e 1116 	mls	r1, lr, r6, r1
 8000468:	ea43 4301 	orr.w	r3, r3, r1, lsl #16
 800046c:	fb06 f108 	mul.w	r1, r6, r8
 8000470:	4299      	cmp	r1, r3
 8000472:	fa04 f402 	lsl.w	r4, r4, r2
 8000476:	d909      	bls.n	800048c <__udivmoddi4+0x19c>
 8000478:	18fb      	adds	r3, r7, r3
 800047a:	f106 3cff 	add.w	ip, r6, #4294967295
 800047e:	f080 808d 	bcs.w	800059c <__udivmoddi4+0x2ac>
 8000482:	4299      	cmp	r1, r3
 8000484:	f240 808a 	bls.w	800059c <__udivmoddi4+0x2ac>
 8000488:	3e02      	subs	r6, #2
 800048a:	443b      	add	r3, r7
 800048c:	1a5b      	subs	r3, r3, r1
 800048e:	b281      	uxth	r1, r0
 8000490:	fbb3 f0fe 	udiv	r0, r3, lr
 8000494:	fb0e 3310 	mls	r3, lr, r0, r3
 8000498:	ea41 4103 	orr.w	r1, r1, r3, lsl #16
 800049c:	fb00 f308 	mul.w	r3, r0, r8
 80004a0:	428b      	cmp	r3, r1
 80004a2:	d907      	bls.n	80004b4 <__udivmoddi4+0x1c4>
 80004a4:	1879      	adds	r1, r7, r1
 80004a6:	f100 3cff 	add.w	ip, r0, #4294967295
 80004aa:	d273      	bcs.n	8000594 <__udivmoddi4+0x2a4>
 80004ac:	428b      	cmp	r3, r1
 80004ae:	d971      	bls.n	8000594 <__udivmoddi4+0x2a4>
 80004b0:	3802      	subs	r0, #2
 80004b2:	4439      	add	r1, r7
 80004b4:	1acb      	subs	r3, r1, r3
 80004b6:	ea40 4606 	orr.w	r6, r0, r6, lsl #16
 80004ba:	e778      	b.n	80003ae <__udivmoddi4+0xbe>
 80004bc:	f1c6 0c20 	rsb	ip, r6, #32
 80004c0:	fa03 f406 	lsl.w	r4, r3, r6
 80004c4:	fa22 f30c 	lsr.w	r3, r2, ip
 80004c8:	431c      	orrs	r4, r3
 80004ca:	fa20 f70c 	lsr.w	r7, r0, ip
 80004ce:	fa01 f306 	lsl.w	r3, r1, r6
 80004d2:	ea4f 4e14 	mov.w	lr, r4, lsr #16
 80004d6:	fa21 f10c 	lsr.w	r1, r1, ip
 80004da:	431f      	orrs	r7, r3
 80004dc:	0c3b      	lsrs	r3, r7, #16
 80004de:	fbb1 f9fe 	udiv	r9, r1, lr
 80004e2:	fa1f f884 	uxth.w	r8, r4
 80004e6:	fb0e 1119 	mls	r1, lr, r9, r1
 80004ea:	ea43 4101 	orr.w	r1, r3, r1, lsl #16
 80004ee:	fb09 fa08 	mul.w	sl, r9, r8
 80004f2:	458a      	cmp	sl, r1
 80004f4:	fa02 f206 	lsl.w	r2, r2, r6
 80004f8:	fa00 f306 	lsl.w	r3, r0, r6
 80004fc:	d908      	bls.n	8000510 <__udivmoddi4+0x220>
 80004fe:	1861      	adds	r1, r4, r1
 8000500:	f109 30ff 	add.w	r0, r9, #4294967295
 8000504:	d248      	bcs.n	8000598 <__udivmoddi4+0x2a8>
 8000506:	458a      	cmp	sl, r1
 8000508:	d946      	bls.n	8000598 <__udivmoddi4+0x2a8>
 800050a:	f1a9 0902 	sub.w	r9, r9, #2
 800050e:	4421      	add	r1, r4
 8000510:	eba1 010a 	sub.w	r1, r1, sl
 8000514:	b2bf      	uxth	r7, r7
 8000516:	fbb1 f0fe 	udiv	r0, r1, lr
 800051a:	fb0e 1110 	mls	r1, lr, r0, r1
 800051e:	ea47 4701 	orr.w	r7, r7, r1, lsl #16
 8000522:	fb00 f808 	mul.w	r8, r0, r8
 8000526:	45b8      	cmp	r8, r7
 8000528:	d907      	bls.n	800053a <__udivmoddi4+0x24a>
 800052a:	19e7      	adds	r7, r4, r7
 800052c:	f100 31ff 	add.w	r1, r0, #4294967295
 8000530:	d22e      	bcs.n	8000590 <__udivmoddi4+0x2a0>
 8000532:	45b8      	cmp	r8, r7
 8000534:	d92c      	bls.n	8000590 <__udivmoddi4+0x2a0>
 8000536:	3802      	subs	r0, #2
 8000538:	4427      	add	r7, r4
 800053a:	ea40 4009 	orr.w	r0, r0, r9, lsl #16
 800053e:	eba7 0708 	sub.w	r7, r7, r8
 8000542:	fba0 8902 	umull	r8, r9, r0, r2
 8000546:	454f      	cmp	r7, r9
 8000548:	46c6      	mov	lr, r8
 800054a:	4649      	mov	r1, r9
 800054c:	d31a      	bcc.n	8000584 <__udivmoddi4+0x294>
 800054e:	d017      	beq.n	8000580 <__udivmoddi4+0x290>
 8000550:	b15d      	cbz	r5, 800056a <__udivmoddi4+0x27a>
 8000552:	ebb3 020e 	subs.w	r2, r3, lr
 8000556:	eb67 0701 	sbc.w	r7, r7, r1
 800055a:	fa07 fc0c 	lsl.w	ip, r7, ip
 800055e:	40f2      	lsrs	r2, r6
 8000560:	ea4c 0202 	orr.w	r2, ip, r2
 8000564:	40f7      	lsrs	r7, r6
 8000566:	e9c5 2700 	strd	r2, r7, [r5]
 800056a:	2600      	movs	r6, #0
 800056c:	4631      	mov	r1, r6
 800056e:	e8bd 87f0 	ldmia.w	sp!, {r4, r5, r6, r7, r8, r9, sl, pc}
 8000572:	462e      	mov	r6, r5
 8000574:	4628      	mov	r0, r5
 8000576:	e70b      	b.n	8000390 <__udivmoddi4+0xa0>
 8000578:	4606      	mov	r6, r0
 800057a:	e6e9      	b.n	8000350 <__udivmoddi4+0x60>
 800057c:	4618      	mov	r0, r3
 800057e:	e6fd      	b.n	800037c <__udivmoddi4+0x8c>
 8000580:	4543      	cmp	r3, r8
 8000582:	d2e5      	bcs.n	8000550 <__udivmoddi4+0x260>
 8000584:	ebb8 0e02 	subs.w	lr, r8, r2
 8000588:	eb69 0104 	sbc.w	r1, r9, r4
 800058c:	3801      	subs	r0, #1
 800058e:	e7df      	b.n	8000550 <__udivmoddi4+0x260>
 8000590:	4608      	mov	r0, r1
 8000592:	e7d2      	b.n	800053a <__udivmoddi4+0x24a>
 8000594:	4660      	mov	r0, ip
 8000596:	e78d      	b.n	80004b4 <__udivmoddi4+0x1c4>
 8000598:	4681      	mov	r9, r0
 800059a:	e7b9      	b.n	8000510 <__udivmoddi4+0x220>
 800059c:	4666      	mov	r6, ip
 800059e:	e775      	b.n	800048c <__udivmoddi4+0x19c>
 80005a0:	4630      	mov	r0, r6
 80005a2:	e74a      	b.n	800043a <__udivmoddi4+0x14a>
 80005a4:	f1ac 0c02 	sub.w	ip, ip, #2
 80005a8:	4439      	add	r1, r7
 80005aa:	e713      	b.n	80003d4 <__udivmoddi4+0xe4>
 80005ac:	3802      	subs	r0, #2
 80005ae:	443c      	add	r4, r7
 80005b0:	e724      	b.n	80003fc <__udivmoddi4+0x10c>
 80005b2:	bf00      	nop

080005b4 <__aeabi_idiv0>:
 80005b4:	4770      	bx	lr
 80005b6:	bf00      	nop

080005b8 <HAL_InitTick>:
  *       implementation  in user file.
  * @param TickPriority Tick interrupt priority.
  * @retval HAL status
  */
__weak HAL_StatusTypeDef HAL_InitTick(uint32_t TickPriority)
{
 80005b8:	b510      	push	{r4, lr}
 80005ba:	4604      	mov	r4, r0
  /* Configure the SysTick to have interrupt in 1ms time basis*/
  if (HAL_SYSTICK_Config(SystemCoreClock / (1000U / uwTickFreq)) > 0U)
 80005bc:	4b0e      	ldr	r3, [pc, #56]	; (80005f8 <HAL_InitTick+0x40>)
 80005be:	7818      	ldrb	r0, [r3, #0]
 80005c0:	f44f 737a 	mov.w	r3, #1000	; 0x3e8
 80005c4:	fbb3 f3f0 	udiv	r3, r3, r0
 80005c8:	4a0c      	ldr	r2, [pc, #48]	; (80005fc <HAL_InitTick+0x44>)
 80005ca:	6810      	ldr	r0, [r2, #0]
 80005cc:	fbb0 f0f3 	udiv	r0, r0, r3
 80005d0:	f001 f866 	bl	80016a0 <HAL_SYSTICK_Config>
 80005d4:	b968      	cbnz	r0, 80005f2 <HAL_InitTick+0x3a>
  {
    return HAL_ERROR;
  }

  /* Configure the SysTick IRQ priority */
  if (TickPriority < (1UL << __NVIC_PRIO_BITS))
 80005d6:	2c0f      	cmp	r4, #15
 80005d8:	d901      	bls.n	80005de <HAL_InitTick+0x26>
    HAL_NVIC_SetPriority(SysTick_IRQn, TickPriority, 0U);
    uwTickPrio = TickPriority;
  }
  else
  {
    return HAL_ERROR;
 80005da:	2001      	movs	r0, #1
 80005dc:	e00a      	b.n	80005f4 <HAL_InitTick+0x3c>
    HAL_NVIC_SetPriority(SysTick_IRQn, TickPriority, 0U);
 80005de:	2200      	movs	r2, #0
 80005e0:	4621      	mov	r1, r4
 80005e2:	f04f 30ff 	mov.w	r0, #4294967295
 80005e6:	f001 f819 	bl	800161c <HAL_NVIC_SetPriority>
    uwTickPrio = TickPriority;
 80005ea:	4b03      	ldr	r3, [pc, #12]	; (80005f8 <HAL_InitTick+0x40>)
 80005ec:	605c      	str	r4, [r3, #4]
  }

  /* Return function status */
  return HAL_OK;
 80005ee:	2000      	movs	r0, #0
 80005f0:	e000      	b.n	80005f4 <HAL_InitTick+0x3c>
    return HAL_ERROR;
 80005f2:	2001      	movs	r0, #1
}
 80005f4:	bd10      	pop	{r4, pc}
 80005f6:	bf00      	nop
 80005f8:	20000000 	.word	0x20000000
 80005fc:	20000010 	.word	0x20000010

08000600 <HAL_Init>:
{
 8000600:	b508      	push	{r3, lr}
  __HAL_FLASH_INSTRUCTION_CACHE_ENABLE();
 8000602:	4b0b      	ldr	r3, [pc, #44]	; (8000630 <HAL_Init+0x30>)
 8000604:	681a      	ldr	r2, [r3, #0]
 8000606:	f442 7200 	orr.w	r2, r2, #512	; 0x200
 800060a:	601a      	str	r2, [r3, #0]
  __HAL_FLASH_DATA_CACHE_ENABLE();
 800060c:	681a      	ldr	r2, [r3, #0]
 800060e:	f442 6280 	orr.w	r2, r2, #1024	; 0x400
 8000612:	601a      	str	r2, [r3, #0]
  __HAL_FLASH_PREFETCH_BUFFER_ENABLE();
 8000614:	681a      	ldr	r2, [r3, #0]
 8000616:	f442 7280 	orr.w	r2, r2, #256	; 0x100
 800061a:	601a      	str	r2, [r3, #0]
  HAL_NVIC_SetPriorityGrouping(NVIC_PRIORITYGROUP_4);
 800061c:	2003      	movs	r0, #3
 800061e:	f000 ffeb 	bl	80015f8 <HAL_NVIC_SetPriorityGrouping>
  HAL_InitTick(TICK_INT_PRIORITY);
 8000622:	2000      	movs	r0, #0
 8000624:	f7ff ffc8 	bl	80005b8 <HAL_InitTick>
  HAL_MspInit();
 8000628:	f003 fccc 	bl	8003fc4 <HAL_MspInit>
}
 800062c:	2000      	movs	r0, #0
 800062e:	bd08      	pop	{r3, pc}
 8000630:	40023c00 	.word	0x40023c00

08000634 <HAL_IncTick>:
  *      implementations in user file.
  * @retval None
  */
__weak void HAL_IncTick(void)
{
  uwTick += uwTickFreq;
 8000634:	4a03      	ldr	r2, [pc, #12]	; (8000644 <HAL_IncTick+0x10>)
 8000636:	6811      	ldr	r1, [r2, #0]
 8000638:	4b03      	ldr	r3, [pc, #12]	; (8000648 <HAL_IncTick+0x14>)
 800063a:	781b      	ldrb	r3, [r3, #0]
 800063c:	440b      	add	r3, r1
 800063e:	6013      	str	r3, [r2, #0]
}
 8000640:	4770      	bx	lr
 8000642:	bf00      	nop
 8000644:	200009bc 	.word	0x200009bc
 8000648:	20000000 	.word	0x20000000

0800064c <HAL_GetTick>:
  *       implementations in user file.
  * @retval tick value
  */
__weak uint32_t HAL_GetTick(void)
{
  return uwTick;
 800064c:	4b01      	ldr	r3, [pc, #4]	; (8000654 <HAL_GetTick+0x8>)
 800064e:	6818      	ldr	r0, [r3, #0]
}
 8000650:	4770      	bx	lr
 8000652:	bf00      	nop
 8000654:	200009bc 	.word	0x200009bc

08000658 <ADC_Init>:
  /* (Depending on STM32F4 product, there may be up to 3 ADCs and 1 common */
  /* control register)                                                    */
  tmpADC_Common = ADC_COMMON_REGISTER(hadc);
  
  /* Set the ADC clock prescaler */
  tmpADC_Common->CCR &= ~(ADC_CCR_ADCPRE);
 8000658:	4b4a      	ldr	r3, [pc, #296]	; (8000784 <ADC_Init+0x12c>)
 800065a:	685a      	ldr	r2, [r3, #4]
 800065c:	f422 3240 	bic.w	r2, r2, #196608	; 0x30000
 8000660:	605a      	str	r2, [r3, #4]
  tmpADC_Common->CCR |=  hadc->Init.ClockPrescaler;
 8000662:	685a      	ldr	r2, [r3, #4]
 8000664:	6841      	ldr	r1, [r0, #4]
 8000666:	430a      	orrs	r2, r1
 8000668:	605a      	str	r2, [r3, #4]
  
  /* Set ADC scan mode */
  hadc->Instance->CR1 &= ~(ADC_CR1_SCAN);
 800066a:	6802      	ldr	r2, [r0, #0]
 800066c:	6853      	ldr	r3, [r2, #4]
 800066e:	f423 7380 	bic.w	r3, r3, #256	; 0x100
 8000672:	6053      	str	r3, [r2, #4]
  hadc->Instance->CR1 |=  ADC_CR1_SCANCONV(hadc->Init.ScanConvMode);
 8000674:	6802      	ldr	r2, [r0, #0]
 8000676:	6853      	ldr	r3, [r2, #4]
 8000678:	6901      	ldr	r1, [r0, #16]
 800067a:	ea43 2301 	orr.w	r3, r3, r1, lsl #8
 800067e:	6053      	str	r3, [r2, #4]
  
  /* Set ADC resolution */
  hadc->Instance->CR1 &= ~(ADC_CR1_RES);
 8000680:	6802      	ldr	r2, [r0, #0]
 8000682:	6853      	ldr	r3, [r2, #4]
 8000684:	f023 7340 	bic.w	r3, r3, #50331648	; 0x3000000
 8000688:	6053      	str	r3, [r2, #4]
  hadc->Instance->CR1 |=  hadc->Init.Resolution;
 800068a:	6802      	ldr	r2, [r0, #0]
 800068c:	6853      	ldr	r3, [r2, #4]
 800068e:	6881      	ldr	r1, [r0, #8]
 8000690:	430b      	orrs	r3, r1
 8000692:	6053      	str	r3, [r2, #4]
  
  /* Set ADC data alignment */
  hadc->Instance->CR2 &= ~(ADC_CR2_ALIGN);
 8000694:	6802      	ldr	r2, [r0, #0]
 8000696:	6893      	ldr	r3, [r2, #8]
 8000698:	f423 6300 	bic.w	r3, r3, #2048	; 0x800
 800069c:	6093      	str	r3, [r2, #8]
  hadc->Instance->CR2 |= hadc->Init.DataAlign;
 800069e:	6802      	ldr	r2, [r0, #0]
 80006a0:	6893      	ldr	r3, [r2, #8]
 80006a2:	68c1      	ldr	r1, [r0, #12]
 80006a4:	430b      	orrs	r3, r1
 80006a6:	6093      	str	r3, [r2, #8]
  /* Enable external trigger if trigger selection is different of software  */
  /* start.                                                                 */
  /* Note: This configuration keeps the hardware feature of parameter       */
  /*       ExternalTrigConvEdge "trigger edge none" equivalent to           */
  /*       software start.                                                  */
  if(hadc->Init.ExternalTrigConv != ADC_SOFTWARE_START)
 80006a8:	6a82      	ldr	r2, [r0, #40]	; 0x28
 80006aa:	4b37      	ldr	r3, [pc, #220]	; (8000788 <ADC_Init+0x130>)
 80006ac:	429a      	cmp	r2, r3
 80006ae:	d057      	beq.n	8000760 <ADC_Init+0x108>
  {
    /* Select external trigger to start conversion */
    hadc->Instance->CR2 &= ~(ADC_CR2_EXTSEL);
 80006b0:	6802      	ldr	r2, [r0, #0]
 80006b2:	6893      	ldr	r3, [r2, #8]
 80006b4:	f023 6370 	bic.w	r3, r3, #251658240	; 0xf000000
 80006b8:	6093      	str	r3, [r2, #8]
    hadc->Instance->CR2 |= hadc->Init.ExternalTrigConv;
 80006ba:	6802      	ldr	r2, [r0, #0]
 80006bc:	6893      	ldr	r3, [r2, #8]
 80006be:	6a81      	ldr	r1, [r0, #40]	; 0x28
 80006c0:	430b      	orrs	r3, r1
 80006c2:	6093      	str	r3, [r2, #8]
    
    /* Select external trigger polarity */
    hadc->Instance->CR2 &= ~(ADC_CR2_EXTEN);
 80006c4:	6802      	ldr	r2, [r0, #0]
 80006c6:	6893      	ldr	r3, [r2, #8]
 80006c8:	f023 5340 	bic.w	r3, r3, #805306368	; 0x30000000
 80006cc:	6093      	str	r3, [r2, #8]
    hadc->Instance->CR2 |= hadc->Init.ExternalTrigConvEdge;
 80006ce:	6802      	ldr	r2, [r0, #0]
 80006d0:	6893      	ldr	r3, [r2, #8]
 80006d2:	6ac1      	ldr	r1, [r0, #44]	; 0x2c
 80006d4:	430b      	orrs	r3, r1
 80006d6:	6093      	str	r3, [r2, #8]
    hadc->Instance->CR2 &= ~(ADC_CR2_EXTSEL);
    hadc->Instance->CR2 &= ~(ADC_CR2_EXTEN);
  }
  
  /* Enable or disable ADC continuous conversion mode */
  hadc->Instance->CR2 &= ~(ADC_CR2_CONT);
 80006d8:	6802      	ldr	r2, [r0, #0]
 80006da:	6893      	ldr	r3, [r2, #8]
 80006dc:	f023 0302 	bic.w	r3, r3, #2
 80006e0:	6093      	str	r3, [r2, #8]
  hadc->Instance->CR2 |= ADC_CR2_CONTINUOUS((uint32_t)hadc->Init.ContinuousConvMode);
 80006e2:	6802      	ldr	r2, [r0, #0]
 80006e4:	6893      	ldr	r3, [r2, #8]
 80006e6:	7e01      	ldrb	r1, [r0, #24]
 80006e8:	ea43 0341 	orr.w	r3, r3, r1, lsl #1
 80006ec:	6093      	str	r3, [r2, #8]
  
  if(hadc->Init.DiscontinuousConvMode != DISABLE)
 80006ee:	f890 3020 	ldrb.w	r3, [r0, #32]
 80006f2:	2b00      	cmp	r3, #0
 80006f4:	d03f      	beq.n	8000776 <ADC_Init+0x11e>
  {
    assert_param(IS_ADC_REGULAR_DISC_NUMBER(hadc->Init.NbrOfDiscConversion));
  
    /* Enable the selected ADC regular discontinuous mode */
    hadc->Instance->CR1 |= (uint32_t)ADC_CR1_DISCEN;
 80006f6:	6802      	ldr	r2, [r0, #0]
 80006f8:	6853      	ldr	r3, [r2, #4]
 80006fa:	f443 6300 	orr.w	r3, r3, #2048	; 0x800
 80006fe:	6053      	str	r3, [r2, #4]
    
    /* Set the number of channels to be converted in discontinuous mode */
    hadc->Instance->CR1 &= ~(ADC_CR1_DISCNUM);
 8000700:	6802      	ldr	r2, [r0, #0]
 8000702:	6853      	ldr	r3, [r2, #4]
 8000704:	f423 4360 	bic.w	r3, r3, #57344	; 0xe000
 8000708:	6053      	str	r3, [r2, #4]
    hadc->Instance->CR1 |=  ADC_CR1_DISCONTINUOUS(hadc->Init.NbrOfDiscConversion);
 800070a:	6801      	ldr	r1, [r0, #0]
 800070c:	684b      	ldr	r3, [r1, #4]
 800070e:	6a42      	ldr	r2, [r0, #36]	; 0x24
 8000710:	3a01      	subs	r2, #1
 8000712:	ea43 3342 	orr.w	r3, r3, r2, lsl #13
 8000716:	604b      	str	r3, [r1, #4]
    /* Disable the selected ADC regular discontinuous mode */
    hadc->Instance->CR1 &= ~(ADC_CR1_DISCEN);
  }
  
  /* Set ADC number of conversion */
  hadc->Instance->SQR1 &= ~(ADC_SQR1_L);
 8000718:	6802      	ldr	r2, [r0, #0]
 800071a:	6ad3      	ldr	r3, [r2, #44]	; 0x2c
 800071c:	f423 0370 	bic.w	r3, r3, #15728640	; 0xf00000
 8000720:	62d3      	str	r3, [r2, #44]	; 0x2c
  hadc->Instance->SQR1 |=  ADC_SQR1(hadc->Init.NbrOfConversion);
 8000722:	6801      	ldr	r1, [r0, #0]
 8000724:	6acb      	ldr	r3, [r1, #44]	; 0x2c
 8000726:	69c2      	ldr	r2, [r0, #28]
 8000728:	3a01      	subs	r2, #1
 800072a:	ea43 5302 	orr.w	r3, r3, r2, lsl #20
 800072e:	62cb      	str	r3, [r1, #44]	; 0x2c
  
  /* Enable or disable ADC DMA continuous request */
  hadc->Instance->CR2 &= ~(ADC_CR2_DDS);
 8000730:	6802      	ldr	r2, [r0, #0]
 8000732:	6893      	ldr	r3, [r2, #8]
 8000734:	f423 7300 	bic.w	r3, r3, #512	; 0x200
 8000738:	6093      	str	r3, [r2, #8]
  hadc->Instance->CR2 |= ADC_CR2_DMAContReq((uint32_t)hadc->Init.DMAContinuousRequests);
 800073a:	6802      	ldr	r2, [r0, #0]
 800073c:	6893      	ldr	r3, [r2, #8]
 800073e:	f890 1030 	ldrb.w	r1, [r0, #48]	; 0x30
 8000742:	ea43 2341 	orr.w	r3, r3, r1, lsl #9
 8000746:	6093      	str	r3, [r2, #8]
  
  /* Enable or disable ADC end of conversion selection */
  hadc->Instance->CR2 &= ~(ADC_CR2_EOCS);
 8000748:	6802      	ldr	r2, [r0, #0]
 800074a:	6893      	ldr	r3, [r2, #8]
 800074c:	f423 6380 	bic.w	r3, r3, #1024	; 0x400
 8000750:	6093      	str	r3, [r2, #8]
  hadc->Instance->CR2 |= ADC_CR2_EOCSelection(hadc->Init.EOCSelection);
 8000752:	6802      	ldr	r2, [r0, #0]
 8000754:	6893      	ldr	r3, [r2, #8]
 8000756:	6941      	ldr	r1, [r0, #20]
 8000758:	ea43 2381 	orr.w	r3, r3, r1, lsl #10
 800075c:	6093      	str	r3, [r2, #8]
}
 800075e:	4770      	bx	lr
    hadc->Instance->CR2 &= ~(ADC_CR2_EXTSEL);
 8000760:	6802      	ldr	r2, [r0, #0]
 8000762:	6893      	ldr	r3, [r2, #8]
 8000764:	f023 6370 	bic.w	r3, r3, #251658240	; 0xf000000
 8000768:	6093      	str	r3, [r2, #8]
    hadc->Instance->CR2 &= ~(ADC_CR2_EXTEN);
 800076a:	6802      	ldr	r2, [r0, #0]
 800076c:	6893      	ldr	r3, [r2, #8]
 800076e:	f023 5340 	bic.w	r3, r3, #805306368	; 0x30000000
 8000772:	6093      	str	r3, [r2, #8]
 8000774:	e7b0      	b.n	80006d8 <ADC_Init+0x80>
    hadc->Instance->CR1 &= ~(ADC_CR1_DISCEN);
 8000776:	6802      	ldr	r2, [r0, #0]
 8000778:	6853      	ldr	r3, [r2, #4]
 800077a:	f423 6300 	bic.w	r3, r3, #2048	; 0x800
 800077e:	6053      	str	r3, [r2, #4]
 8000780:	e7ca      	b.n	8000718 <ADC_Init+0xc0>
 8000782:	bf00      	nop
 8000784:	40012300 	.word	0x40012300
 8000788:	0f000001 	.word	0x0f000001

0800078c <HAL_ADC_Init>:
  if(hadc == NULL)
 800078c:	b338      	cbz	r0, 80007de <HAL_ADC_Init+0x52>
{
 800078e:	b510      	push	{r4, lr}
 8000790:	4604      	mov	r4, r0
  if(hadc->State == HAL_ADC_STATE_RESET)
 8000792:	6c03      	ldr	r3, [r0, #64]	; 0x40
 8000794:	b143      	cbz	r3, 80007a8 <HAL_ADC_Init+0x1c>
  if (HAL_IS_BIT_CLR(hadc->State, HAL_ADC_STATE_ERROR_INTERNAL))
 8000796:	6c23      	ldr	r3, [r4, #64]	; 0x40
 8000798:	f013 0f10 	tst.w	r3, #16
 800079c:	d00b      	beq.n	80007b6 <HAL_ADC_Init+0x2a>
    tmp_hal_status = HAL_ERROR;
 800079e:	2001      	movs	r0, #1
  __HAL_UNLOCK(hadc);
 80007a0:	2300      	movs	r3, #0
 80007a2:	f884 303c 	strb.w	r3, [r4, #60]	; 0x3c
}
 80007a6:	bd10      	pop	{r4, pc}
    HAL_ADC_MspInit(hadc);
 80007a8:	f003 fc28 	bl	8003ffc <HAL_ADC_MspInit>
    ADC_CLEAR_ERRORCODE(hadc);
 80007ac:	2300      	movs	r3, #0
 80007ae:	6463      	str	r3, [r4, #68]	; 0x44
    hadc->Lock = HAL_UNLOCKED;
 80007b0:	f884 303c 	strb.w	r3, [r4, #60]	; 0x3c
 80007b4:	e7ef      	b.n	8000796 <HAL_ADC_Init+0xa>
    ADC_STATE_CLR_SET(hadc->State,
 80007b6:	6c23      	ldr	r3, [r4, #64]	; 0x40
 80007b8:	f423 5388 	bic.w	r3, r3, #4352	; 0x1100
 80007bc:	f023 0302 	bic.w	r3, r3, #2
 80007c0:	f043 0302 	orr.w	r3, r3, #2
 80007c4:	6423      	str	r3, [r4, #64]	; 0x40
    ADC_Init(hadc);
 80007c6:	4620      	mov	r0, r4
 80007c8:	f7ff ff46 	bl	8000658 <ADC_Init>
    ADC_CLEAR_ERRORCODE(hadc);
 80007cc:	2000      	movs	r0, #0
 80007ce:	6460      	str	r0, [r4, #68]	; 0x44
    ADC_STATE_CLR_SET(hadc->State,
 80007d0:	6c23      	ldr	r3, [r4, #64]	; 0x40
 80007d2:	f023 0303 	bic.w	r3, r3, #3
 80007d6:	f043 0301 	orr.w	r3, r3, #1
 80007da:	6423      	str	r3, [r4, #64]	; 0x40
 80007dc:	e7e0      	b.n	80007a0 <HAL_ADC_Init+0x14>
    return HAL_ERROR;
 80007de:	2001      	movs	r0, #1
}
 80007e0:	4770      	bx	lr

080007e2 <HAL_ADC_ConvCpltCallback>:
}
 80007e2:	4770      	bx	lr

080007e4 <HAL_ADC_LevelOutOfWindowCallback>:
}
 80007e4:	4770      	bx	lr

080007e6 <HAL_ADC_ErrorCallback>:
}
 80007e6:	4770      	bx	lr

080007e8 <HAL_ADC_IRQHandler>:
{
 80007e8:	b538      	push	{r3, r4, r5, lr}
 80007ea:	4604      	mov	r4, r0
  tmp1 = __HAL_ADC_GET_FLAG(hadc, ADC_FLAG_EOC);
 80007ec:	6802      	ldr	r2, [r0, #0]
 80007ee:	6811      	ldr	r1, [r2, #0]
  tmp2 = __HAL_ADC_GET_IT_SOURCE(hadc, ADC_IT_EOC);
 80007f0:	6853      	ldr	r3, [r2, #4]
  if(tmp1 && tmp2)
 80007f2:	f011 0f02 	tst.w	r1, #2
 80007f6:	d02f      	beq.n	8000858 <HAL_ADC_IRQHandler+0x70>
 80007f8:	f003 0320 	and.w	r3, r3, #32
 80007fc:	b363      	cbz	r3, 8000858 <HAL_ADC_IRQHandler+0x70>
    if (HAL_IS_BIT_CLR(hadc->State, HAL_ADC_STATE_ERROR_INTERNAL))
 80007fe:	6c03      	ldr	r3, [r0, #64]	; 0x40
 8000800:	f013 0f10 	tst.w	r3, #16
 8000804:	d103      	bne.n	800080e <HAL_ADC_IRQHandler+0x26>
      SET_BIT(hadc->State, HAL_ADC_STATE_REG_EOC); 
 8000806:	6c03      	ldr	r3, [r0, #64]	; 0x40
 8000808:	f443 7300 	orr.w	r3, r3, #512	; 0x200
 800080c:	6403      	str	r3, [r0, #64]	; 0x40
    if(ADC_IS_SOFTWARE_START_REGULAR(hadc)                   &&
 800080e:	6893      	ldr	r3, [r2, #8]
 8000810:	f013 5f40 	tst.w	r3, #805306368	; 0x30000000
 8000814:	d119      	bne.n	800084a <HAL_ADC_IRQHandler+0x62>
       (hadc->Init.ContinuousConvMode == DISABLE)            &&
 8000816:	7e23      	ldrb	r3, [r4, #24]
    if(ADC_IS_SOFTWARE_START_REGULAR(hadc)                   &&
 8000818:	b9bb      	cbnz	r3, 800084a <HAL_ADC_IRQHandler+0x62>
       (HAL_IS_BIT_CLR(hadc->Instance->SQR1, ADC_SQR1_L) || 
 800081a:	6ad3      	ldr	r3, [r2, #44]	; 0x2c
       (hadc->Init.ContinuousConvMode == DISABLE)            &&
 800081c:	f413 0f70 	tst.w	r3, #15728640	; 0xf00000
 8000820:	d003      	beq.n	800082a <HAL_ADC_IRQHandler+0x42>
        HAL_IS_BIT_CLR(hadc->Instance->CR2, ADC_CR2_EOCS)  )   )
 8000822:	6893      	ldr	r3, [r2, #8]
       (HAL_IS_BIT_CLR(hadc->Instance->SQR1, ADC_SQR1_L) || 
 8000824:	f413 6f80 	tst.w	r3, #1024	; 0x400
 8000828:	d10f      	bne.n	800084a <HAL_ADC_IRQHandler+0x62>
      __HAL_ADC_DISABLE_IT(hadc, ADC_IT_EOC);
 800082a:	6853      	ldr	r3, [r2, #4]
 800082c:	f023 0320 	bic.w	r3, r3, #32
 8000830:	6053      	str	r3, [r2, #4]
      CLEAR_BIT(hadc->State, HAL_ADC_STATE_REG_BUSY);
 8000832:	6c23      	ldr	r3, [r4, #64]	; 0x40
 8000834:	f423 7380 	bic.w	r3, r3, #256	; 0x100
 8000838:	6423      	str	r3, [r4, #64]	; 0x40
      if (HAL_IS_BIT_CLR(hadc->State, HAL_ADC_STATE_INJ_BUSY))
 800083a:	6c23      	ldr	r3, [r4, #64]	; 0x40
 800083c:	f413 5f80 	tst.w	r3, #4096	; 0x1000
 8000840:	d103      	bne.n	800084a <HAL_ADC_IRQHandler+0x62>
        SET_BIT(hadc->State, HAL_ADC_STATE_READY);
 8000842:	6c23      	ldr	r3, [r4, #64]	; 0x40
 8000844:	f043 0301 	orr.w	r3, r3, #1
 8000848:	6423      	str	r3, [r4, #64]	; 0x40
    HAL_ADC_ConvCpltCallback(hadc);
 800084a:	4620      	mov	r0, r4
 800084c:	f7ff ffc9 	bl	80007e2 <HAL_ADC_ConvCpltCallback>
    __HAL_ADC_CLEAR_FLAG(hadc, ADC_FLAG_STRT | ADC_FLAG_EOC);
 8000850:	6823      	ldr	r3, [r4, #0]
 8000852:	f06f 0212 	mvn.w	r2, #18
 8000856:	601a      	str	r2, [r3, #0]
  tmp1 = __HAL_ADC_GET_FLAG(hadc, ADC_FLAG_JEOC);
 8000858:	6823      	ldr	r3, [r4, #0]
 800085a:	6819      	ldr	r1, [r3, #0]
  tmp2 = __HAL_ADC_GET_IT_SOURCE(hadc, ADC_IT_JEOC);                               
 800085c:	685a      	ldr	r2, [r3, #4]
 800085e:	f002 0280 	and.w	r2, r2, #128	; 0x80
  if(tmp1 && tmp2)
 8000862:	f011 0f04 	tst.w	r1, #4
 8000866:	d036      	beq.n	80008d6 <HAL_ADC_IRQHandler+0xee>
 8000868:	2a00      	cmp	r2, #0
 800086a:	d034      	beq.n	80008d6 <HAL_ADC_IRQHandler+0xee>
    if (HAL_IS_BIT_CLR(hadc->State, HAL_ADC_STATE_ERROR_INTERNAL))
 800086c:	6c22      	ldr	r2, [r4, #64]	; 0x40
 800086e:	f012 0f10 	tst.w	r2, #16
 8000872:	d103      	bne.n	800087c <HAL_ADC_IRQHandler+0x94>
      SET_BIT(hadc->State, HAL_ADC_STATE_INJ_EOC);
 8000874:	6c22      	ldr	r2, [r4, #64]	; 0x40
 8000876:	f442 5200 	orr.w	r2, r2, #8192	; 0x2000
 800087a:	6422      	str	r2, [r4, #64]	; 0x40
    if(ADC_IS_SOFTWARE_START_INJECTED(hadc)                    &&
 800087c:	689a      	ldr	r2, [r3, #8]
 800087e:	f412 1f40 	tst.w	r2, #3145728	; 0x300000
 8000882:	d121      	bne.n	80008c8 <HAL_ADC_IRQHandler+0xe0>
       (HAL_IS_BIT_CLR(hadc->Instance->JSQR, ADC_JSQR_JL)  ||
 8000884:	6b9a      	ldr	r2, [r3, #56]	; 0x38
    if(ADC_IS_SOFTWARE_START_INJECTED(hadc)                    &&
 8000886:	f412 1f40 	tst.w	r2, #3145728	; 0x300000
 800088a:	d003      	beq.n	8000894 <HAL_ADC_IRQHandler+0xac>
        HAL_IS_BIT_CLR(hadc->Instance->CR2, ADC_CR2_EOCS)    ) &&
 800088c:	689a      	ldr	r2, [r3, #8]
       (HAL_IS_BIT_CLR(hadc->Instance->JSQR, ADC_JSQR_JL)  ||
 800088e:	f412 6f80 	tst.w	r2, #1024	; 0x400
 8000892:	d119      	bne.n	80008c8 <HAL_ADC_IRQHandler+0xe0>
       (HAL_IS_BIT_CLR(hadc->Instance->CR1, ADC_CR1_JAUTO) &&
 8000894:	685a      	ldr	r2, [r3, #4]
        HAL_IS_BIT_CLR(hadc->Instance->CR2, ADC_CR2_EOCS)    ) &&
 8000896:	f412 6f80 	tst.w	r2, #1024	; 0x400
 800089a:	d115      	bne.n	80008c8 <HAL_ADC_IRQHandler+0xe0>
        (ADC_IS_SOFTWARE_START_REGULAR(hadc)       &&
 800089c:	689a      	ldr	r2, [r3, #8]
       (HAL_IS_BIT_CLR(hadc->Instance->CR1, ADC_CR1_JAUTO) &&
 800089e:	f012 5f40 	tst.w	r2, #805306368	; 0x30000000
 80008a2:	d111      	bne.n	80008c8 <HAL_ADC_IRQHandler+0xe0>
        (hadc->Init.ContinuousConvMode == DISABLE)   )       )   )
 80008a4:	7e22      	ldrb	r2, [r4, #24]
        (ADC_IS_SOFTWARE_START_REGULAR(hadc)       &&
 80008a6:	b97a      	cbnz	r2, 80008c8 <HAL_ADC_IRQHandler+0xe0>
      __HAL_ADC_DISABLE_IT(hadc, ADC_IT_JEOC);
 80008a8:	685a      	ldr	r2, [r3, #4]
 80008aa:	f022 0280 	bic.w	r2, r2, #128	; 0x80
 80008ae:	605a      	str	r2, [r3, #4]
      CLEAR_BIT(hadc->State, HAL_ADC_STATE_INJ_BUSY);   
 80008b0:	6c23      	ldr	r3, [r4, #64]	; 0x40
 80008b2:	f423 5380 	bic.w	r3, r3, #4096	; 0x1000
 80008b6:	6423      	str	r3, [r4, #64]	; 0x40
      if (HAL_IS_BIT_CLR(hadc->State, HAL_ADC_STATE_REG_BUSY))
 80008b8:	6c23      	ldr	r3, [r4, #64]	; 0x40
 80008ba:	f413 7f80 	tst.w	r3, #256	; 0x100
 80008be:	d103      	bne.n	80008c8 <HAL_ADC_IRQHandler+0xe0>
        SET_BIT(hadc->State, HAL_ADC_STATE_READY);
 80008c0:	6c23      	ldr	r3, [r4, #64]	; 0x40
 80008c2:	f043 0301 	orr.w	r3, r3, #1
 80008c6:	6423      	str	r3, [r4, #64]	; 0x40
      HAL_ADCEx_InjectedConvCpltCallback(hadc);
 80008c8:	4620      	mov	r0, r4
 80008ca:	f002 fc21 	bl	8003110 <HAL_ADCEx_InjectedConvCpltCallback>
    __HAL_ADC_CLEAR_FLAG(hadc, (ADC_FLAG_JSTRT | ADC_FLAG_JEOC));
 80008ce:	6823      	ldr	r3, [r4, #0]
 80008d0:	f06f 020c 	mvn.w	r2, #12
 80008d4:	601a      	str	r2, [r3, #0]
  tmp1 = __HAL_ADC_GET_FLAG(hadc, ADC_FLAG_AWD);
 80008d6:	6822      	ldr	r2, [r4, #0]
 80008d8:	6811      	ldr	r1, [r2, #0]
  tmp2 = __HAL_ADC_GET_IT_SOURCE(hadc, ADC_IT_AWD);                          
 80008da:	6853      	ldr	r3, [r2, #4]
 80008dc:	f003 0340 	and.w	r3, r3, #64	; 0x40
  if(tmp1 && tmp2)
 80008e0:	f011 0f01 	tst.w	r1, #1
 80008e4:	d004      	beq.n	80008f0 <HAL_ADC_IRQHandler+0x108>
 80008e6:	b11b      	cbz	r3, 80008f0 <HAL_ADC_IRQHandler+0x108>
    if(__HAL_ADC_GET_FLAG(hadc, ADC_FLAG_AWD))
 80008e8:	6813      	ldr	r3, [r2, #0]
 80008ea:	f013 0f01 	tst.w	r3, #1
 80008ee:	d109      	bne.n	8000904 <HAL_ADC_IRQHandler+0x11c>
  tmp1 = __HAL_ADC_GET_FLAG(hadc, ADC_FLAG_OVR);
 80008f0:	6822      	ldr	r2, [r4, #0]
 80008f2:	6811      	ldr	r1, [r2, #0]
  tmp2 = __HAL_ADC_GET_IT_SOURCE(hadc, ADC_IT_OVR);
 80008f4:	6853      	ldr	r3, [r2, #4]
 80008f6:	f003 6380 	and.w	r3, r3, #67108864	; 0x4000000
  if(tmp1 && tmp2)
 80008fa:	f011 0f20 	tst.w	r1, #32
 80008fe:	d000      	beq.n	8000902 <HAL_ADC_IRQHandler+0x11a>
 8000900:	b963      	cbnz	r3, 800091c <HAL_ADC_IRQHandler+0x134>
}
 8000902:	bd38      	pop	{r3, r4, r5, pc}
      SET_BIT(hadc->State, HAL_ADC_STATE_AWD1);
 8000904:	6c23      	ldr	r3, [r4, #64]	; 0x40
 8000906:	f443 3380 	orr.w	r3, r3, #65536	; 0x10000
 800090a:	6423      	str	r3, [r4, #64]	; 0x40
      HAL_ADC_LevelOutOfWindowCallback(hadc);
 800090c:	4620      	mov	r0, r4
 800090e:	f7ff ff69 	bl	80007e4 <HAL_ADC_LevelOutOfWindowCallback>
      __HAL_ADC_CLEAR_FLAG(hadc, ADC_FLAG_AWD);
 8000912:	6823      	ldr	r3, [r4, #0]
 8000914:	f06f 0201 	mvn.w	r2, #1
 8000918:	601a      	str	r2, [r3, #0]
 800091a:	e7e9      	b.n	80008f0 <HAL_ADC_IRQHandler+0x108>
    SET_BIT(hadc->ErrorCode, HAL_ADC_ERROR_OVR);
 800091c:	6c63      	ldr	r3, [r4, #68]	; 0x44
 800091e:	f043 0302 	orr.w	r3, r3, #2
 8000922:	6463      	str	r3, [r4, #68]	; 0x44
    __HAL_ADC_CLEAR_FLAG(hadc, ADC_FLAG_OVR);
 8000924:	f06f 0520 	mvn.w	r5, #32
 8000928:	6015      	str	r5, [r2, #0]
      HAL_ADC_ErrorCallback(hadc);
 800092a:	4620      	mov	r0, r4
 800092c:	f7ff ff5b 	bl	80007e6 <HAL_ADC_ErrorCallback>
    __HAL_ADC_CLEAR_FLAG(hadc, ADC_FLAG_OVR);
 8000930:	6823      	ldr	r3, [r4, #0]
 8000932:	601d      	str	r5, [r3, #0]
}
 8000934:	e7e5      	b.n	8000902 <HAL_ADC_IRQHandler+0x11a>
	...

08000938 <HAL_ADC_ConfigChannel>:
{
 8000938:	b430      	push	{r4, r5}
 800093a:	b082      	sub	sp, #8
  __IO uint32_t counter = 0U;
 800093c:	2300      	movs	r3, #0
 800093e:	9301      	str	r3, [sp, #4]
  __HAL_LOCK(hadc);
 8000940:	f890 303c 	ldrb.w	r3, [r0, #60]	; 0x3c
 8000944:	2b01      	cmp	r3, #1
 8000946:	f000 80bd 	beq.w	8000ac4 <HAL_ADC_ConfigChannel+0x18c>
 800094a:	2301      	movs	r3, #1
 800094c:	f880 303c 	strb.w	r3, [r0, #60]	; 0x3c
  if (sConfig->Channel > ADC_CHANNEL_9)
 8000950:	680b      	ldr	r3, [r1, #0]
 8000952:	2b09      	cmp	r3, #9
 8000954:	d93e      	bls.n	80009d4 <HAL_ADC_ConfigChannel+0x9c>
    hadc->Instance->SMPR1 &= ~ADC_SMPR1(ADC_SMPR1_SMP10, sConfig->Channel);
 8000956:	6805      	ldr	r5, [r0, #0]
 8000958:	68ea      	ldr	r2, [r5, #12]
 800095a:	b29b      	uxth	r3, r3
 800095c:	eb03 0343 	add.w	r3, r3, r3, lsl #1
 8000960:	3b1e      	subs	r3, #30
 8000962:	2407      	movs	r4, #7
 8000964:	fa04 f303 	lsl.w	r3, r4, r3
 8000968:	ea22 0303 	bic.w	r3, r2, r3
 800096c:	60eb      	str	r3, [r5, #12]
    hadc->Instance->SMPR1 |= ADC_SMPR1(sConfig->SamplingTime, sConfig->Channel);
 800096e:	6805      	ldr	r5, [r0, #0]
 8000970:	68ea      	ldr	r2, [r5, #12]
 8000972:	688c      	ldr	r4, [r1, #8]
 8000974:	880b      	ldrh	r3, [r1, #0]
 8000976:	eb03 0343 	add.w	r3, r3, r3, lsl #1
 800097a:	3b1e      	subs	r3, #30
 800097c:	fa04 f303 	lsl.w	r3, r4, r3
 8000980:	4313      	orrs	r3, r2
 8000982:	60eb      	str	r3, [r5, #12]
  if (sConfig->Rank < 7U)
 8000984:	684b      	ldr	r3, [r1, #4]
 8000986:	2b06      	cmp	r3, #6
 8000988:	d83a      	bhi.n	8000a00 <HAL_ADC_ConfigChannel+0xc8>
    hadc->Instance->SQR3 &= ~ADC_SQR3_RK(ADC_SQR3_SQ1, sConfig->Rank);
 800098a:	6805      	ldr	r5, [r0, #0]
 800098c:	6b6a      	ldr	r2, [r5, #52]	; 0x34
 800098e:	eb03 0383 	add.w	r3, r3, r3, lsl #2
 8000992:	3b05      	subs	r3, #5
 8000994:	241f      	movs	r4, #31
 8000996:	fa04 f303 	lsl.w	r3, r4, r3
 800099a:	ea22 0303 	bic.w	r3, r2, r3
 800099e:	636b      	str	r3, [r5, #52]	; 0x34
    hadc->Instance->SQR3 |= ADC_SQR3_RK(sConfig->Channel, sConfig->Rank);
 80009a0:	6805      	ldr	r5, [r0, #0]
 80009a2:	6b6a      	ldr	r2, [r5, #52]	; 0x34
 80009a4:	684b      	ldr	r3, [r1, #4]
 80009a6:	eb03 0383 	add.w	r3, r3, r3, lsl #2
 80009aa:	3b05      	subs	r3, #5
 80009ac:	880c      	ldrh	r4, [r1, #0]
 80009ae:	fa04 f303 	lsl.w	r3, r4, r3
 80009b2:	4313      	orrs	r3, r2
 80009b4:	636b      	str	r3, [r5, #52]	; 0x34
  if ((hadc->Instance == ADC1) && (sConfig->Channel == ADC_CHANNEL_VBAT))
 80009b6:	6802      	ldr	r2, [r0, #0]
 80009b8:	4b43      	ldr	r3, [pc, #268]	; (8000ac8 <HAL_ADC_ConfigChannel+0x190>)
 80009ba:	429a      	cmp	r2, r3
 80009bc:	d050      	beq.n	8000a60 <HAL_ADC_ConfigChannel+0x128>
  if ((hadc->Instance == ADC1) && ((sConfig->Channel == ADC_CHANNEL_TEMPSENSOR) || (sConfig->Channel == ADC_CHANNEL_VREFINT)))
 80009be:	6802      	ldr	r2, [r0, #0]
 80009c0:	4b41      	ldr	r3, [pc, #260]	; (8000ac8 <HAL_ADC_ConfigChannel+0x190>)
 80009c2:	429a      	cmp	r2, r3
 80009c4:	d059      	beq.n	8000a7a <HAL_ADC_ConfigChannel+0x142>
  __HAL_UNLOCK(hadc);
 80009c6:	2300      	movs	r3, #0
 80009c8:	f880 303c 	strb.w	r3, [r0, #60]	; 0x3c
  return HAL_OK;
 80009cc:	4618      	mov	r0, r3
}
 80009ce:	b002      	add	sp, #8
 80009d0:	bc30      	pop	{r4, r5}
 80009d2:	4770      	bx	lr
    hadc->Instance->SMPR2 &= ~ADC_SMPR2(ADC_SMPR2_SMP0, sConfig->Channel);
 80009d4:	6805      	ldr	r5, [r0, #0]
 80009d6:	692a      	ldr	r2, [r5, #16]
 80009d8:	b29b      	uxth	r3, r3
 80009da:	eb03 0343 	add.w	r3, r3, r3, lsl #1
 80009de:	2407      	movs	r4, #7
 80009e0:	fa04 f303 	lsl.w	r3, r4, r3
 80009e4:	ea22 0303 	bic.w	r3, r2, r3
 80009e8:	612b      	str	r3, [r5, #16]
    hadc->Instance->SMPR2 |= ADC_SMPR2(sConfig->SamplingTime, sConfig->Channel);
 80009ea:	6805      	ldr	r5, [r0, #0]
 80009ec:	692a      	ldr	r2, [r5, #16]
 80009ee:	688c      	ldr	r4, [r1, #8]
 80009f0:	880b      	ldrh	r3, [r1, #0]
 80009f2:	eb03 0343 	add.w	r3, r3, r3, lsl #1
 80009f6:	fa04 f303 	lsl.w	r3, r4, r3
 80009fa:	4313      	orrs	r3, r2
 80009fc:	612b      	str	r3, [r5, #16]
 80009fe:	e7c1      	b.n	8000984 <HAL_ADC_ConfigChannel+0x4c>
  else if (sConfig->Rank < 13U)
 8000a00:	2b0c      	cmp	r3, #12
 8000a02:	d816      	bhi.n	8000a32 <HAL_ADC_ConfigChannel+0xfa>
    hadc->Instance->SQR2 &= ~ADC_SQR2_RK(ADC_SQR2_SQ7, sConfig->Rank);
 8000a04:	6805      	ldr	r5, [r0, #0]
 8000a06:	6b2a      	ldr	r2, [r5, #48]	; 0x30
 8000a08:	eb03 0383 	add.w	r3, r3, r3, lsl #2
 8000a0c:	3b23      	subs	r3, #35	; 0x23
 8000a0e:	241f      	movs	r4, #31
 8000a10:	fa04 f303 	lsl.w	r3, r4, r3
 8000a14:	ea22 0303 	bic.w	r3, r2, r3
 8000a18:	632b      	str	r3, [r5, #48]	; 0x30
    hadc->Instance->SQR2 |= ADC_SQR2_RK(sConfig->Channel, sConfig->Rank);
 8000a1a:	6805      	ldr	r5, [r0, #0]
 8000a1c:	6b2a      	ldr	r2, [r5, #48]	; 0x30
 8000a1e:	684b      	ldr	r3, [r1, #4]
 8000a20:	eb03 0383 	add.w	r3, r3, r3, lsl #2
 8000a24:	3b23      	subs	r3, #35	; 0x23
 8000a26:	880c      	ldrh	r4, [r1, #0]
 8000a28:	fa04 f303 	lsl.w	r3, r4, r3
 8000a2c:	4313      	orrs	r3, r2
 8000a2e:	632b      	str	r3, [r5, #48]	; 0x30
 8000a30:	e7c1      	b.n	80009b6 <HAL_ADC_ConfigChannel+0x7e>
    hadc->Instance->SQR1 &= ~ADC_SQR1_RK(ADC_SQR1_SQ13, sConfig->Rank);
 8000a32:	6805      	ldr	r5, [r0, #0]
 8000a34:	6aea      	ldr	r2, [r5, #44]	; 0x2c
 8000a36:	eb03 0383 	add.w	r3, r3, r3, lsl #2
 8000a3a:	3b41      	subs	r3, #65	; 0x41
 8000a3c:	241f      	movs	r4, #31
 8000a3e:	fa04 f303 	lsl.w	r3, r4, r3
 8000a42:	ea22 0303 	bic.w	r3, r2, r3
 8000a46:	62eb      	str	r3, [r5, #44]	; 0x2c
    hadc->Instance->SQR1 |= ADC_SQR1_RK(sConfig->Channel, sConfig->Rank);
 8000a48:	6805      	ldr	r5, [r0, #0]
 8000a4a:	6aea      	ldr	r2, [r5, #44]	; 0x2c
 8000a4c:	684b      	ldr	r3, [r1, #4]
 8000a4e:	eb03 0383 	add.w	r3, r3, r3, lsl #2
 8000a52:	3b41      	subs	r3, #65	; 0x41
 8000a54:	880c      	ldrh	r4, [r1, #0]
 8000a56:	fa04 f303 	lsl.w	r3, r4, r3
 8000a5a:	4313      	orrs	r3, r2
 8000a5c:	62eb      	str	r3, [r5, #44]	; 0x2c
 8000a5e:	e7aa      	b.n	80009b6 <HAL_ADC_ConfigChannel+0x7e>
  if ((hadc->Instance == ADC1) && (sConfig->Channel == ADC_CHANNEL_VBAT))
 8000a60:	680b      	ldr	r3, [r1, #0]
 8000a62:	2b12      	cmp	r3, #18
 8000a64:	d1ab      	bne.n	80009be <HAL_ADC_ConfigChannel+0x86>
      tmpADC_Common->CCR &= ~ADC_CCR_TSVREFE;
 8000a66:	4b19      	ldr	r3, [pc, #100]	; (8000acc <HAL_ADC_ConfigChannel+0x194>)
 8000a68:	685a      	ldr	r2, [r3, #4]
 8000a6a:	f422 0200 	bic.w	r2, r2, #8388608	; 0x800000
 8000a6e:	605a      	str	r2, [r3, #4]
    tmpADC_Common->CCR |= ADC_CCR_VBATE;
 8000a70:	685a      	ldr	r2, [r3, #4]
 8000a72:	f442 0280 	orr.w	r2, r2, #4194304	; 0x400000
 8000a76:	605a      	str	r2, [r3, #4]
 8000a78:	e7a1      	b.n	80009be <HAL_ADC_ConfigChannel+0x86>
  if ((hadc->Instance == ADC1) && ((sConfig->Channel == ADC_CHANNEL_TEMPSENSOR) || (sConfig->Channel == ADC_CHANNEL_VREFINT)))
 8000a7a:	680b      	ldr	r3, [r1, #0]
 8000a7c:	4a14      	ldr	r2, [pc, #80]	; (8000ad0 <HAL_ADC_ConfigChannel+0x198>)
 8000a7e:	4293      	cmp	r3, r2
 8000a80:	d001      	beq.n	8000a86 <HAL_ADC_ConfigChannel+0x14e>
 8000a82:	2b11      	cmp	r3, #17
 8000a84:	d19f      	bne.n	80009c6 <HAL_ADC_ConfigChannel+0x8e>
      tmpADC_Common->CCR &= ~ADC_CCR_VBATE;
 8000a86:	4b11      	ldr	r3, [pc, #68]	; (8000acc <HAL_ADC_ConfigChannel+0x194>)
 8000a88:	685a      	ldr	r2, [r3, #4]
 8000a8a:	f422 0280 	bic.w	r2, r2, #4194304	; 0x400000
 8000a8e:	605a      	str	r2, [r3, #4]
    tmpADC_Common->CCR |= ADC_CCR_TSVREFE;
 8000a90:	685a      	ldr	r2, [r3, #4]
 8000a92:	f442 0200 	orr.w	r2, r2, #8388608	; 0x800000
 8000a96:	605a      	str	r2, [r3, #4]
    if(sConfig->Channel == ADC_CHANNEL_TEMPSENSOR)
 8000a98:	680a      	ldr	r2, [r1, #0]
 8000a9a:	4b0d      	ldr	r3, [pc, #52]	; (8000ad0 <HAL_ADC_ConfigChannel+0x198>)
 8000a9c:	429a      	cmp	r2, r3
 8000a9e:	d192      	bne.n	80009c6 <HAL_ADC_ConfigChannel+0x8e>
      counter = (ADC_TEMPSENSOR_DELAY_US * (SystemCoreClock / 1000000U));
 8000aa0:	4b0c      	ldr	r3, [pc, #48]	; (8000ad4 <HAL_ADC_ConfigChannel+0x19c>)
 8000aa2:	681b      	ldr	r3, [r3, #0]
 8000aa4:	4a0c      	ldr	r2, [pc, #48]	; (8000ad8 <HAL_ADC_ConfigChannel+0x1a0>)
 8000aa6:	fba2 2303 	umull	r2, r3, r2, r3
 8000aaa:	0c9b      	lsrs	r3, r3, #18
 8000aac:	eb03 0383 	add.w	r3, r3, r3, lsl #2
 8000ab0:	005b      	lsls	r3, r3, #1
 8000ab2:	9301      	str	r3, [sp, #4]
      while(counter != 0U)
 8000ab4:	e002      	b.n	8000abc <HAL_ADC_ConfigChannel+0x184>
        counter--;
 8000ab6:	9b01      	ldr	r3, [sp, #4]
 8000ab8:	3b01      	subs	r3, #1
 8000aba:	9301      	str	r3, [sp, #4]
      while(counter != 0U)
 8000abc:	9b01      	ldr	r3, [sp, #4]
 8000abe:	2b00      	cmp	r3, #0
 8000ac0:	d1f9      	bne.n	8000ab6 <HAL_ADC_ConfigChannel+0x17e>
 8000ac2:	e780      	b.n	80009c6 <HAL_ADC_ConfigChannel+0x8e>
  __HAL_LOCK(hadc);
 8000ac4:	2002      	movs	r0, #2
 8000ac6:	e782      	b.n	80009ce <HAL_ADC_ConfigChannel+0x96>
 8000ac8:	40012000 	.word	0x40012000
 8000acc:	40012300 	.word	0x40012300
 8000ad0:	10000012 	.word	0x10000012
 8000ad4:	20000010 	.word	0x20000010
 8000ad8:	431bde83 	.word	0x431bde83

08000adc <HAL_ADCEx_InjectedStart_IT>:
  *         the configuration information for the specified ADC.
  *
  * @retval HAL status.
  */
HAL_StatusTypeDef HAL_ADCEx_InjectedStart_IT(ADC_HandleTypeDef* hadc)
{
 8000adc:	b082      	sub	sp, #8
  __IO uint32_t counter = 0U;
 8000ade:	2300      	movs	r3, #0
 8000ae0:	9301      	str	r3, [sp, #4]
  uint32_t tmp1 = 0U, tmp2 = 0U;
  ADC_Common_TypeDef *tmpADC_Common;
  
  /* Process locked */
  __HAL_LOCK(hadc);
 8000ae2:	f890 303c 	ldrb.w	r3, [r0, #60]	; 0x3c
 8000ae6:	2b01      	cmp	r3, #1
 8000ae8:	d06c      	beq.n	8000bc4 <HAL_ADCEx_InjectedStart_IT+0xe8>
 8000aea:	2301      	movs	r3, #1
 8000aec:	f880 303c 	strb.w	r3, [r0, #60]	; 0x3c
  
  /* Enable the ADC peripheral */
  
  /* Check if ADC peripheral is disabled in order to enable it and wait during 
     Tstab time the ADC's stabilization */
  if((hadc->Instance->CR2 & ADC_CR2_ADON) != ADC_CR2_ADON)
 8000af0:	6803      	ldr	r3, [r0, #0]
 8000af2:	689a      	ldr	r2, [r3, #8]
 8000af4:	f012 0f01 	tst.w	r2, #1
 8000af8:	d113      	bne.n	8000b22 <HAL_ADCEx_InjectedStart_IT+0x46>
  {  
    /* Enable the Peripheral */
    __HAL_ADC_ENABLE(hadc);
 8000afa:	689a      	ldr	r2, [r3, #8]
 8000afc:	f042 0201 	orr.w	r2, r2, #1
 8000b00:	609a      	str	r2, [r3, #8]
    
    /* Delay for ADC stabilization time */
    /* Compute number of CPU cycles to wait for */
    counter = (ADC_STAB_DELAY_US * (SystemCoreClock / 1000000U));
 8000b02:	4b35      	ldr	r3, [pc, #212]	; (8000bd8 <HAL_ADCEx_InjectedStart_IT+0xfc>)
 8000b04:	681b      	ldr	r3, [r3, #0]
 8000b06:	4a35      	ldr	r2, [pc, #212]	; (8000bdc <HAL_ADCEx_InjectedStart_IT+0x100>)
 8000b08:	fba2 2303 	umull	r2, r3, r2, r3
 8000b0c:	0c9b      	lsrs	r3, r3, #18
 8000b0e:	eb03 0343 	add.w	r3, r3, r3, lsl #1
 8000b12:	9301      	str	r3, [sp, #4]
    while(counter != 0U)
 8000b14:	e002      	b.n	8000b1c <HAL_ADCEx_InjectedStart_IT+0x40>
    {
      counter--;
 8000b16:	9b01      	ldr	r3, [sp, #4]
 8000b18:	3b01      	subs	r3, #1
 8000b1a:	9301      	str	r3, [sp, #4]
    while(counter != 0U)
 8000b1c:	9b01      	ldr	r3, [sp, #4]
 8000b1e:	2b00      	cmp	r3, #0
 8000b20:	d1f9      	bne.n	8000b16 <HAL_ADCEx_InjectedStart_IT+0x3a>
    }
  }
  
  /* Start conversion if ADC is effectively enabled */
  if(HAL_IS_BIT_SET(hadc->Instance->CR2, ADC_CR2_ADON))
 8000b22:	6802      	ldr	r2, [r0, #0]
 8000b24:	6893      	ldr	r3, [r2, #8]
 8000b26:	f013 0f01 	tst.w	r3, #1
 8000b2a:	d040      	beq.n	8000bae <HAL_ADCEx_InjectedStart_IT+0xd2>
  {
    /* Set ADC state                                                          */
    /* - Clear state bitfield related to injected group conversion results    */
    /* - Set state bitfield related to injected operation                     */
    ADC_STATE_CLR_SET(hadc->State,
 8000b2c:	6c03      	ldr	r3, [r0, #64]	; 0x40
 8000b2e:	f423 5340 	bic.w	r3, r3, #12288	; 0x3000
 8000b32:	f023 0301 	bic.w	r3, r3, #1
 8000b36:	f443 5380 	orr.w	r3, r3, #4096	; 0x1000
 8000b3a:	6403      	str	r3, [r0, #64]	; 0x40
    
    /* Check if a regular conversion is ongoing */
    /* Note: On this device, there is no ADC error code fields related to     */
    /*       conversions on group injected only. In case of conversion on     */
    /*       going on group regular, no error code is reset.                  */
    if (HAL_IS_BIT_CLR(hadc->State, HAL_ADC_STATE_REG_BUSY))
 8000b3c:	6c03      	ldr	r3, [r0, #64]	; 0x40
 8000b3e:	f413 7f80 	tst.w	r3, #256	; 0x100
 8000b42:	d101      	bne.n	8000b48 <HAL_ADCEx_InjectedStart_IT+0x6c>
    {
      /* Reset ADC all error code fields */
      ADC_CLEAR_ERRORCODE(hadc);
 8000b44:	2300      	movs	r3, #0
 8000b46:	6443      	str	r3, [r0, #68]	; 0x44
    }
    
    /* Process unlocked */
    /* Unlock before starting ADC conversions: in case of potential           */
    /* interruption, to let the process to ADC IRQ Handler.                   */
    __HAL_UNLOCK(hadc);
 8000b48:	2300      	movs	r3, #0
 8000b4a:	f880 303c 	strb.w	r3, [r0, #60]	; 0x3c
    
    /* Clear injected group conversion flag */
    /* (To ensure of no unknown state from potential previous ADC operations) */
    __HAL_ADC_CLEAR_FLAG(hadc, ADC_FLAG_JEOC);
 8000b4e:	f06f 0304 	mvn.w	r3, #4
 8000b52:	6013      	str	r3, [r2, #0]
    
    /* Enable end of conversion interrupt for injected channels */
    __HAL_ADC_ENABLE_IT(hadc, ADC_IT_JEOC);
 8000b54:	6802      	ldr	r2, [r0, #0]
 8000b56:	6853      	ldr	r3, [r2, #4]
 8000b58:	f043 0380 	orr.w	r3, r3, #128	; 0x80
 8000b5c:	6053      	str	r3, [r2, #4]
    /* (Depending on STM32F4 product, there may be up to 3 ADC and 1 common */
    /* control register)                                                    */
    tmpADC_Common = ADC_COMMON_REGISTER(hadc);
    
    /* Check if Multimode enabled */
    if(HAL_IS_BIT_CLR(tmpADC_Common->CCR, ADC_CCR_MULTI))
 8000b5e:	4b20      	ldr	r3, [pc, #128]	; (8000be0 <HAL_ADCEx_InjectedStart_IT+0x104>)
 8000b60:	685b      	ldr	r3, [r3, #4]
 8000b62:	f013 0f1f 	tst.w	r3, #31
 8000b66:	d10e      	bne.n	8000b86 <HAL_ADCEx_InjectedStart_IT+0xaa>
    {
      tmp1 = HAL_IS_BIT_CLR(hadc->Instance->CR2, ADC_CR2_JEXTEN);
 8000b68:	6802      	ldr	r2, [r0, #0]
 8000b6a:	6891      	ldr	r1, [r2, #8]
      tmp2 = HAL_IS_BIT_CLR(hadc->Instance->CR1, ADC_CR1_JAUTO);
 8000b6c:	6853      	ldr	r3, [r2, #4]
 8000b6e:	f403 6380 	and.w	r3, r3, #1024	; 0x400
      if(tmp1 && tmp2)
 8000b72:	f411 1f40 	tst.w	r1, #3145728	; 0x300000
 8000b76:	d127      	bne.n	8000bc8 <HAL_ADCEx_InjectedStart_IT+0xec>
 8000b78:	bb43      	cbnz	r3, 8000bcc <HAL_ADCEx_InjectedStart_IT+0xf0>
      {
        /* Enable the selected ADC software conversion for injected group */
        hadc->Instance->CR2 |= ADC_CR2_JSWSTART;
 8000b7a:	6893      	ldr	r3, [r2, #8]
 8000b7c:	f443 0380 	orr.w	r3, r3, #4194304	; 0x400000
 8000b80:	6093      	str	r3, [r2, #8]
    /* Set ADC error code to ADC IP internal error */
    SET_BIT(hadc->ErrorCode, HAL_ADC_ERROR_INTERNAL);
  }
  
  /* Return function status */
  return HAL_OK;
 8000b82:	2000      	movs	r0, #0
 8000b84:	e01c      	b.n	8000bc0 <HAL_ADCEx_InjectedStart_IT+0xe4>
      tmp1 = HAL_IS_BIT_CLR(hadc->Instance->CR2, ADC_CR2_JEXTEN);
 8000b86:	6803      	ldr	r3, [r0, #0]
 8000b88:	689a      	ldr	r2, [r3, #8]
 8000b8a:	f402 1240 	and.w	r2, r2, #3145728	; 0x300000
      tmp2 = HAL_IS_BIT_CLR(hadc->Instance->CR1, ADC_CR1_JAUTO);
 8000b8e:	6859      	ldr	r1, [r3, #4]
 8000b90:	f401 6180 	and.w	r1, r1, #1024	; 0x400
      if((hadc->Instance == ADC1) && tmp1 && tmp2)  
 8000b94:	4813      	ldr	r0, [pc, #76]	; (8000be4 <HAL_ADCEx_InjectedStart_IT+0x108>)
 8000b96:	4283      	cmp	r3, r0
 8000b98:	d001      	beq.n	8000b9e <HAL_ADCEx_InjectedStart_IT+0xc2>
  return HAL_OK;
 8000b9a:	2000      	movs	r0, #0
 8000b9c:	e010      	b.n	8000bc0 <HAL_ADCEx_InjectedStart_IT+0xe4>
      if((hadc->Instance == ADC1) && tmp1 && tmp2)  
 8000b9e:	b9ba      	cbnz	r2, 8000bd0 <HAL_ADCEx_InjectedStart_IT+0xf4>
 8000ba0:	b9c1      	cbnz	r1, 8000bd4 <HAL_ADCEx_InjectedStart_IT+0xf8>
        hadc->Instance->CR2 |= ADC_CR2_JSWSTART;
 8000ba2:	689a      	ldr	r2, [r3, #8]
 8000ba4:	f442 0280 	orr.w	r2, r2, #4194304	; 0x400000
 8000ba8:	609a      	str	r2, [r3, #8]
  return HAL_OK;
 8000baa:	2000      	movs	r0, #0
 8000bac:	e008      	b.n	8000bc0 <HAL_ADCEx_InjectedStart_IT+0xe4>
    SET_BIT(hadc->State, HAL_ADC_STATE_ERROR_INTERNAL);
 8000bae:	6c03      	ldr	r3, [r0, #64]	; 0x40
 8000bb0:	f043 0310 	orr.w	r3, r3, #16
 8000bb4:	6403      	str	r3, [r0, #64]	; 0x40
    SET_BIT(hadc->ErrorCode, HAL_ADC_ERROR_INTERNAL);
 8000bb6:	6c43      	ldr	r3, [r0, #68]	; 0x44
 8000bb8:	f043 0301 	orr.w	r3, r3, #1
 8000bbc:	6443      	str	r3, [r0, #68]	; 0x44
  return HAL_OK;
 8000bbe:	2000      	movs	r0, #0
}
 8000bc0:	b002      	add	sp, #8
 8000bc2:	4770      	bx	lr
  __HAL_LOCK(hadc);
 8000bc4:	2002      	movs	r0, #2
 8000bc6:	e7fb      	b.n	8000bc0 <HAL_ADCEx_InjectedStart_IT+0xe4>
  return HAL_OK;
 8000bc8:	2000      	movs	r0, #0
 8000bca:	e7f9      	b.n	8000bc0 <HAL_ADCEx_InjectedStart_IT+0xe4>
 8000bcc:	2000      	movs	r0, #0
 8000bce:	e7f7      	b.n	8000bc0 <HAL_ADCEx_InjectedStart_IT+0xe4>
 8000bd0:	2000      	movs	r0, #0
 8000bd2:	e7f5      	b.n	8000bc0 <HAL_ADCEx_InjectedStart_IT+0xe4>
 8000bd4:	2000      	movs	r0, #0
 8000bd6:	e7f3      	b.n	8000bc0 <HAL_ADCEx_InjectedStart_IT+0xe4>
 8000bd8:	20000010 	.word	0x20000010
 8000bdc:	431bde83 	.word	0x431bde83
 8000be0:	40012300 	.word	0x40012300
 8000be4:	40012000 	.word	0x40012000

08000be8 <HAL_ADCEx_InjectedGetValue>:
  *            @arg ADC_INJECTED_RANK_3: Injected Channel3 selected
  *            @arg ADC_INJECTED_RANK_4: Injected Channel4 selected
  * @retval None
  */
uint32_t HAL_ADCEx_InjectedGetValue(ADC_HandleTypeDef* hadc, uint32_t InjectedRank)
{
 8000be8:	b082      	sub	sp, #8
  __IO uint32_t tmp = 0U;
 8000bea:	2300      	movs	r3, #0
 8000bec:	9301      	str	r3, [sp, #4]
  /* Check the parameters */
  assert_param(IS_ADC_INJECTED_RANK(InjectedRank));
  
  /* Clear injected group conversion flag to have similar behaviour as        */
  /* regular group: reading data register also clears end of conversion flag. */
  __HAL_ADC_CLEAR_FLAG(hadc, ADC_FLAG_JEOC);
 8000bee:	6803      	ldr	r3, [r0, #0]
 8000bf0:	f06f 0204 	mvn.w	r2, #4
 8000bf4:	601a      	str	r2, [r3, #0]
  
  /* Return the selected ADC converted value */ 
  switch(InjectedRank)
 8000bf6:	3901      	subs	r1, #1
 8000bf8:	2903      	cmp	r1, #3
 8000bfa:	d806      	bhi.n	8000c0a <HAL_ADCEx_InjectedGetValue+0x22>
 8000bfc:	e8df f001 	tbb	[pc, r1]
 8000c00:	02080c10 	.word	0x02080c10
  {  
    case ADC_INJECTED_RANK_4:
    {
      tmp =  hadc->Instance->JDR4;
 8000c04:	6803      	ldr	r3, [r0, #0]
 8000c06:	6c9b      	ldr	r3, [r3, #72]	; 0x48
 8000c08:	9301      	str	r3, [sp, #4]
    }
    break;
    default:
    break;  
  }
  return tmp;
 8000c0a:	9801      	ldr	r0, [sp, #4]
}
 8000c0c:	b002      	add	sp, #8
 8000c0e:	4770      	bx	lr
      tmp =  hadc->Instance->JDR3;
 8000c10:	6803      	ldr	r3, [r0, #0]
 8000c12:	6c5b      	ldr	r3, [r3, #68]	; 0x44
 8000c14:	9301      	str	r3, [sp, #4]
    break;
 8000c16:	e7f8      	b.n	8000c0a <HAL_ADCEx_InjectedGetValue+0x22>
      tmp =  hadc->Instance->JDR2;
 8000c18:	6803      	ldr	r3, [r0, #0]
 8000c1a:	6c1b      	ldr	r3, [r3, #64]	; 0x40
 8000c1c:	9301      	str	r3, [sp, #4]
    break;
 8000c1e:	e7f4      	b.n	8000c0a <HAL_ADCEx_InjectedGetValue+0x22>
      tmp =  hadc->Instance->JDR1;
 8000c20:	6803      	ldr	r3, [r0, #0]
 8000c22:	6bdb      	ldr	r3, [r3, #60]	; 0x3c
 8000c24:	9301      	str	r3, [sp, #4]
    break;
 8000c26:	e7f0      	b.n	8000c0a <HAL_ADCEx_InjectedGetValue+0x22>

08000c28 <HAL_ADCEx_InjectedConfigChannel>:
  {
    assert_param(IS_ADC_EXT_INJEC_TRIG_EDGE(sConfigInjected->ExternalTrigInjecConvEdge));
  }

  /* Process locked */
  __HAL_LOCK(hadc);
 8000c28:	f890 303c 	ldrb.w	r3, [r0, #60]	; 0x3c
 8000c2c:	2b01      	cmp	r3, #1
 8000c2e:	f000 80fb 	beq.w	8000e28 <HAL_ADCEx_InjectedConfigChannel+0x200>
{
 8000c32:	b430      	push	{r4, r5}
  __HAL_LOCK(hadc);
 8000c34:	2301      	movs	r3, #1
 8000c36:	f880 303c 	strb.w	r3, [r0, #60]	; 0x3c
  
  /* if ADC_Channel_10 ... ADC_Channel_18 is selected */
  if (sConfigInjected->InjectedChannel > ADC_CHANNEL_9)
 8000c3a:	680b      	ldr	r3, [r1, #0]
 8000c3c:	2b09      	cmp	r3, #9
 8000c3e:	d97d      	bls.n	8000d3c <HAL_ADCEx_InjectedConfigChannel+0x114>
  {
    /* Clear the old sample time */
    hadc->Instance->SMPR1 &= ~ADC_SMPR1(ADC_SMPR1_SMP10, sConfigInjected->InjectedChannel);
 8000c40:	6805      	ldr	r5, [r0, #0]
 8000c42:	68ea      	ldr	r2, [r5, #12]
 8000c44:	b29b      	uxth	r3, r3
 8000c46:	eb03 0343 	add.w	r3, r3, r3, lsl #1
 8000c4a:	3b1e      	subs	r3, #30
 8000c4c:	2407      	movs	r4, #7
 8000c4e:	fa04 f303 	lsl.w	r3, r4, r3
 8000c52:	ea22 0303 	bic.w	r3, r2, r3
 8000c56:	60eb      	str	r3, [r5, #12]
    
    /* Set the new sample time */
    hadc->Instance->SMPR1 |= ADC_SMPR1(sConfigInjected->InjectedSamplingTime, sConfigInjected->InjectedChannel);
 8000c58:	6805      	ldr	r5, [r0, #0]
 8000c5a:	68ea      	ldr	r2, [r5, #12]
 8000c5c:	688c      	ldr	r4, [r1, #8]
 8000c5e:	880b      	ldrh	r3, [r1, #0]
 8000c60:	eb03 0343 	add.w	r3, r3, r3, lsl #1
 8000c64:	3b1e      	subs	r3, #30
 8000c66:	fa04 f303 	lsl.w	r3, r4, r3
 8000c6a:	4313      	orrs	r3, r2
 8000c6c:	60eb      	str	r3, [r5, #12]
    /* Set the new sample time */
    hadc->Instance->SMPR2 |= ADC_SMPR2(sConfigInjected->InjectedSamplingTime, sConfigInjected->InjectedChannel);
  }
  
  /*---------------------------- ADCx JSQR Configuration -----------------*/
  hadc->Instance->JSQR &= ~(ADC_JSQR_JL);
 8000c6e:	6802      	ldr	r2, [r0, #0]
 8000c70:	6b93      	ldr	r3, [r2, #56]	; 0x38
 8000c72:	f423 1340 	bic.w	r3, r3, #3145728	; 0x300000
 8000c76:	6393      	str	r3, [r2, #56]	; 0x38
  hadc->Instance->JSQR |=  ADC_SQR1(sConfigInjected->InjectedNbrOfConversion);
 8000c78:	6804      	ldr	r4, [r0, #0]
 8000c7a:	6ba3      	ldr	r3, [r4, #56]	; 0x38
 8000c7c:	690a      	ldr	r2, [r1, #16]
 8000c7e:	3a01      	subs	r2, #1
 8000c80:	ea43 5302 	orr.w	r3, r3, r2, lsl #20
 8000c84:	63a3      	str	r3, [r4, #56]	; 0x38
  
  /* Rank configuration */
  
  /* Clear the old SQx bits for the selected rank */
  hadc->Instance->JSQR &= ~ADC_JSQR(ADC_JSQR_JSQ1, sConfigInjected->InjectedRank,sConfigInjected->InjectedNbrOfConversion);
 8000c86:	6805      	ldr	r5, [r0, #0]
 8000c88:	6baa      	ldr	r2, [r5, #56]	; 0x38
 8000c8a:	684b      	ldr	r3, [r1, #4]
 8000c8c:	690c      	ldr	r4, [r1, #16]
 8000c8e:	1b1b      	subs	r3, r3, r4
 8000c90:	b2db      	uxtb	r3, r3
 8000c92:	3303      	adds	r3, #3
 8000c94:	b2db      	uxtb	r3, r3
 8000c96:	eb03 0383 	add.w	r3, r3, r3, lsl #2
 8000c9a:	241f      	movs	r4, #31
 8000c9c:	fa04 f303 	lsl.w	r3, r4, r3
 8000ca0:	ea22 0303 	bic.w	r3, r2, r3
 8000ca4:	63ab      	str	r3, [r5, #56]	; 0x38
   
  /* Set the SQx bits for the selected rank */
  hadc->Instance->JSQR |= ADC_JSQR(sConfigInjected->InjectedChannel, sConfigInjected->InjectedRank,sConfigInjected->InjectedNbrOfConversion);
 8000ca6:	6805      	ldr	r5, [r0, #0]
 8000ca8:	6baa      	ldr	r2, [r5, #56]	; 0x38
 8000caa:	684b      	ldr	r3, [r1, #4]
 8000cac:	690c      	ldr	r4, [r1, #16]
 8000cae:	1b1b      	subs	r3, r3, r4
 8000cb0:	b2db      	uxtb	r3, r3
 8000cb2:	3303      	adds	r3, #3
 8000cb4:	b2db      	uxtb	r3, r3
 8000cb6:	eb03 0383 	add.w	r3, r3, r3, lsl #2
 8000cba:	880c      	ldrh	r4, [r1, #0]
 8000cbc:	fa04 f303 	lsl.w	r3, r4, r3
 8000cc0:	4313      	orrs	r3, r2
 8000cc2:	63ab      	str	r3, [r5, #56]	; 0x38
  /* Enable external trigger if trigger selection is different of software  */
  /* start.                                                                 */
  /* Note: This configuration keeps the hardware feature of parameter       */
  /*       ExternalTrigConvEdge "trigger edge none" equivalent to           */
  /*       software start.                                                  */ 
  if(sConfigInjected->ExternalTrigInjecConv != ADC_INJECTED_SOFTWARE_START)
 8000cc4:	698a      	ldr	r2, [r1, #24]
 8000cc6:	4b59      	ldr	r3, [pc, #356]	; (8000e2c <HAL_ADCEx_InjectedConfigChannel+0x204>)
 8000cc8:	429a      	cmp	r2, r3
 8000cca:	d04d      	beq.n	8000d68 <HAL_ADCEx_InjectedConfigChannel+0x140>
  {  
    /* Select external trigger to start conversion */
    hadc->Instance->CR2 &= ~(ADC_CR2_JEXTSEL);
 8000ccc:	6802      	ldr	r2, [r0, #0]
 8000cce:	6893      	ldr	r3, [r2, #8]
 8000cd0:	f423 2370 	bic.w	r3, r3, #983040	; 0xf0000
 8000cd4:	6093      	str	r3, [r2, #8]
    hadc->Instance->CR2 |=  sConfigInjected->ExternalTrigInjecConv;
 8000cd6:	6802      	ldr	r2, [r0, #0]
 8000cd8:	6893      	ldr	r3, [r2, #8]
 8000cda:	698c      	ldr	r4, [r1, #24]
 8000cdc:	4323      	orrs	r3, r4
 8000cde:	6093      	str	r3, [r2, #8]
    
    /* Select external trigger polarity */
    hadc->Instance->CR2 &= ~(ADC_CR2_JEXTEN);
 8000ce0:	6802      	ldr	r2, [r0, #0]
 8000ce2:	6893      	ldr	r3, [r2, #8]
 8000ce4:	f423 1340 	bic.w	r3, r3, #3145728	; 0x300000
 8000ce8:	6093      	str	r3, [r2, #8]
    hadc->Instance->CR2 |= sConfigInjected->ExternalTrigInjecConvEdge;
 8000cea:	6802      	ldr	r2, [r0, #0]
 8000cec:	6893      	ldr	r3, [r2, #8]
 8000cee:	69cc      	ldr	r4, [r1, #28]
 8000cf0:	4323      	orrs	r3, r4
 8000cf2:	6093      	str	r3, [r2, #8]
    /* Reset the external trigger */
    hadc->Instance->CR2 &= ~(ADC_CR2_JEXTSEL);
    hadc->Instance->CR2 &= ~(ADC_CR2_JEXTEN);  
  }
  
  if (sConfigInjected->AutoInjectedConv != DISABLE)
 8000cf4:	7d4b      	ldrb	r3, [r1, #21]
 8000cf6:	2b00      	cmp	r3, #0
 8000cf8:	d041      	beq.n	8000d7e <HAL_ADCEx_InjectedConfigChannel+0x156>
  {
    /* Enable the selected ADC automatic injected group conversion */
    hadc->Instance->CR1 |= ADC_CR1_JAUTO;
 8000cfa:	6802      	ldr	r2, [r0, #0]
 8000cfc:	6853      	ldr	r3, [r2, #4]
 8000cfe:	f443 6380 	orr.w	r3, r3, #1024	; 0x400
 8000d02:	6053      	str	r3, [r2, #4]
  {
    /* Disable the selected ADC automatic injected group conversion */
    hadc->Instance->CR1 &= ~(ADC_CR1_JAUTO);
  }
  
  if (sConfigInjected->InjectedDiscontinuousConvMode != DISABLE)
 8000d04:	7d0b      	ldrb	r3, [r1, #20]
 8000d06:	2b00      	cmp	r3, #0
 8000d08:	d03f      	beq.n	8000d8a <HAL_ADCEx_InjectedConfigChannel+0x162>
  {
    /* Enable the selected ADC injected discontinuous mode */
    hadc->Instance->CR1 |= ADC_CR1_JDISCEN;
 8000d0a:	6802      	ldr	r2, [r0, #0]
 8000d0c:	6853      	ldr	r3, [r2, #4]
 8000d0e:	f443 5380 	orr.w	r3, r3, #4096	; 0x1000
 8000d12:	6053      	str	r3, [r2, #4]
  {
    /* Disable the selected ADC injected discontinuous mode */
    hadc->Instance->CR1 &= ~(ADC_CR1_JDISCEN);
  }
  
  switch(sConfigInjected->InjectedRank)
 8000d14:	684b      	ldr	r3, [r1, #4]
 8000d16:	2b02      	cmp	r3, #2
 8000d18:	d057      	beq.n	8000dca <HAL_ADCEx_InjectedConfigChannel+0x1a2>
 8000d1a:	2b03      	cmp	r3, #3
 8000d1c:	d062      	beq.n	8000de4 <HAL_ADCEx_InjectedConfigChannel+0x1bc>
 8000d1e:	2b01      	cmp	r3, #1
 8000d20:	d039      	beq.n	8000d96 <HAL_ADCEx_InjectedConfigChannel+0x16e>
      hadc->Instance->JOFR3 &= ~(ADC_JOFR3_JOFFSET3);
      hadc->Instance->JOFR3 |= sConfigInjected->InjectedOffset;
      break;
    default:
      /* Set injected channel 4 offset */
      hadc->Instance->JOFR4 &= ~(ADC_JOFR4_JOFFSET4);
 8000d22:	6802      	ldr	r2, [r0, #0]
 8000d24:	6a13      	ldr	r3, [r2, #32]
 8000d26:	f423 637f 	bic.w	r3, r3, #4080	; 0xff0
 8000d2a:	f023 030f 	bic.w	r3, r3, #15
 8000d2e:	6213      	str	r3, [r2, #32]
      hadc->Instance->JOFR4 |= sConfigInjected->InjectedOffset;
 8000d30:	6802      	ldr	r2, [r0, #0]
 8000d32:	6a13      	ldr	r3, [r2, #32]
 8000d34:	68cc      	ldr	r4, [r1, #12]
 8000d36:	4323      	orrs	r3, r4
 8000d38:	6213      	str	r3, [r2, #32]
      break;
 8000d3a:	e038      	b.n	8000dae <HAL_ADCEx_InjectedConfigChannel+0x186>
    hadc->Instance->SMPR2 &= ~ADC_SMPR2(ADC_SMPR2_SMP0, sConfigInjected->InjectedChannel);
 8000d3c:	6805      	ldr	r5, [r0, #0]
 8000d3e:	692a      	ldr	r2, [r5, #16]
 8000d40:	b29b      	uxth	r3, r3
 8000d42:	eb03 0343 	add.w	r3, r3, r3, lsl #1
 8000d46:	2407      	movs	r4, #7
 8000d48:	fa04 f303 	lsl.w	r3, r4, r3
 8000d4c:	ea22 0303 	bic.w	r3, r2, r3
 8000d50:	612b      	str	r3, [r5, #16]
    hadc->Instance->SMPR2 |= ADC_SMPR2(sConfigInjected->InjectedSamplingTime, sConfigInjected->InjectedChannel);
 8000d52:	6805      	ldr	r5, [r0, #0]
 8000d54:	692a      	ldr	r2, [r5, #16]
 8000d56:	688c      	ldr	r4, [r1, #8]
 8000d58:	880b      	ldrh	r3, [r1, #0]
 8000d5a:	eb03 0343 	add.w	r3, r3, r3, lsl #1
 8000d5e:	fa04 f303 	lsl.w	r3, r4, r3
 8000d62:	4313      	orrs	r3, r2
 8000d64:	612b      	str	r3, [r5, #16]
 8000d66:	e782      	b.n	8000c6e <HAL_ADCEx_InjectedConfigChannel+0x46>
    hadc->Instance->CR2 &= ~(ADC_CR2_JEXTSEL);
 8000d68:	6802      	ldr	r2, [r0, #0]
 8000d6a:	6893      	ldr	r3, [r2, #8]
 8000d6c:	f423 2370 	bic.w	r3, r3, #983040	; 0xf0000
 8000d70:	6093      	str	r3, [r2, #8]
    hadc->Instance->CR2 &= ~(ADC_CR2_JEXTEN);  
 8000d72:	6802      	ldr	r2, [r0, #0]
 8000d74:	6893      	ldr	r3, [r2, #8]
 8000d76:	f423 1340 	bic.w	r3, r3, #3145728	; 0x300000
 8000d7a:	6093      	str	r3, [r2, #8]
 8000d7c:	e7ba      	b.n	8000cf4 <HAL_ADCEx_InjectedConfigChannel+0xcc>
    hadc->Instance->CR1 &= ~(ADC_CR1_JAUTO);
 8000d7e:	6802      	ldr	r2, [r0, #0]
 8000d80:	6853      	ldr	r3, [r2, #4]
 8000d82:	f423 6380 	bic.w	r3, r3, #1024	; 0x400
 8000d86:	6053      	str	r3, [r2, #4]
 8000d88:	e7bc      	b.n	8000d04 <HAL_ADCEx_InjectedConfigChannel+0xdc>
    hadc->Instance->CR1 &= ~(ADC_CR1_JDISCEN);
 8000d8a:	6802      	ldr	r2, [r0, #0]
 8000d8c:	6853      	ldr	r3, [r2, #4]
 8000d8e:	f423 5380 	bic.w	r3, r3, #4096	; 0x1000
 8000d92:	6053      	str	r3, [r2, #4]
 8000d94:	e7be      	b.n	8000d14 <HAL_ADCEx_InjectedConfigChannel+0xec>
      hadc->Instance->JOFR1 &= ~(ADC_JOFR1_JOFFSET1);
 8000d96:	6802      	ldr	r2, [r0, #0]
 8000d98:	6953      	ldr	r3, [r2, #20]
 8000d9a:	f423 637f 	bic.w	r3, r3, #4080	; 0xff0
 8000d9e:	f023 030f 	bic.w	r3, r3, #15
 8000da2:	6153      	str	r3, [r2, #20]
      hadc->Instance->JOFR1 |= sConfigInjected->InjectedOffset;
 8000da4:	6802      	ldr	r2, [r0, #0]
 8000da6:	6953      	ldr	r3, [r2, #20]
 8000da8:	68cc      	ldr	r4, [r1, #12]
 8000daa:	4323      	orrs	r3, r4
 8000dac:	6153      	str	r3, [r2, #20]
  /* (Depending on STM32F4 product, there may be up to 3 ADC and 1 common */
  /* control register)                                                    */
    tmpADC_Common = ADC_COMMON_REGISTER(hadc);

  /* if ADC1 Channel_18 is selected enable VBAT Channel */
  if ((hadc->Instance == ADC1) && (sConfigInjected->InjectedChannel == ADC_CHANNEL_VBAT))
 8000dae:	6802      	ldr	r2, [r0, #0]
 8000db0:	4b1f      	ldr	r3, [pc, #124]	; (8000e30 <HAL_ADCEx_InjectedConfigChannel+0x208>)
 8000db2:	429a      	cmp	r2, r3
 8000db4:	d023      	beq.n	8000dfe <HAL_ADCEx_InjectedConfigChannel+0x1d6>
    /* Enable the VBAT channel*/
    tmpADC_Common->CCR |= ADC_CCR_VBATE;
  }
  
  /* if ADC1 Channel_16 or Channel_17 is selected enable TSVREFE Channel(Temperature sensor and VREFINT) */
  if ((hadc->Instance == ADC1) && ((sConfigInjected->InjectedChannel == ADC_CHANNEL_TEMPSENSOR) || (sConfigInjected->InjectedChannel == ADC_CHANNEL_VREFINT)))
 8000db6:	6802      	ldr	r2, [r0, #0]
 8000db8:	4b1d      	ldr	r3, [pc, #116]	; (8000e30 <HAL_ADCEx_InjectedConfigChannel+0x208>)
 8000dba:	429a      	cmp	r2, r3
 8000dbc:	d028      	beq.n	8000e10 <HAL_ADCEx_InjectedConfigChannel+0x1e8>
    /* Enable the TSVREFE channel*/
    tmpADC_Common->CCR |= ADC_CCR_TSVREFE;
  }
  
  /* Process unlocked */
  __HAL_UNLOCK(hadc);
 8000dbe:	2300      	movs	r3, #0
 8000dc0:	f880 303c 	strb.w	r3, [r0, #60]	; 0x3c
  
  /* Return function status */
  return HAL_OK;
 8000dc4:	4618      	mov	r0, r3
}
 8000dc6:	bc30      	pop	{r4, r5}
 8000dc8:	4770      	bx	lr
      hadc->Instance->JOFR2 &= ~(ADC_JOFR2_JOFFSET2);
 8000dca:	6802      	ldr	r2, [r0, #0]
 8000dcc:	6993      	ldr	r3, [r2, #24]
 8000dce:	f423 637f 	bic.w	r3, r3, #4080	; 0xff0
 8000dd2:	f023 030f 	bic.w	r3, r3, #15
 8000dd6:	6193      	str	r3, [r2, #24]
      hadc->Instance->JOFR2 |= sConfigInjected->InjectedOffset;
 8000dd8:	6802      	ldr	r2, [r0, #0]
 8000dda:	6993      	ldr	r3, [r2, #24]
 8000ddc:	68cc      	ldr	r4, [r1, #12]
 8000dde:	4323      	orrs	r3, r4
 8000de0:	6193      	str	r3, [r2, #24]
      break;
 8000de2:	e7e4      	b.n	8000dae <HAL_ADCEx_InjectedConfigChannel+0x186>
      hadc->Instance->JOFR3 &= ~(ADC_JOFR3_JOFFSET3);
 8000de4:	6802      	ldr	r2, [r0, #0]
 8000de6:	69d3      	ldr	r3, [r2, #28]
 8000de8:	f423 637f 	bic.w	r3, r3, #4080	; 0xff0
 8000dec:	f023 030f 	bic.w	r3, r3, #15
 8000df0:	61d3      	str	r3, [r2, #28]
      hadc->Instance->JOFR3 |= sConfigInjected->InjectedOffset;
 8000df2:	6802      	ldr	r2, [r0, #0]
 8000df4:	69d3      	ldr	r3, [r2, #28]
 8000df6:	68cc      	ldr	r4, [r1, #12]
 8000df8:	4323      	orrs	r3, r4
 8000dfa:	61d3      	str	r3, [r2, #28]
      break;
 8000dfc:	e7d7      	b.n	8000dae <HAL_ADCEx_InjectedConfigChannel+0x186>
  if ((hadc->Instance == ADC1) && (sConfigInjected->InjectedChannel == ADC_CHANNEL_VBAT))
 8000dfe:	680b      	ldr	r3, [r1, #0]
 8000e00:	2b12      	cmp	r3, #18
 8000e02:	d1d8      	bne.n	8000db6 <HAL_ADCEx_InjectedConfigChannel+0x18e>
    tmpADC_Common->CCR |= ADC_CCR_VBATE;
 8000e04:	4a0b      	ldr	r2, [pc, #44]	; (8000e34 <HAL_ADCEx_InjectedConfigChannel+0x20c>)
 8000e06:	6853      	ldr	r3, [r2, #4]
 8000e08:	f443 0380 	orr.w	r3, r3, #4194304	; 0x400000
 8000e0c:	6053      	str	r3, [r2, #4]
 8000e0e:	e7d2      	b.n	8000db6 <HAL_ADCEx_InjectedConfigChannel+0x18e>
  if ((hadc->Instance == ADC1) && ((sConfigInjected->InjectedChannel == ADC_CHANNEL_TEMPSENSOR) || (sConfigInjected->InjectedChannel == ADC_CHANNEL_VREFINT)))
 8000e10:	680b      	ldr	r3, [r1, #0]
 8000e12:	4a09      	ldr	r2, [pc, #36]	; (8000e38 <HAL_ADCEx_InjectedConfigChannel+0x210>)
 8000e14:	4293      	cmp	r3, r2
 8000e16:	d001      	beq.n	8000e1c <HAL_ADCEx_InjectedConfigChannel+0x1f4>
 8000e18:	2b11      	cmp	r3, #17
 8000e1a:	d1d0      	bne.n	8000dbe <HAL_ADCEx_InjectedConfigChannel+0x196>
    tmpADC_Common->CCR |= ADC_CCR_TSVREFE;
 8000e1c:	4a05      	ldr	r2, [pc, #20]	; (8000e34 <HAL_ADCEx_InjectedConfigChannel+0x20c>)
 8000e1e:	6853      	ldr	r3, [r2, #4]
 8000e20:	f443 0300 	orr.w	r3, r3, #8388608	; 0x800000
 8000e24:	6053      	str	r3, [r2, #4]
 8000e26:	e7ca      	b.n	8000dbe <HAL_ADCEx_InjectedConfigChannel+0x196>
  __HAL_LOCK(hadc);
 8000e28:	2002      	movs	r0, #2
}
 8000e2a:	4770      	bx	lr
 8000e2c:	000f0001 	.word	0x000f0001
 8000e30:	40012000 	.word	0x40012000
 8000e34:	40012300 	.word	0x40012300
 8000e38:	10000012 	.word	0x10000012

08000e3c <HAL_CAN_Init>:
HAL_StatusTypeDef HAL_CAN_Init(CAN_HandleTypeDef *hcan)
{
  uint32_t tickstart;

  /* Check CAN handle */
  if (hcan == NULL)
 8000e3c:	2800      	cmp	r0, #0
 8000e3e:	f000 80a1 	beq.w	8000f84 <HAL_CAN_Init+0x148>
{
 8000e42:	b538      	push	{r3, r4, r5, lr}
 8000e44:	4604      	mov	r4, r0
    /* Init the low level hardware: CLOCK, NVIC */
    hcan->MspInitCallback(hcan);
  }

#else
  if (hcan->State == HAL_CAN_STATE_RESET)
 8000e46:	f890 3020 	ldrb.w	r3, [r0, #32]
 8000e4a:	b1d3      	cbz	r3, 8000e82 <HAL_CAN_Init+0x46>
    HAL_CAN_MspInit(hcan);
  }
#endif /* (USE_HAL_CAN_REGISTER_CALLBACKS) */

  /* Request initialisation */
  SET_BIT(hcan->Instance->MCR, CAN_MCR_INRQ);
 8000e4c:	6822      	ldr	r2, [r4, #0]
 8000e4e:	6813      	ldr	r3, [r2, #0]
 8000e50:	f043 0301 	orr.w	r3, r3, #1
 8000e54:	6013      	str	r3, [r2, #0]

  /* Get tick */
  tickstart = HAL_GetTick();
 8000e56:	f7ff fbf9 	bl	800064c <HAL_GetTick>
 8000e5a:	4605      	mov	r5, r0

  /* Wait initialisation acknowledge */
  while ((hcan->Instance->MSR & CAN_MSR_INAK) == 0U)
 8000e5c:	6823      	ldr	r3, [r4, #0]
 8000e5e:	685a      	ldr	r2, [r3, #4]
 8000e60:	f012 0f01 	tst.w	r2, #1
 8000e64:	d110      	bne.n	8000e88 <HAL_CAN_Init+0x4c>
  {
    if ((HAL_GetTick() - tickstart) > CAN_TIMEOUT_VALUE)
 8000e66:	f7ff fbf1 	bl	800064c <HAL_GetTick>
 8000e6a:	1b40      	subs	r0, r0, r5
 8000e6c:	280a      	cmp	r0, #10
 8000e6e:	d9f5      	bls.n	8000e5c <HAL_CAN_Init+0x20>
    {
      /* Update error code */
      hcan->ErrorCode |= HAL_CAN_ERROR_TIMEOUT;
 8000e70:	6a63      	ldr	r3, [r4, #36]	; 0x24
 8000e72:	f443 3300 	orr.w	r3, r3, #131072	; 0x20000
 8000e76:	6263      	str	r3, [r4, #36]	; 0x24

      /* Change CAN state */
      hcan->State = HAL_CAN_STATE_ERROR;
 8000e78:	2305      	movs	r3, #5
 8000e7a:	f884 3020 	strb.w	r3, [r4, #32]

      return HAL_ERROR;
 8000e7e:	2001      	movs	r0, #1
  /* Initialize the CAN state */
  hcan->State = HAL_CAN_STATE_READY;

  /* Return function status */
  return HAL_OK;
}
 8000e80:	bd38      	pop	{r3, r4, r5, pc}
    HAL_CAN_MspInit(hcan);
 8000e82:	f003 f8f7 	bl	8004074 <HAL_CAN_MspInit>
 8000e86:	e7e1      	b.n	8000e4c <HAL_CAN_Init+0x10>
  CLEAR_BIT(hcan->Instance->MCR, CAN_MCR_SLEEP);
 8000e88:	681a      	ldr	r2, [r3, #0]
 8000e8a:	f022 0202 	bic.w	r2, r2, #2
 8000e8e:	601a      	str	r2, [r3, #0]
  tickstart = HAL_GetTick();
 8000e90:	f7ff fbdc 	bl	800064c <HAL_GetTick>
 8000e94:	4605      	mov	r5, r0
  while ((hcan->Instance->MSR & CAN_MSR_SLAK) != 0U)
 8000e96:	6823      	ldr	r3, [r4, #0]
 8000e98:	685a      	ldr	r2, [r3, #4]
 8000e9a:	f012 0f02 	tst.w	r2, #2
 8000e9e:	d00d      	beq.n	8000ebc <HAL_CAN_Init+0x80>
    if ((HAL_GetTick() - tickstart) > CAN_TIMEOUT_VALUE)
 8000ea0:	f7ff fbd4 	bl	800064c <HAL_GetTick>
 8000ea4:	1b40      	subs	r0, r0, r5
 8000ea6:	280a      	cmp	r0, #10
 8000ea8:	d9f5      	bls.n	8000e96 <HAL_CAN_Init+0x5a>
      hcan->ErrorCode |= HAL_CAN_ERROR_TIMEOUT;
 8000eaa:	6a63      	ldr	r3, [r4, #36]	; 0x24
 8000eac:	f443 3300 	orr.w	r3, r3, #131072	; 0x20000
 8000eb0:	6263      	str	r3, [r4, #36]	; 0x24
      hcan->State = HAL_CAN_STATE_ERROR;
 8000eb2:	2305      	movs	r3, #5
 8000eb4:	f884 3020 	strb.w	r3, [r4, #32]
      return HAL_ERROR;
 8000eb8:	2001      	movs	r0, #1
 8000eba:	e7e1      	b.n	8000e80 <HAL_CAN_Init+0x44>
  if (hcan->Init.TimeTriggeredMode == ENABLE)
 8000ebc:	7e22      	ldrb	r2, [r4, #24]
 8000ebe:	2a01      	cmp	r2, #1
 8000ec0:	d03d      	beq.n	8000f3e <HAL_CAN_Init+0x102>
    CLEAR_BIT(hcan->Instance->MCR, CAN_MCR_TTCM);
 8000ec2:	681a      	ldr	r2, [r3, #0]
 8000ec4:	f022 0280 	bic.w	r2, r2, #128	; 0x80
 8000ec8:	601a      	str	r2, [r3, #0]
  if (hcan->Init.AutoBusOff == ENABLE)
 8000eca:	7e63      	ldrb	r3, [r4, #25]
 8000ecc:	2b01      	cmp	r3, #1
 8000ece:	d03b      	beq.n	8000f48 <HAL_CAN_Init+0x10c>
    CLEAR_BIT(hcan->Instance->MCR, CAN_MCR_ABOM);
 8000ed0:	6822      	ldr	r2, [r4, #0]
 8000ed2:	6813      	ldr	r3, [r2, #0]
 8000ed4:	f023 0340 	bic.w	r3, r3, #64	; 0x40
 8000ed8:	6013      	str	r3, [r2, #0]
  if (hcan->Init.AutoWakeUp == ENABLE)
 8000eda:	7ea3      	ldrb	r3, [r4, #26]
 8000edc:	2b01      	cmp	r3, #1
 8000ede:	d039      	beq.n	8000f54 <HAL_CAN_Init+0x118>
    CLEAR_BIT(hcan->Instance->MCR, CAN_MCR_AWUM);
 8000ee0:	6822      	ldr	r2, [r4, #0]
 8000ee2:	6813      	ldr	r3, [r2, #0]
 8000ee4:	f023 0320 	bic.w	r3, r3, #32
 8000ee8:	6013      	str	r3, [r2, #0]
  if (hcan->Init.AutoRetransmission == ENABLE)
 8000eea:	7ee3      	ldrb	r3, [r4, #27]
 8000eec:	2b01      	cmp	r3, #1
 8000eee:	d037      	beq.n	8000f60 <HAL_CAN_Init+0x124>
    SET_BIT(hcan->Instance->MCR, CAN_MCR_NART);
 8000ef0:	6822      	ldr	r2, [r4, #0]
 8000ef2:	6813      	ldr	r3, [r2, #0]
 8000ef4:	f043 0310 	orr.w	r3, r3, #16
 8000ef8:	6013      	str	r3, [r2, #0]
  if (hcan->Init.ReceiveFifoLocked == ENABLE)
 8000efa:	7f23      	ldrb	r3, [r4, #28]
 8000efc:	2b01      	cmp	r3, #1
 8000efe:	d035      	beq.n	8000f6c <HAL_CAN_Init+0x130>
    CLEAR_BIT(hcan->Instance->MCR, CAN_MCR_RFLM);
 8000f00:	6822      	ldr	r2, [r4, #0]
 8000f02:	6813      	ldr	r3, [r2, #0]
 8000f04:	f023 0308 	bic.w	r3, r3, #8
 8000f08:	6013      	str	r3, [r2, #0]
  if (hcan->Init.TransmitFifoPriority == ENABLE)
 8000f0a:	7f63      	ldrb	r3, [r4, #29]
 8000f0c:	2b01      	cmp	r3, #1
 8000f0e:	d033      	beq.n	8000f78 <HAL_CAN_Init+0x13c>
    CLEAR_BIT(hcan->Instance->MCR, CAN_MCR_TXFP);
 8000f10:	6822      	ldr	r2, [r4, #0]
 8000f12:	6813      	ldr	r3, [r2, #0]
 8000f14:	f023 0304 	bic.w	r3, r3, #4
 8000f18:	6013      	str	r3, [r2, #0]
  WRITE_REG(hcan->Instance->BTR, (uint32_t)(hcan->Init.Mode           |
 8000f1a:	68a3      	ldr	r3, [r4, #8]
 8000f1c:	68e2      	ldr	r2, [r4, #12]
 8000f1e:	4313      	orrs	r3, r2
 8000f20:	6922      	ldr	r2, [r4, #16]
 8000f22:	4313      	orrs	r3, r2
 8000f24:	6962      	ldr	r2, [r4, #20]
 8000f26:	4313      	orrs	r3, r2
 8000f28:	6862      	ldr	r2, [r4, #4]
 8000f2a:	3a01      	subs	r2, #1
 8000f2c:	6821      	ldr	r1, [r4, #0]
 8000f2e:	4313      	orrs	r3, r2
 8000f30:	61cb      	str	r3, [r1, #28]
  hcan->ErrorCode = HAL_CAN_ERROR_NONE;
 8000f32:	2000      	movs	r0, #0
 8000f34:	6260      	str	r0, [r4, #36]	; 0x24
  hcan->State = HAL_CAN_STATE_READY;
 8000f36:	2301      	movs	r3, #1
 8000f38:	f884 3020 	strb.w	r3, [r4, #32]
  return HAL_OK;
 8000f3c:	e7a0      	b.n	8000e80 <HAL_CAN_Init+0x44>
    SET_BIT(hcan->Instance->MCR, CAN_MCR_TTCM);
 8000f3e:	681a      	ldr	r2, [r3, #0]
 8000f40:	f042 0280 	orr.w	r2, r2, #128	; 0x80
 8000f44:	601a      	str	r2, [r3, #0]
 8000f46:	e7c0      	b.n	8000eca <HAL_CAN_Init+0x8e>
    SET_BIT(hcan->Instance->MCR, CAN_MCR_ABOM);
 8000f48:	6822      	ldr	r2, [r4, #0]
 8000f4a:	6813      	ldr	r3, [r2, #0]
 8000f4c:	f043 0340 	orr.w	r3, r3, #64	; 0x40
 8000f50:	6013      	str	r3, [r2, #0]
 8000f52:	e7c2      	b.n	8000eda <HAL_CAN_Init+0x9e>
    SET_BIT(hcan->Instance->MCR, CAN_MCR_AWUM);
 8000f54:	6822      	ldr	r2, [r4, #0]
 8000f56:	6813      	ldr	r3, [r2, #0]
 8000f58:	f043 0320 	orr.w	r3, r3, #32
 8000f5c:	6013      	str	r3, [r2, #0]
 8000f5e:	e7c4      	b.n	8000eea <HAL_CAN_Init+0xae>
    CLEAR_BIT(hcan->Instance->MCR, CAN_MCR_NART);
 8000f60:	6822      	ldr	r2, [r4, #0]
 8000f62:	6813      	ldr	r3, [r2, #0]
 8000f64:	f023 0310 	bic.w	r3, r3, #16
 8000f68:	6013      	str	r3, [r2, #0]
 8000f6a:	e7c6      	b.n	8000efa <HAL_CAN_Init+0xbe>
    SET_BIT(hcan->Instance->MCR, CAN_MCR_RFLM);
 8000f6c:	6822      	ldr	r2, [r4, #0]
 8000f6e:	6813      	ldr	r3, [r2, #0]
 8000f70:	f043 0308 	orr.w	r3, r3, #8
 8000f74:	6013      	str	r3, [r2, #0]
 8000f76:	e7c8      	b.n	8000f0a <HAL_CAN_Init+0xce>
    SET_BIT(hcan->Instance->MCR, CAN_MCR_TXFP);
 8000f78:	6822      	ldr	r2, [r4, #0]
 8000f7a:	6813      	ldr	r3, [r2, #0]
 8000f7c:	f043 0304 	orr.w	r3, r3, #4
 8000f80:	6013      	str	r3, [r2, #0]
 8000f82:	e7ca      	b.n	8000f1a <HAL_CAN_Init+0xde>
    return HAL_ERROR;
 8000f84:	2001      	movs	r0, #1
}
 8000f86:	4770      	bx	lr

08000f88 <HAL_CAN_ConfigFilter>:
  */
HAL_StatusTypeDef HAL_CAN_ConfigFilter(CAN_HandleTypeDef *hcan, CAN_FilterTypeDef *sFilterConfig)
{
  uint32_t filternbrbitpos;
  CAN_TypeDef *can_ip = hcan->Instance;
  HAL_CAN_StateTypeDef state = hcan->State;
 8000f88:	f890 3020 	ldrb.w	r3, [r0, #32]

  if ((state == HAL_CAN_STATE_READY) ||
 8000f8c:	3b01      	subs	r3, #1
 8000f8e:	b2db      	uxtb	r3, r3
 8000f90:	2b01      	cmp	r3, #1
 8000f92:	d905      	bls.n	8000fa0 <HAL_CAN_ConfigFilter+0x18>
    return HAL_OK;
  }
  else
  {
    /* Update error code */
    hcan->ErrorCode |= HAL_CAN_ERROR_NOT_INITIALIZED;
 8000f94:	6a43      	ldr	r3, [r0, #36]	; 0x24
 8000f96:	f443 2380 	orr.w	r3, r3, #262144	; 0x40000
 8000f9a:	6243      	str	r3, [r0, #36]	; 0x24

    return HAL_ERROR;
 8000f9c:	2001      	movs	r0, #1
  }
}
 8000f9e:	4770      	bx	lr
{
 8000fa0:	b470      	push	{r4, r5, r6}
    SET_BIT(can_ip->FMR, CAN_FMR_FINIT);
 8000fa2:	4b44      	ldr	r3, [pc, #272]	; (80010b4 <HAL_CAN_ConfigFilter+0x12c>)
 8000fa4:	f8d3 2200 	ldr.w	r2, [r3, #512]	; 0x200
 8000fa8:	f042 0201 	orr.w	r2, r2, #1
 8000fac:	f8c3 2200 	str.w	r2, [r3, #512]	; 0x200
    CLEAR_BIT(can_ip->FMR, CAN_FMR_CAN2SB);
 8000fb0:	f8d3 2200 	ldr.w	r2, [r3, #512]	; 0x200
 8000fb4:	f422 527c 	bic.w	r2, r2, #16128	; 0x3f00
 8000fb8:	f8c3 2200 	str.w	r2, [r3, #512]	; 0x200
    SET_BIT(can_ip->FMR, sFilterConfig->SlaveStartFilterBank << CAN_FMR_CAN2SB_Pos);
 8000fbc:	f8d3 2200 	ldr.w	r2, [r3, #512]	; 0x200
 8000fc0:	6a48      	ldr	r0, [r1, #36]	; 0x24
 8000fc2:	ea42 2200 	orr.w	r2, r2, r0, lsl #8
 8000fc6:	f8c3 2200 	str.w	r2, [r3, #512]	; 0x200
    filternbrbitpos = (uint32_t)1 << (sFilterConfig->FilterBank & 0x1FU);
 8000fca:	694a      	ldr	r2, [r1, #20]
 8000fcc:	f002 021f 	and.w	r2, r2, #31
 8000fd0:	2001      	movs	r0, #1
 8000fd2:	fa00 f202 	lsl.w	r2, r0, r2
    CLEAR_BIT(can_ip->FA1R, filternbrbitpos);
 8000fd6:	f8d3 021c 	ldr.w	r0, [r3, #540]	; 0x21c
 8000fda:	43d4      	mvns	r4, r2
 8000fdc:	ea20 0002 	bic.w	r0, r0, r2
 8000fe0:	f8c3 021c 	str.w	r0, [r3, #540]	; 0x21c
    if (sFilterConfig->FilterScale == CAN_FILTERSCALE_16BIT)
 8000fe4:	69cb      	ldr	r3, [r1, #28]
 8000fe6:	b9b3      	cbnz	r3, 8001016 <HAL_CAN_ConfigFilter+0x8e>
      CLEAR_BIT(can_ip->FS1R, filternbrbitpos);
 8000fe8:	4b32      	ldr	r3, [pc, #200]	; (80010b4 <HAL_CAN_ConfigFilter+0x12c>)
 8000fea:	f8d3 020c 	ldr.w	r0, [r3, #524]	; 0x20c
 8000fee:	4020      	ands	r0, r4
 8000ff0:	f8c3 020c 	str.w	r0, [r3, #524]	; 0x20c
        ((0x0000FFFFU & (uint32_t)sFilterConfig->FilterMaskIdLow) << 16U) |
 8000ff4:	68ce      	ldr	r6, [r1, #12]
        (0x0000FFFFU & (uint32_t)sFilterConfig->FilterIdLow);
 8000ff6:	888d      	ldrh	r5, [r1, #4]
      can_ip->sFilterRegister[sFilterConfig->FilterBank].FR1 =
 8000ff8:	6948      	ldr	r0, [r1, #20]
        ((0x0000FFFFU & (uint32_t)sFilterConfig->FilterMaskIdLow) << 16U) |
 8000ffa:	ea45 4506 	orr.w	r5, r5, r6, lsl #16
      can_ip->sFilterRegister[sFilterConfig->FilterBank].FR1 =
 8000ffe:	3048      	adds	r0, #72	; 0x48
 8001000:	f843 5030 	str.w	r5, [r3, r0, lsl #3]
        ((0x0000FFFFU & (uint32_t)sFilterConfig->FilterMaskIdHigh) << 16U) |
 8001004:	688e      	ldr	r6, [r1, #8]
        (0x0000FFFFU & (uint32_t)sFilterConfig->FilterIdHigh);
 8001006:	8808      	ldrh	r0, [r1, #0]
      can_ip->sFilterRegister[sFilterConfig->FilterBank].FR2 =
 8001008:	694d      	ldr	r5, [r1, #20]
        ((0x0000FFFFU & (uint32_t)sFilterConfig->FilterMaskIdHigh) << 16U) |
 800100a:	ea40 4006 	orr.w	r0, r0, r6, lsl #16
      can_ip->sFilterRegister[sFilterConfig->FilterBank].FR2 =
 800100e:	3548      	adds	r5, #72	; 0x48
 8001010:	eb03 03c5 	add.w	r3, r3, r5, lsl #3
 8001014:	6058      	str	r0, [r3, #4]
    if (sFilterConfig->FilterScale == CAN_FILTERSCALE_32BIT)
 8001016:	69cb      	ldr	r3, [r1, #28]
 8001018:	2b01      	cmp	r3, #1
 800101a:	d01d      	beq.n	8001058 <HAL_CAN_ConfigFilter+0xd0>
    if (sFilterConfig->FilterMode == CAN_FILTERMODE_IDMASK)
 800101c:	698b      	ldr	r3, [r1, #24]
 800101e:	2b00      	cmp	r3, #0
 8001020:	d132      	bne.n	8001088 <HAL_CAN_ConfigFilter+0x100>
      CLEAR_BIT(can_ip->FM1R, filternbrbitpos);
 8001022:	4824      	ldr	r0, [pc, #144]	; (80010b4 <HAL_CAN_ConfigFilter+0x12c>)
 8001024:	f8d0 3204 	ldr.w	r3, [r0, #516]	; 0x204
 8001028:	4023      	ands	r3, r4
 800102a:	f8c0 3204 	str.w	r3, [r0, #516]	; 0x204
    if (sFilterConfig->FilterFIFOAssignment == CAN_FILTER_FIFO0)
 800102e:	690b      	ldr	r3, [r1, #16]
 8001030:	bb8b      	cbnz	r3, 8001096 <HAL_CAN_ConfigFilter+0x10e>
      CLEAR_BIT(can_ip->FFA1R, filternbrbitpos);
 8001032:	4b20      	ldr	r3, [pc, #128]	; (80010b4 <HAL_CAN_ConfigFilter+0x12c>)
 8001034:	f8d3 0214 	ldr.w	r0, [r3, #532]	; 0x214
 8001038:	4004      	ands	r4, r0
 800103a:	f8c3 4214 	str.w	r4, [r3, #532]	; 0x214
    if (sFilterConfig->FilterActivation == CAN_FILTER_ENABLE)
 800103e:	6a0b      	ldr	r3, [r1, #32]
 8001040:	2b01      	cmp	r3, #1
 8001042:	d02f      	beq.n	80010a4 <HAL_CAN_ConfigFilter+0x11c>
    CLEAR_BIT(can_ip->FMR, CAN_FMR_FINIT);
 8001044:	4a1b      	ldr	r2, [pc, #108]	; (80010b4 <HAL_CAN_ConfigFilter+0x12c>)
 8001046:	f8d2 3200 	ldr.w	r3, [r2, #512]	; 0x200
 800104a:	f023 0301 	bic.w	r3, r3, #1
 800104e:	f8c2 3200 	str.w	r3, [r2, #512]	; 0x200
    return HAL_OK;
 8001052:	2000      	movs	r0, #0
}
 8001054:	bc70      	pop	{r4, r5, r6}
 8001056:	4770      	bx	lr
      SET_BIT(can_ip->FS1R, filternbrbitpos);
 8001058:	4b16      	ldr	r3, [pc, #88]	; (80010b4 <HAL_CAN_ConfigFilter+0x12c>)
 800105a:	f8d3 020c 	ldr.w	r0, [r3, #524]	; 0x20c
 800105e:	4310      	orrs	r0, r2
 8001060:	f8c3 020c 	str.w	r0, [r3, #524]	; 0x20c
        ((0x0000FFFFU & (uint32_t)sFilterConfig->FilterIdHigh) << 16U) |
 8001064:	680e      	ldr	r6, [r1, #0]
        (0x0000FFFFU & (uint32_t)sFilterConfig->FilterIdLow);
 8001066:	888d      	ldrh	r5, [r1, #4]
      can_ip->sFilterRegister[sFilterConfig->FilterBank].FR1 =
 8001068:	6948      	ldr	r0, [r1, #20]
        ((0x0000FFFFU & (uint32_t)sFilterConfig->FilterIdHigh) << 16U) |
 800106a:	ea45 4506 	orr.w	r5, r5, r6, lsl #16
      can_ip->sFilterRegister[sFilterConfig->FilterBank].FR1 =
 800106e:	3048      	adds	r0, #72	; 0x48
 8001070:	f843 5030 	str.w	r5, [r3, r0, lsl #3]
        ((0x0000FFFFU & (uint32_t)sFilterConfig->FilterMaskIdHigh) << 16U) |
 8001074:	688e      	ldr	r6, [r1, #8]
        (0x0000FFFFU & (uint32_t)sFilterConfig->FilterMaskIdLow);
 8001076:	8988      	ldrh	r0, [r1, #12]
      can_ip->sFilterRegister[sFilterConfig->FilterBank].FR2 =
 8001078:	694d      	ldr	r5, [r1, #20]
        ((0x0000FFFFU & (uint32_t)sFilterConfig->FilterMaskIdHigh) << 16U) |
 800107a:	ea40 4006 	orr.w	r0, r0, r6, lsl #16
      can_ip->sFilterRegister[sFilterConfig->FilterBank].FR2 =
 800107e:	3548      	adds	r5, #72	; 0x48
 8001080:	eb03 03c5 	add.w	r3, r3, r5, lsl #3
 8001084:	6058      	str	r0, [r3, #4]
 8001086:	e7c9      	b.n	800101c <HAL_CAN_ConfigFilter+0x94>
      SET_BIT(can_ip->FM1R, filternbrbitpos);
 8001088:	480a      	ldr	r0, [pc, #40]	; (80010b4 <HAL_CAN_ConfigFilter+0x12c>)
 800108a:	f8d0 3204 	ldr.w	r3, [r0, #516]	; 0x204
 800108e:	4313      	orrs	r3, r2
 8001090:	f8c0 3204 	str.w	r3, [r0, #516]	; 0x204
 8001094:	e7cb      	b.n	800102e <HAL_CAN_ConfigFilter+0xa6>
      SET_BIT(can_ip->FFA1R, filternbrbitpos);
 8001096:	4807      	ldr	r0, [pc, #28]	; (80010b4 <HAL_CAN_ConfigFilter+0x12c>)
 8001098:	f8d0 3214 	ldr.w	r3, [r0, #532]	; 0x214
 800109c:	4313      	orrs	r3, r2
 800109e:	f8c0 3214 	str.w	r3, [r0, #532]	; 0x214
 80010a2:	e7cc      	b.n	800103e <HAL_CAN_ConfigFilter+0xb6>
      SET_BIT(can_ip->FA1R, filternbrbitpos);
 80010a4:	4903      	ldr	r1, [pc, #12]	; (80010b4 <HAL_CAN_ConfigFilter+0x12c>)
 80010a6:	f8d1 321c 	ldr.w	r3, [r1, #540]	; 0x21c
 80010aa:	431a      	orrs	r2, r3
 80010ac:	f8c1 221c 	str.w	r2, [r1, #540]	; 0x21c
 80010b0:	e7c8      	b.n	8001044 <HAL_CAN_ConfigFilter+0xbc>
 80010b2:	bf00      	nop
 80010b4:	40006400 	.word	0x40006400

080010b8 <HAL_CAN_Start>:
  * @param  hcan pointer to an CAN_HandleTypeDef structure that contains
  *         the configuration information for the specified CAN.
  * @retval HAL status
  */
HAL_StatusTypeDef HAL_CAN_Start(CAN_HandleTypeDef *hcan)
{
 80010b8:	b570      	push	{r4, r5, r6, lr}
 80010ba:	4604      	mov	r4, r0
  uint32_t tickstart;

  if (hcan->State == HAL_CAN_STATE_READY)
 80010bc:	f890 5020 	ldrb.w	r5, [r0, #32]
 80010c0:	b2ed      	uxtb	r5, r5
 80010c2:	2d01      	cmp	r5, #1
 80010c4:	d006      	beq.n	80010d4 <HAL_CAN_Start+0x1c>
    return HAL_OK;
  }
  else
  {
    /* Update error code */
    hcan->ErrorCode |= HAL_CAN_ERROR_NOT_READY;
 80010c6:	6a43      	ldr	r3, [r0, #36]	; 0x24
 80010c8:	f443 2300 	orr.w	r3, r3, #524288	; 0x80000
 80010cc:	6243      	str	r3, [r0, #36]	; 0x24

    return HAL_ERROR;
 80010ce:	2501      	movs	r5, #1
  }
}
 80010d0:	4628      	mov	r0, r5
 80010d2:	bd70      	pop	{r4, r5, r6, pc}
    hcan->State = HAL_CAN_STATE_LISTENING;
 80010d4:	2302      	movs	r3, #2
 80010d6:	f880 3020 	strb.w	r3, [r0, #32]
    CLEAR_BIT(hcan->Instance->MCR, CAN_MCR_INRQ);
 80010da:	6802      	ldr	r2, [r0, #0]
 80010dc:	6813      	ldr	r3, [r2, #0]
 80010de:	f023 0301 	bic.w	r3, r3, #1
 80010e2:	6013      	str	r3, [r2, #0]
    tickstart = HAL_GetTick();
 80010e4:	f7ff fab2 	bl	800064c <HAL_GetTick>
 80010e8:	4606      	mov	r6, r0
    while ((hcan->Instance->MSR & CAN_MSR_INAK) != 0U)
 80010ea:	6823      	ldr	r3, [r4, #0]
 80010ec:	685b      	ldr	r3, [r3, #4]
 80010ee:	f013 0f01 	tst.w	r3, #1
 80010f2:	d00c      	beq.n	800110e <HAL_CAN_Start+0x56>
      if ((HAL_GetTick() - tickstart) > CAN_TIMEOUT_VALUE)
 80010f4:	f7ff faaa 	bl	800064c <HAL_GetTick>
 80010f8:	1b83      	subs	r3, r0, r6
 80010fa:	2b0a      	cmp	r3, #10
 80010fc:	d9f5      	bls.n	80010ea <HAL_CAN_Start+0x32>
        hcan->ErrorCode |= HAL_CAN_ERROR_TIMEOUT;
 80010fe:	6a63      	ldr	r3, [r4, #36]	; 0x24
 8001100:	f443 3300 	orr.w	r3, r3, #131072	; 0x20000
 8001104:	6263      	str	r3, [r4, #36]	; 0x24
        hcan->State = HAL_CAN_STATE_ERROR;
 8001106:	2305      	movs	r3, #5
 8001108:	f884 3020 	strb.w	r3, [r4, #32]
        return HAL_ERROR;
 800110c:	e7e0      	b.n	80010d0 <HAL_CAN_Start+0x18>
    hcan->ErrorCode = HAL_CAN_ERROR_NONE;
 800110e:	2500      	movs	r5, #0
 8001110:	6265      	str	r5, [r4, #36]	; 0x24
    return HAL_OK;
 8001112:	e7dd      	b.n	80010d0 <HAL_CAN_Start+0x18>

08001114 <HAL_CAN_AddTxMessage>:
  *         the TxMailbox used to store the Tx message.
  *         This parameter can be a value of @arg CAN_Tx_Mailboxes.
  * @retval HAL status
  */
HAL_StatusTypeDef HAL_CAN_AddTxMessage(CAN_HandleTypeDef *hcan, CAN_TxHeaderTypeDef *pHeader, uint8_t aData[], uint32_t *pTxMailbox)
{
 8001114:	b470      	push	{r4, r5, r6}
  uint32_t transmitmailbox;
  HAL_CAN_StateTypeDef state = hcan->State;
 8001116:	f890 4020 	ldrb.w	r4, [r0, #32]
  uint32_t tsr = READ_REG(hcan->Instance->TSR);
 800111a:	6805      	ldr	r5, [r0, #0]
 800111c:	68ad      	ldr	r5, [r5, #8]
  {
    assert_param(IS_CAN_EXTID(pHeader->ExtId));
  }
  assert_param(IS_FUNCTIONAL_STATE(pHeader->TransmitGlobalTime));

  if ((state == HAL_CAN_STATE_READY) ||
 800111e:	3c01      	subs	r4, #1
 8001120:	b2e4      	uxtb	r4, r4
 8001122:	2c01      	cmp	r4, #1
 8001124:	d865      	bhi.n	80011f2 <HAL_CAN_AddTxMessage+0xde>
      (state == HAL_CAN_STATE_LISTENING))
  {
    /* Check that all the Tx mailboxes are not full */
    if (((tsr & CAN_TSR_TME0) != 0U) ||
 8001126:	f015 5fe0 	tst.w	r5, #469762048	; 0x1c000000
 800112a:	d05c      	beq.n	80011e6 <HAL_CAN_AddTxMessage+0xd2>
        ((tsr & CAN_TSR_TME1) != 0U) ||
        ((tsr & CAN_TSR_TME2) != 0U))
    {
      /* Select an empty transmit mailbox */
      transmitmailbox = (tsr & CAN_TSR_CODE) >> CAN_TSR_CODE_Pos;
 800112c:	f3c5 6401 	ubfx	r4, r5, #24, #2

      /* Check transmit mailbox value */
      if (transmitmailbox > 2U)
 8001130:	2c02      	cmp	r4, #2
 8001132:	d905      	bls.n	8001140 <HAL_CAN_AddTxMessage+0x2c>
      {
        /* Update error code */
        hcan->ErrorCode |= HAL_CAN_ERROR_INTERNAL;
 8001134:	6a43      	ldr	r3, [r0, #36]	; 0x24
 8001136:	f443 0300 	orr.w	r3, r3, #8388608	; 0x800000
 800113a:	6243      	str	r3, [r0, #36]	; 0x24

        return HAL_ERROR;
 800113c:	2001      	movs	r0, #1
 800113e:	e05d      	b.n	80011fc <HAL_CAN_AddTxMessage+0xe8>
      }

      /* Store the Tx mailbox */
      *pTxMailbox = (uint32_t)1 << transmitmailbox;
 8001140:	2501      	movs	r5, #1
 8001142:	40a5      	lsls	r5, r4
 8001144:	601d      	str	r5, [r3, #0]

      /* Set up the Id */
      if (pHeader->IDE == CAN_ID_STD)
 8001146:	688b      	ldr	r3, [r1, #8]
 8001148:	2b00      	cmp	r3, #0
 800114a:	d139      	bne.n	80011c0 <HAL_CAN_AddTxMessage+0xac>
      {
        hcan->Instance->sTxMailBox[transmitmailbox].TIR = ((pHeader->StdId << CAN_TI0R_STID_Pos) |
 800114c:	680e      	ldr	r6, [r1, #0]
                                                           pHeader->RTR);
 800114e:	68cb      	ldr	r3, [r1, #12]
        hcan->Instance->sTxMailBox[transmitmailbox].TIR = ((pHeader->StdId << CAN_TI0R_STID_Pos) |
 8001150:	6805      	ldr	r5, [r0, #0]
 8001152:	ea43 5646 	orr.w	r6, r3, r6, lsl #21
 8001156:	f104 0318 	add.w	r3, r4, #24
 800115a:	011b      	lsls	r3, r3, #4
 800115c:	50ee      	str	r6, [r5, r3]
                                                           pHeader->IDE |
                                                           pHeader->RTR);
      }

      /* Set up the DLC */
      hcan->Instance->sTxMailBox[transmitmailbox].TDTR = (pHeader->DLC);
 800115e:	6803      	ldr	r3, [r0, #0]
 8001160:	690d      	ldr	r5, [r1, #16]
 8001162:	f104 0618 	add.w	r6, r4, #24
 8001166:	eb03 1306 	add.w	r3, r3, r6, lsl #4
 800116a:	605d      	str	r5, [r3, #4]

      /* Set up the Transmit Global Time mode */
      if (pHeader->TransmitGlobalTime == ENABLE)
 800116c:	7d0b      	ldrb	r3, [r1, #20]
 800116e:	2b01      	cmp	r3, #1
 8001170:	d031      	beq.n	80011d6 <HAL_CAN_AddTxMessage+0xc2>
      {
        SET_BIT(hcan->Instance->sTxMailBox[transmitmailbox].TDTR, CAN_TDT0R_TGT);
      }

      /* Set up the data field */
      WRITE_REG(hcan->Instance->sTxMailBox[transmitmailbox].TDHR,
 8001172:	79d1      	ldrb	r1, [r2, #7]
 8001174:	7993      	ldrb	r3, [r2, #6]
 8001176:	041b      	lsls	r3, r3, #16
 8001178:	ea43 6301 	orr.w	r3, r3, r1, lsl #24
 800117c:	7951      	ldrb	r1, [r2, #5]
 800117e:	ea43 2301 	orr.w	r3, r3, r1, lsl #8
 8001182:	7915      	ldrb	r5, [r2, #4]
 8001184:	6801      	ldr	r1, [r0, #0]
 8001186:	432b      	orrs	r3, r5
 8001188:	eb01 1104 	add.w	r1, r1, r4, lsl #4
 800118c:	f8c1 318c 	str.w	r3, [r1, #396]	; 0x18c
                ((uint32_t)aData[7] << CAN_TDH0R_DATA7_Pos) |
                ((uint32_t)aData[6] << CAN_TDH0R_DATA6_Pos) |
                ((uint32_t)aData[5] << CAN_TDH0R_DATA5_Pos) |
                ((uint32_t)aData[4] << CAN_TDH0R_DATA4_Pos));
      WRITE_REG(hcan->Instance->sTxMailBox[transmitmailbox].TDLR,
 8001190:	78d1      	ldrb	r1, [r2, #3]
 8001192:	7893      	ldrb	r3, [r2, #2]
 8001194:	041b      	lsls	r3, r3, #16
 8001196:	ea43 6301 	orr.w	r3, r3, r1, lsl #24
 800119a:	7851      	ldrb	r1, [r2, #1]
 800119c:	ea43 2301 	orr.w	r3, r3, r1, lsl #8
 80011a0:	7811      	ldrb	r1, [r2, #0]
 80011a2:	6802      	ldr	r2, [r0, #0]
 80011a4:	430b      	orrs	r3, r1
 80011a6:	eb02 1204 	add.w	r2, r2, r4, lsl #4
 80011aa:	f8c2 3188 	str.w	r3, [r2, #392]	; 0x188
                ((uint32_t)aData[2] << CAN_TDL0R_DATA2_Pos) |
                ((uint32_t)aData[1] << CAN_TDL0R_DATA1_Pos) |
                ((uint32_t)aData[0] << CAN_TDL0R_DATA0_Pos));

      /* Request transmission */
      SET_BIT(hcan->Instance->sTxMailBox[transmitmailbox].TIR, CAN_TI0R_TXRQ);
 80011ae:	6802      	ldr	r2, [r0, #0]
 80011b0:	3418      	adds	r4, #24
 80011b2:	0124      	lsls	r4, r4, #4
 80011b4:	5913      	ldr	r3, [r2, r4]
 80011b6:	f043 0301 	orr.w	r3, r3, #1
 80011ba:	5113      	str	r3, [r2, r4]

      /* Return function status */
      return HAL_OK;
 80011bc:	2000      	movs	r0, #0
 80011be:	e01d      	b.n	80011fc <HAL_CAN_AddTxMessage+0xe8>
        hcan->Instance->sTxMailBox[transmitmailbox].TIR = ((pHeader->ExtId << CAN_TI0R_EXID_Pos) |
 80011c0:	684d      	ldr	r5, [r1, #4]
 80011c2:	ea43 03c5 	orr.w	r3, r3, r5, lsl #3
                                                           pHeader->RTR);
 80011c6:	68cd      	ldr	r5, [r1, #12]
        hcan->Instance->sTxMailBox[transmitmailbox].TIR = ((pHeader->ExtId << CAN_TI0R_EXID_Pos) |
 80011c8:	6806      	ldr	r6, [r0, #0]
                                                           pHeader->IDE |
 80011ca:	432b      	orrs	r3, r5
        hcan->Instance->sTxMailBox[transmitmailbox].TIR = ((pHeader->ExtId << CAN_TI0R_EXID_Pos) |
 80011cc:	f104 0518 	add.w	r5, r4, #24
 80011d0:	012d      	lsls	r5, r5, #4
 80011d2:	5173      	str	r3, [r6, r5]
 80011d4:	e7c3      	b.n	800115e <HAL_CAN_AddTxMessage+0x4a>
        SET_BIT(hcan->Instance->sTxMailBox[transmitmailbox].TDTR, CAN_TDT0R_TGT);
 80011d6:	6803      	ldr	r3, [r0, #0]
 80011d8:	eb03 1306 	add.w	r3, r3, r6, lsl #4
 80011dc:	6859      	ldr	r1, [r3, #4]
 80011de:	f441 7180 	orr.w	r1, r1, #256	; 0x100
 80011e2:	6059      	str	r1, [r3, #4]
 80011e4:	e7c5      	b.n	8001172 <HAL_CAN_AddTxMessage+0x5e>
    }
    else
    {
      /* Update error code */
      hcan->ErrorCode |= HAL_CAN_ERROR_PARAM;
 80011e6:	6a43      	ldr	r3, [r0, #36]	; 0x24
 80011e8:	f443 1300 	orr.w	r3, r3, #2097152	; 0x200000
 80011ec:	6243      	str	r3, [r0, #36]	; 0x24

      return HAL_ERROR;
 80011ee:	2001      	movs	r0, #1
 80011f0:	e004      	b.n	80011fc <HAL_CAN_AddTxMessage+0xe8>
    }
  }
  else
  {
    /* Update error code */
    hcan->ErrorCode |= HAL_CAN_ERROR_NOT_INITIALIZED;
 80011f2:	6a43      	ldr	r3, [r0, #36]	; 0x24
 80011f4:	f443 2380 	orr.w	r3, r3, #262144	; 0x40000
 80011f8:	6243      	str	r3, [r0, #36]	; 0x24

    return HAL_ERROR;
 80011fa:	2001      	movs	r0, #1
  }
}
 80011fc:	bc70      	pop	{r4, r5, r6}
 80011fe:	4770      	bx	lr

08001200 <HAL_CAN_GetTxMailboxesFreeLevel>:
  * @retval Number of free Tx Mailboxes.
  */
uint32_t HAL_CAN_GetTxMailboxesFreeLevel(CAN_HandleTypeDef *hcan)
{
  uint32_t freelevel = 0U;
  HAL_CAN_StateTypeDef state = hcan->State;
 8001200:	f890 3020 	ldrb.w	r3, [r0, #32]

  if ((state == HAL_CAN_STATE_READY) ||
 8001204:	3b01      	subs	r3, #1
 8001206:	b2db      	uxtb	r3, r3
 8001208:	2b01      	cmp	r3, #1
 800120a:	d901      	bls.n	8001210 <HAL_CAN_GetTxMailboxesFreeLevel+0x10>
  uint32_t freelevel = 0U;
 800120c:	2000      	movs	r0, #0
    }
  }

  /* Return Tx Mailboxes free level */
  return freelevel;
}
 800120e:	4770      	bx	lr
    if ((hcan->Instance->TSR & CAN_TSR_TME0) != 0U)
 8001210:	6803      	ldr	r3, [r0, #0]
 8001212:	6898      	ldr	r0, [r3, #8]
 8001214:	f010 6080 	ands.w	r0, r0, #67108864	; 0x4000000
 8001218:	d000      	beq.n	800121c <HAL_CAN_GetTxMailboxesFreeLevel+0x1c>
      freelevel++;
 800121a:	2001      	movs	r0, #1
    if ((hcan->Instance->TSR & CAN_TSR_TME1) != 0U)
 800121c:	689a      	ldr	r2, [r3, #8]
 800121e:	f012 6f00 	tst.w	r2, #134217728	; 0x8000000
 8001222:	d000      	beq.n	8001226 <HAL_CAN_GetTxMailboxesFreeLevel+0x26>
      freelevel++;
 8001224:	3001      	adds	r0, #1
    if ((hcan->Instance->TSR & CAN_TSR_TME2) != 0U)
 8001226:	689b      	ldr	r3, [r3, #8]
 8001228:	f013 5f80 	tst.w	r3, #268435456	; 0x10000000
 800122c:	d0ef      	beq.n	800120e <HAL_CAN_GetTxMailboxesFreeLevel+0xe>
      freelevel++;
 800122e:	3001      	adds	r0, #1
 8001230:	4770      	bx	lr

08001232 <HAL_CAN_GetRxMessage>:
  *         of the Rx frame will be stored.
  * @param  aData array where the payload of the Rx frame will be stored.
  * @retval HAL status
  */
HAL_StatusTypeDef HAL_CAN_GetRxMessage(CAN_HandleTypeDef *hcan, uint32_t RxFifo, CAN_RxHeaderTypeDef *pHeader, uint8_t aData[])
{
 8001232:	b430      	push	{r4, r5}
  HAL_CAN_StateTypeDef state = hcan->State;
 8001234:	f890 4020 	ldrb.w	r4, [r0, #32]

  assert_param(IS_CAN_RX_FIFO(RxFifo));

  if ((state == HAL_CAN_STATE_READY) ||
 8001238:	3c01      	subs	r4, #1
 800123a:	b2e4      	uxtb	r4, r4
 800123c:	2c01      	cmp	r4, #1
 800123e:	f200 8091 	bhi.w	8001364 <HAL_CAN_GetRxMessage+0x132>
      (state == HAL_CAN_STATE_LISTENING))
  {
    /* Check the Rx FIFO */
    if (RxFifo == CAN_RX_FIFO0) /* Rx element is assigned to Rx FIFO 0 */
 8001242:	b951      	cbnz	r1, 800125a <HAL_CAN_GetRxMessage+0x28>
    {
      /* Check that the Rx FIFO 0 is not empty */
      if ((hcan->Instance->RF0R & CAN_RF0R_FMP0) == 0U)
 8001244:	6804      	ldr	r4, [r0, #0]
 8001246:	68e4      	ldr	r4, [r4, #12]
 8001248:	f014 0f03 	tst.w	r4, #3
 800124c:	d110      	bne.n	8001270 <HAL_CAN_GetRxMessage+0x3e>
      {
        /* Update error code */
        hcan->ErrorCode |= HAL_CAN_ERROR_PARAM;
 800124e:	6a43      	ldr	r3, [r0, #36]	; 0x24
 8001250:	f443 1300 	orr.w	r3, r3, #2097152	; 0x200000
 8001254:	6243      	str	r3, [r0, #36]	; 0x24

        return HAL_ERROR;
 8001256:	2001      	movs	r0, #1
 8001258:	e089      	b.n	800136e <HAL_CAN_GetRxMessage+0x13c>
      }
    }
    else /* Rx element is assigned to Rx FIFO 1 */
    {
      /* Check that the Rx FIFO 1 is not empty */
      if ((hcan->Instance->RF1R & CAN_RF1R_FMP1) == 0U)
 800125a:	6804      	ldr	r4, [r0, #0]
 800125c:	6924      	ldr	r4, [r4, #16]
 800125e:	f014 0f03 	tst.w	r4, #3
 8001262:	d105      	bne.n	8001270 <HAL_CAN_GetRxMessage+0x3e>
      {
        /* Update error code */
        hcan->ErrorCode |= HAL_CAN_ERROR_PARAM;
 8001264:	6a43      	ldr	r3, [r0, #36]	; 0x24
 8001266:	f443 1300 	orr.w	r3, r3, #2097152	; 0x200000
 800126a:	6243      	str	r3, [r0, #36]	; 0x24

        return HAL_ERROR;
 800126c:	2001      	movs	r0, #1
 800126e:	e07e      	b.n	800136e <HAL_CAN_GetRxMessage+0x13c>
      }
    }

    /* Get the header */
    pHeader->IDE = CAN_RI0R_IDE & hcan->Instance->sFIFOMailBox[RxFifo].RIR;
 8001270:	6805      	ldr	r5, [r0, #0]
 8001272:	f101 041b 	add.w	r4, r1, #27
 8001276:	0124      	lsls	r4, r4, #4
 8001278:	592c      	ldr	r4, [r5, r4]
 800127a:	f004 0404 	and.w	r4, r4, #4
 800127e:	6094      	str	r4, [r2, #8]
    if (pHeader->IDE == CAN_ID_STD)
 8001280:	2c00      	cmp	r4, #0
 8001282:	d161      	bne.n	8001348 <HAL_CAN_GetRxMessage+0x116>
    {
      pHeader->StdId = (CAN_RI0R_STID & hcan->Instance->sFIFOMailBox[RxFifo].RIR) >> CAN_TI0R_STID_Pos;
 8001284:	6805      	ldr	r5, [r0, #0]
 8001286:	f101 041b 	add.w	r4, r1, #27
 800128a:	0124      	lsls	r4, r4, #4
 800128c:	592c      	ldr	r4, [r5, r4]
 800128e:	0d64      	lsrs	r4, r4, #21
 8001290:	6014      	str	r4, [r2, #0]
    }
    else
    {
      pHeader->ExtId = ((CAN_RI0R_EXID | CAN_RI0R_STID) & hcan->Instance->sFIFOMailBox[RxFifo].RIR) >> CAN_RI0R_EXID_Pos;
    }
    pHeader->RTR = (CAN_RI0R_RTR & hcan->Instance->sFIFOMailBox[RxFifo].RIR);
 8001292:	6805      	ldr	r5, [r0, #0]
 8001294:	f101 041b 	add.w	r4, r1, #27
 8001298:	0124      	lsls	r4, r4, #4
 800129a:	592d      	ldr	r5, [r5, r4]
 800129c:	f005 0502 	and.w	r5, r5, #2
 80012a0:	60d5      	str	r5, [r2, #12]
    pHeader->DLC = (CAN_RDT0R_DLC & hcan->Instance->sFIFOMailBox[RxFifo].RDTR) >> CAN_RDT0R_DLC_Pos;
 80012a2:	6805      	ldr	r5, [r0, #0]
 80012a4:	4425      	add	r5, r4
 80012a6:	686d      	ldr	r5, [r5, #4]
 80012a8:	f005 050f 	and.w	r5, r5, #15
 80012ac:	6115      	str	r5, [r2, #16]
    pHeader->FilterMatchIndex = (CAN_RDT0R_FMI & hcan->Instance->sFIFOMailBox[RxFifo].RDTR) >> CAN_RDT0R_FMI_Pos;
 80012ae:	6805      	ldr	r5, [r0, #0]
 80012b0:	4425      	add	r5, r4
 80012b2:	686d      	ldr	r5, [r5, #4]
 80012b4:	f3c5 2507 	ubfx	r5, r5, #8, #8
 80012b8:	6195      	str	r5, [r2, #24]
    pHeader->Timestamp = (CAN_RDT0R_TIME & hcan->Instance->sFIFOMailBox[RxFifo].RDTR) >> CAN_RDT0R_TIME_Pos;
 80012ba:	6805      	ldr	r5, [r0, #0]
 80012bc:	442c      	add	r4, r5
 80012be:	6864      	ldr	r4, [r4, #4]
 80012c0:	0c24      	lsrs	r4, r4, #16
 80012c2:	6154      	str	r4, [r2, #20]

    /* Get the data */
    aData[0] = (uint8_t)((CAN_RDL0R_DATA0 & hcan->Instance->sFIFOMailBox[RxFifo].RDLR) >> CAN_RDL0R_DATA0_Pos);
 80012c4:	6802      	ldr	r2, [r0, #0]
 80012c6:	eb02 1201 	add.w	r2, r2, r1, lsl #4
 80012ca:	f8d2 21b8 	ldr.w	r2, [r2, #440]	; 0x1b8
 80012ce:	701a      	strb	r2, [r3, #0]
    aData[1] = (uint8_t)((CAN_RDL0R_DATA1 & hcan->Instance->sFIFOMailBox[RxFifo].RDLR) >> CAN_RDL0R_DATA1_Pos);
 80012d0:	6802      	ldr	r2, [r0, #0]
 80012d2:	eb02 1201 	add.w	r2, r2, r1, lsl #4
 80012d6:	f8d2 21b8 	ldr.w	r2, [r2, #440]	; 0x1b8
 80012da:	f3c2 2207 	ubfx	r2, r2, #8, #8
 80012de:	705a      	strb	r2, [r3, #1]
    aData[2] = (uint8_t)((CAN_RDL0R_DATA2 & hcan->Instance->sFIFOMailBox[RxFifo].RDLR) >> CAN_RDL0R_DATA2_Pos);
 80012e0:	6802      	ldr	r2, [r0, #0]
 80012e2:	eb02 1201 	add.w	r2, r2, r1, lsl #4
 80012e6:	f8d2 21b8 	ldr.w	r2, [r2, #440]	; 0x1b8
 80012ea:	f3c2 4207 	ubfx	r2, r2, #16, #8
 80012ee:	709a      	strb	r2, [r3, #2]
    aData[3] = (uint8_t)((CAN_RDL0R_DATA3 & hcan->Instance->sFIFOMailBox[RxFifo].RDLR) >> CAN_RDL0R_DATA3_Pos);
 80012f0:	6802      	ldr	r2, [r0, #0]
 80012f2:	eb02 1201 	add.w	r2, r2, r1, lsl #4
 80012f6:	f8d2 21b8 	ldr.w	r2, [r2, #440]	; 0x1b8
 80012fa:	0e12      	lsrs	r2, r2, #24
 80012fc:	70da      	strb	r2, [r3, #3]
    aData[4] = (uint8_t)((CAN_RDH0R_DATA4 & hcan->Instance->sFIFOMailBox[RxFifo].RDHR) >> CAN_RDH0R_DATA4_Pos);
 80012fe:	6802      	ldr	r2, [r0, #0]
 8001300:	eb02 1201 	add.w	r2, r2, r1, lsl #4
 8001304:	f8d2 21bc 	ldr.w	r2, [r2, #444]	; 0x1bc
 8001308:	711a      	strb	r2, [r3, #4]
    aData[5] = (uint8_t)((CAN_RDH0R_DATA5 & hcan->Instance->sFIFOMailBox[RxFifo].RDHR) >> CAN_RDH0R_DATA5_Pos);
 800130a:	6802      	ldr	r2, [r0, #0]
 800130c:	eb02 1201 	add.w	r2, r2, r1, lsl #4
 8001310:	f8d2 21bc 	ldr.w	r2, [r2, #444]	; 0x1bc
 8001314:	f3c2 2207 	ubfx	r2, r2, #8, #8
 8001318:	715a      	strb	r2, [r3, #5]
    aData[6] = (uint8_t)((CAN_RDH0R_DATA6 & hcan->Instance->sFIFOMailBox[RxFifo].RDHR) >> CAN_RDH0R_DATA6_Pos);
 800131a:	6802      	ldr	r2, [r0, #0]
 800131c:	eb02 1201 	add.w	r2, r2, r1, lsl #4
 8001320:	f8d2 21bc 	ldr.w	r2, [r2, #444]	; 0x1bc
 8001324:	f3c2 4207 	ubfx	r2, r2, #16, #8
 8001328:	719a      	strb	r2, [r3, #6]
    aData[7] = (uint8_t)((CAN_RDH0R_DATA7 & hcan->Instance->sFIFOMailBox[RxFifo].RDHR) >> CAN_RDH0R_DATA7_Pos);
 800132a:	6802      	ldr	r2, [r0, #0]
 800132c:	eb02 1201 	add.w	r2, r2, r1, lsl #4
 8001330:	f8d2 21bc 	ldr.w	r2, [r2, #444]	; 0x1bc
 8001334:	0e12      	lsrs	r2, r2, #24
 8001336:	71da      	strb	r2, [r3, #7]

    /* Release the FIFO */
    if (RxFifo == CAN_RX_FIFO0) /* Rx element is assigned to Rx FIFO 0 */
 8001338:	b971      	cbnz	r1, 8001358 <HAL_CAN_GetRxMessage+0x126>
    {
      /* Release RX FIFO 0 */
      SET_BIT(hcan->Instance->RF0R, CAN_RF0R_RFOM0);
 800133a:	6802      	ldr	r2, [r0, #0]
 800133c:	68d3      	ldr	r3, [r2, #12]
 800133e:	f043 0320 	orr.w	r3, r3, #32
 8001342:	60d3      	str	r3, [r2, #12]
      /* Release RX FIFO 1 */
      SET_BIT(hcan->Instance->RF1R, CAN_RF1R_RFOM1);
    }

    /* Return function status */
    return HAL_OK;
 8001344:	2000      	movs	r0, #0
 8001346:	e012      	b.n	800136e <HAL_CAN_GetRxMessage+0x13c>
      pHeader->ExtId = ((CAN_RI0R_EXID | CAN_RI0R_STID) & hcan->Instance->sFIFOMailBox[RxFifo].RIR) >> CAN_RI0R_EXID_Pos;
 8001348:	6805      	ldr	r5, [r0, #0]
 800134a:	f101 041b 	add.w	r4, r1, #27
 800134e:	0124      	lsls	r4, r4, #4
 8001350:	592c      	ldr	r4, [r5, r4]
 8001352:	08e4      	lsrs	r4, r4, #3
 8001354:	6054      	str	r4, [r2, #4]
 8001356:	e79c      	b.n	8001292 <HAL_CAN_GetRxMessage+0x60>
      SET_BIT(hcan->Instance->RF1R, CAN_RF1R_RFOM1);
 8001358:	6802      	ldr	r2, [r0, #0]
 800135a:	6913      	ldr	r3, [r2, #16]
 800135c:	f043 0320 	orr.w	r3, r3, #32
 8001360:	6113      	str	r3, [r2, #16]
 8001362:	e7ef      	b.n	8001344 <HAL_CAN_GetRxMessage+0x112>
  }
  else
  {
    /* Update error code */
    hcan->ErrorCode |= HAL_CAN_ERROR_NOT_INITIALIZED;
 8001364:	6a43      	ldr	r3, [r0, #36]	; 0x24
 8001366:	f443 2380 	orr.w	r3, r3, #262144	; 0x40000
 800136a:	6243      	str	r3, [r0, #36]	; 0x24

    return HAL_ERROR;
 800136c:	2001      	movs	r0, #1
  }
}
 800136e:	bc30      	pop	{r4, r5}
 8001370:	4770      	bx	lr

08001372 <HAL_CAN_ActivateNotification>:
  *         This parameter can be any combination of @arg CAN_Interrupts.
  * @retval HAL status
  */
HAL_StatusTypeDef HAL_CAN_ActivateNotification(CAN_HandleTypeDef *hcan, uint32_t ActiveITs)
{
  HAL_CAN_StateTypeDef state = hcan->State;
 8001372:	f890 3020 	ldrb.w	r3, [r0, #32]

  /* Check function parameters */
  assert_param(IS_CAN_IT(ActiveITs));

  if ((state == HAL_CAN_STATE_READY) ||
 8001376:	3b01      	subs	r3, #1
 8001378:	b2db      	uxtb	r3, r3
 800137a:	2b01      	cmp	r3, #1
 800137c:	d905      	bls.n	800138a <HAL_CAN_ActivateNotification+0x18>
    return HAL_OK;
  }
  else
  {
    /* Update error code */
    hcan->ErrorCode |= HAL_CAN_ERROR_NOT_INITIALIZED;
 800137e:	6a43      	ldr	r3, [r0, #36]	; 0x24
 8001380:	f443 2380 	orr.w	r3, r3, #262144	; 0x40000
 8001384:	6243      	str	r3, [r0, #36]	; 0x24

    return HAL_ERROR;
 8001386:	2001      	movs	r0, #1
  }
}
 8001388:	4770      	bx	lr
    __HAL_CAN_ENABLE_IT(hcan, ActiveITs);
 800138a:	6802      	ldr	r2, [r0, #0]
 800138c:	6953      	ldr	r3, [r2, #20]
 800138e:	4319      	orrs	r1, r3
 8001390:	6151      	str	r1, [r2, #20]
    return HAL_OK;
 8001392:	2000      	movs	r0, #0
 8001394:	4770      	bx	lr

08001396 <HAL_CAN_TxMailbox0CompleteCallback>:

  /* NOTE : This function Should not be modified, when the callback is needed,
            the HAL_CAN_TxMailbox0CompleteCallback could be implemented in the
            user file
   */
}
 8001396:	4770      	bx	lr

08001398 <HAL_CAN_TxMailbox1CompleteCallback>:

  /* NOTE : This function Should not be modified, when the callback is needed,
            the HAL_CAN_TxMailbox1CompleteCallback could be implemented in the
            user file
   */
}
 8001398:	4770      	bx	lr

0800139a <HAL_CAN_TxMailbox2CompleteCallback>:

  /* NOTE : This function Should not be modified, when the callback is needed,
            the HAL_CAN_TxMailbox2CompleteCallback could be implemented in the
            user file
   */
}
 800139a:	4770      	bx	lr

0800139c <HAL_CAN_TxMailbox0AbortCallback>:

  /* NOTE : This function Should not be modified, when the callback is needed,
            the HAL_CAN_TxMailbox0AbortCallback could be implemented in the
            user file
   */
}
 800139c:	4770      	bx	lr

0800139e <HAL_CAN_TxMailbox1AbortCallback>:

  /* NOTE : This function Should not be modified, when the callback is needed,
            the HAL_CAN_TxMailbox1AbortCallback could be implemented in the
            user file
   */
}
 800139e:	4770      	bx	lr

080013a0 <HAL_CAN_TxMailbox2AbortCallback>:

  /* NOTE : This function Should not be modified, when the callback is needed,
            the HAL_CAN_TxMailbox2AbortCallback could be implemented in the
            user file
   */
}
 80013a0:	4770      	bx	lr

080013a2 <HAL_CAN_RxFifo0FullCallback>:

  /* NOTE : This function Should not be modified, when the callback is needed,
            the HAL_CAN_RxFifo0FullCallback could be implemented in the user
            file
   */
}
 80013a2:	4770      	bx	lr

080013a4 <HAL_CAN_RxFifo1MsgPendingCallback>:

  /* NOTE : This function Should not be modified, when the callback is needed,
            the HAL_CAN_RxFifo1MsgPendingCallback could be implemented in the
            user file
   */
}
 80013a4:	4770      	bx	lr

080013a6 <HAL_CAN_RxFifo1FullCallback>:

  /* NOTE : This function Should not be modified, when the callback is needed,
            the HAL_CAN_RxFifo1FullCallback could be implemented in the user
            file
   */
}
 80013a6:	4770      	bx	lr

080013a8 <HAL_CAN_SleepCallback>:
  UNUSED(hcan);

  /* NOTE : This function Should not be modified, when the callback is needed,
            the HAL_CAN_SleepCallback could be implemented in the user file
   */
}
 80013a8:	4770      	bx	lr

080013aa <HAL_CAN_WakeUpFromRxMsgCallback>:

  /* NOTE : This function Should not be modified, when the callback is needed,
            the HAL_CAN_WakeUpFromRxMsgCallback could be implemented in the
            user file
   */
}
 80013aa:	4770      	bx	lr

080013ac <HAL_CAN_ErrorCallback>:
  UNUSED(hcan);

  /* NOTE : This function Should not be modified, when the callback is needed,
            the HAL_CAN_ErrorCallback could be implemented in the user file
   */
}
 80013ac:	4770      	bx	lr

080013ae <HAL_CAN_IRQHandler>:
{
 80013ae:	e92d 4ff8 	stmdb	sp!, {r3, r4, r5, r6, r7, r8, r9, sl, fp, lr}
 80013b2:	4605      	mov	r5, r0
  uint32_t interrupts = READ_REG(hcan->Instance->IER);
 80013b4:	6803      	ldr	r3, [r0, #0]
 80013b6:	695c      	ldr	r4, [r3, #20]
  uint32_t msrflags = READ_REG(hcan->Instance->MSR);
 80013b8:	f8d3 8004 	ldr.w	r8, [r3, #4]
  uint32_t tsrflags = READ_REG(hcan->Instance->TSR);
 80013bc:	689f      	ldr	r7, [r3, #8]
  uint32_t rf0rflags = READ_REG(hcan->Instance->RF0R);
 80013be:	f8d3 b00c 	ldr.w	fp, [r3, #12]
  uint32_t rf1rflags = READ_REG(hcan->Instance->RF1R);
 80013c2:	f8d3 a010 	ldr.w	sl, [r3, #16]
  uint32_t esrflags = READ_REG(hcan->Instance->ESR);
 80013c6:	f8d3 9018 	ldr.w	r9, [r3, #24]
  if ((interrupts & CAN_IT_TX_MAILBOX_EMPTY) != 0U)
 80013ca:	f014 0601 	ands.w	r6, r4, #1
 80013ce:	d03b      	beq.n	8001448 <HAL_CAN_IRQHandler+0x9a>
    if ((tsrflags & CAN_TSR_RQCP0) != 0U)
 80013d0:	f017 0601 	ands.w	r6, r7, #1
 80013d4:	d016      	beq.n	8001404 <HAL_CAN_IRQHandler+0x56>
      __HAL_CAN_CLEAR_FLAG(hcan, CAN_FLAG_RQCP0);
 80013d6:	2201      	movs	r2, #1
 80013d8:	609a      	str	r2, [r3, #8]
      if ((tsrflags & CAN_TSR_TXOK0) != 0U)
 80013da:	f017 0f02 	tst.w	r7, #2
 80013de:	d108      	bne.n	80013f2 <HAL_CAN_IRQHandler+0x44>
        if ((tsrflags & CAN_TSR_ALST0) != 0U)
 80013e0:	f017 0f04 	tst.w	r7, #4
 80013e4:	d10c      	bne.n	8001400 <HAL_CAN_IRQHandler+0x52>
        else if ((tsrflags & CAN_TSR_TERR0) != 0U)
 80013e6:	f017 0608 	ands.w	r6, r7, #8
 80013ea:	d006      	beq.n	80013fa <HAL_CAN_IRQHandler+0x4c>
          errorcode |= HAL_CAN_ERROR_TX_TERR0;
 80013ec:	f44f 5680 	mov.w	r6, #4096	; 0x1000
 80013f0:	e008      	b.n	8001404 <HAL_CAN_IRQHandler+0x56>
        HAL_CAN_TxMailbox0CompleteCallback(hcan);
 80013f2:	f7ff ffd0 	bl	8001396 <HAL_CAN_TxMailbox0CompleteCallback>
  uint32_t errorcode = HAL_CAN_ERROR_NONE;
 80013f6:	2600      	movs	r6, #0
 80013f8:	e004      	b.n	8001404 <HAL_CAN_IRQHandler+0x56>
          HAL_CAN_TxMailbox0AbortCallback(hcan);
 80013fa:	f7ff ffcf 	bl	800139c <HAL_CAN_TxMailbox0AbortCallback>
 80013fe:	e001      	b.n	8001404 <HAL_CAN_IRQHandler+0x56>
          errorcode |= HAL_CAN_ERROR_TX_ALST0;
 8001400:	f44f 6600 	mov.w	r6, #2048	; 0x800
    if ((tsrflags & CAN_TSR_RQCP1) != 0U)
 8001404:	f417 7f80 	tst.w	r7, #256	; 0x100
 8001408:	d00d      	beq.n	8001426 <HAL_CAN_IRQHandler+0x78>
      __HAL_CAN_CLEAR_FLAG(hcan, CAN_FLAG_RQCP1);
 800140a:	682b      	ldr	r3, [r5, #0]
 800140c:	f44f 7280 	mov.w	r2, #256	; 0x100
 8001410:	609a      	str	r2, [r3, #8]
      if ((tsrflags & CAN_TSR_TXOK1) != 0U)
 8001412:	f417 7f00 	tst.w	r7, #512	; 0x200
 8001416:	f040 8086 	bne.w	8001526 <HAL_CAN_IRQHandler+0x178>
        if ((tsrflags & CAN_TSR_ALST1) != 0U)
 800141a:	f417 6f80 	tst.w	r7, #1024	; 0x400
 800141e:	f000 8086 	beq.w	800152e <HAL_CAN_IRQHandler+0x180>
          errorcode |= HAL_CAN_ERROR_TX_ALST1;
 8001422:	f446 5600 	orr.w	r6, r6, #8192	; 0x2000
    if ((tsrflags & CAN_TSR_RQCP2) != 0U)
 8001426:	f417 3f80 	tst.w	r7, #65536	; 0x10000
 800142a:	d00d      	beq.n	8001448 <HAL_CAN_IRQHandler+0x9a>
      __HAL_CAN_CLEAR_FLAG(hcan, CAN_FLAG_RQCP2);
 800142c:	682b      	ldr	r3, [r5, #0]
 800142e:	f44f 3280 	mov.w	r2, #65536	; 0x10000
 8001432:	609a      	str	r2, [r3, #8]
      if ((tsrflags & CAN_TSR_TXOK2) != 0U)
 8001434:	f417 3f00 	tst.w	r7, #131072	; 0x20000
 8001438:	f040 8083 	bne.w	8001542 <HAL_CAN_IRQHandler+0x194>
        if ((tsrflags & CAN_TSR_ALST2) != 0U)
 800143c:	f417 2f80 	tst.w	r7, #262144	; 0x40000
 8001440:	f000 8083 	beq.w	800154a <HAL_CAN_IRQHandler+0x19c>
          errorcode |= HAL_CAN_ERROR_TX_ALST2;
 8001444:	f446 4600 	orr.w	r6, r6, #32768	; 0x8000
  if ((interrupts & CAN_IT_RX_FIFO0_OVERRUN) != 0U)
 8001448:	f014 0f08 	tst.w	r4, #8
 800144c:	d007      	beq.n	800145e <HAL_CAN_IRQHandler+0xb0>
    if ((rf0rflags & CAN_RF0R_FOVR0) != 0U)
 800144e:	f01b 0f10 	tst.w	fp, #16
 8001452:	d004      	beq.n	800145e <HAL_CAN_IRQHandler+0xb0>
      errorcode |= HAL_CAN_ERROR_RX_FOV0;
 8001454:	f446 7600 	orr.w	r6, r6, #512	; 0x200
      __HAL_CAN_CLEAR_FLAG(hcan, CAN_FLAG_FOV0);
 8001458:	682b      	ldr	r3, [r5, #0]
 800145a:	2210      	movs	r2, #16
 800145c:	60da      	str	r2, [r3, #12]
  if ((interrupts & CAN_IT_RX_FIFO0_FULL) != 0U)
 800145e:	f014 0f04 	tst.w	r4, #4
 8001462:	d002      	beq.n	800146a <HAL_CAN_IRQHandler+0xbc>
    if ((rf0rflags & CAN_RF0R_FULL0) != 0U)
 8001464:	f01b 0f08 	tst.w	fp, #8
 8001468:	d179      	bne.n	800155e <HAL_CAN_IRQHandler+0x1b0>
  if ((interrupts & CAN_IT_RX_FIFO0_MSG_PENDING) != 0U)
 800146a:	f014 0f02 	tst.w	r4, #2
 800146e:	d004      	beq.n	800147a <HAL_CAN_IRQHandler+0xcc>
    if ((hcan->Instance->RF0R & CAN_RF0R_FMP0) != 0U)
 8001470:	682b      	ldr	r3, [r5, #0]
 8001472:	68db      	ldr	r3, [r3, #12]
 8001474:	f013 0f03 	tst.w	r3, #3
 8001478:	d178      	bne.n	800156c <HAL_CAN_IRQHandler+0x1be>
  if ((interrupts & CAN_IT_RX_FIFO1_OVERRUN) != 0U)
 800147a:	f014 0f40 	tst.w	r4, #64	; 0x40
 800147e:	d007      	beq.n	8001490 <HAL_CAN_IRQHandler+0xe2>
    if ((rf1rflags & CAN_RF1R_FOVR1) != 0U)
 8001480:	f01a 0f10 	tst.w	sl, #16
 8001484:	d004      	beq.n	8001490 <HAL_CAN_IRQHandler+0xe2>
      errorcode |= HAL_CAN_ERROR_RX_FOV1;
 8001486:	f446 6680 	orr.w	r6, r6, #1024	; 0x400
      __HAL_CAN_CLEAR_FLAG(hcan, CAN_FLAG_FOV1);
 800148a:	682b      	ldr	r3, [r5, #0]
 800148c:	2210      	movs	r2, #16
 800148e:	611a      	str	r2, [r3, #16]
  if ((interrupts & CAN_IT_RX_FIFO1_FULL) != 0U)
 8001490:	f014 0f20 	tst.w	r4, #32
 8001494:	d002      	beq.n	800149c <HAL_CAN_IRQHandler+0xee>
    if ((rf1rflags & CAN_RF1R_FULL1) != 0U)
 8001496:	f01a 0f08 	tst.w	sl, #8
 800149a:	d16b      	bne.n	8001574 <HAL_CAN_IRQHandler+0x1c6>
  if ((interrupts & CAN_IT_RX_FIFO1_MSG_PENDING) != 0U)
 800149c:	f014 0f10 	tst.w	r4, #16
 80014a0:	d004      	beq.n	80014ac <HAL_CAN_IRQHandler+0xfe>
    if ((hcan->Instance->RF1R & CAN_RF1R_FMP1) != 0U)
 80014a2:	682b      	ldr	r3, [r5, #0]
 80014a4:	691b      	ldr	r3, [r3, #16]
 80014a6:	f013 0f03 	tst.w	r3, #3
 80014aa:	d16a      	bne.n	8001582 <HAL_CAN_IRQHandler+0x1d4>
  if ((interrupts & CAN_IT_SLEEP_ACK) != 0U)
 80014ac:	f414 3f00 	tst.w	r4, #131072	; 0x20000
 80014b0:	d002      	beq.n	80014b8 <HAL_CAN_IRQHandler+0x10a>
    if ((msrflags & CAN_MSR_SLAKI) != 0U)
 80014b2:	f018 0f10 	tst.w	r8, #16
 80014b6:	d168      	bne.n	800158a <HAL_CAN_IRQHandler+0x1dc>
  if ((interrupts & CAN_IT_WAKEUP) != 0U)
 80014b8:	f414 3f80 	tst.w	r4, #65536	; 0x10000
 80014bc:	d002      	beq.n	80014c4 <HAL_CAN_IRQHandler+0x116>
    if ((msrflags & CAN_MSR_WKUI) != 0U)
 80014be:	f018 0f08 	tst.w	r8, #8
 80014c2:	d169      	bne.n	8001598 <HAL_CAN_IRQHandler+0x1ea>
  if ((interrupts & CAN_IT_ERROR) != 0U)
 80014c4:	f414 4f00 	tst.w	r4, #32768	; 0x8000
 80014c8:	d07a      	beq.n	80015c0 <HAL_CAN_IRQHandler+0x212>
    if ((msrflags & CAN_MSR_ERRI) != 0U)
 80014ca:	f018 0f04 	tst.w	r8, #4
 80014ce:	d074      	beq.n	80015ba <HAL_CAN_IRQHandler+0x20c>
      if (((interrupts & CAN_IT_ERROR_WARNING) != 0U) &&
 80014d0:	f414 7f80 	tst.w	r4, #256	; 0x100
 80014d4:	d004      	beq.n	80014e0 <HAL_CAN_IRQHandler+0x132>
 80014d6:	f019 0f01 	tst.w	r9, #1
 80014da:	d001      	beq.n	80014e0 <HAL_CAN_IRQHandler+0x132>
        errorcode |= HAL_CAN_ERROR_EWG;
 80014dc:	f046 0601 	orr.w	r6, r6, #1
      if (((interrupts & CAN_IT_ERROR_PASSIVE) != 0U) &&
 80014e0:	f414 7f00 	tst.w	r4, #512	; 0x200
 80014e4:	d004      	beq.n	80014f0 <HAL_CAN_IRQHandler+0x142>
 80014e6:	f019 0f02 	tst.w	r9, #2
 80014ea:	d001      	beq.n	80014f0 <HAL_CAN_IRQHandler+0x142>
        errorcode |= HAL_CAN_ERROR_EPV;
 80014ec:	f046 0602 	orr.w	r6, r6, #2
      if (((interrupts & CAN_IT_BUSOFF) != 0U) &&
 80014f0:	f414 6f80 	tst.w	r4, #1024	; 0x400
 80014f4:	d004      	beq.n	8001500 <HAL_CAN_IRQHandler+0x152>
 80014f6:	f019 0f04 	tst.w	r9, #4
 80014fa:	d001      	beq.n	8001500 <HAL_CAN_IRQHandler+0x152>
        errorcode |= HAL_CAN_ERROR_BOF;
 80014fc:	f046 0604 	orr.w	r6, r6, #4
      if (((interrupts & CAN_IT_LAST_ERROR_CODE) != 0U) &&
 8001500:	f414 6f00 	tst.w	r4, #2048	; 0x800
 8001504:	d059      	beq.n	80015ba <HAL_CAN_IRQHandler+0x20c>
 8001506:	f019 0970 	ands.w	r9, r9, #112	; 0x70
 800150a:	d056      	beq.n	80015ba <HAL_CAN_IRQHandler+0x20c>
        switch (esrflags & CAN_ESR_LEC)
 800150c:	f1b9 0f40 	cmp.w	r9, #64	; 0x40
 8001510:	d065      	beq.n	80015de <HAL_CAN_IRQHandler+0x230>
 8001512:	d858      	bhi.n	80015c6 <HAL_CAN_IRQHandler+0x218>
 8001514:	f1b9 0f20 	cmp.w	r9, #32
 8001518:	d05e      	beq.n	80015d8 <HAL_CAN_IRQHandler+0x22a>
 800151a:	f1b9 0f30 	cmp.w	r9, #48	; 0x30
 800151e:	d142      	bne.n	80015a6 <HAL_CAN_IRQHandler+0x1f8>
            errorcode |= HAL_CAN_ERROR_ACK;
 8001520:	f046 0620 	orr.w	r6, r6, #32
            break;
 8001524:	e044      	b.n	80015b0 <HAL_CAN_IRQHandler+0x202>
        HAL_CAN_TxMailbox1CompleteCallback(hcan);
 8001526:	4628      	mov	r0, r5
 8001528:	f7ff ff36 	bl	8001398 <HAL_CAN_TxMailbox1CompleteCallback>
 800152c:	e77b      	b.n	8001426 <HAL_CAN_IRQHandler+0x78>
        else if ((tsrflags & CAN_TSR_TERR1) != 0U)
 800152e:	f417 6f00 	tst.w	r7, #2048	; 0x800
 8001532:	d002      	beq.n	800153a <HAL_CAN_IRQHandler+0x18c>
          errorcode |= HAL_CAN_ERROR_TX_TERR1;
 8001534:	f446 4680 	orr.w	r6, r6, #16384	; 0x4000
 8001538:	e775      	b.n	8001426 <HAL_CAN_IRQHandler+0x78>
          HAL_CAN_TxMailbox1AbortCallback(hcan);
 800153a:	4628      	mov	r0, r5
 800153c:	f7ff ff2f 	bl	800139e <HAL_CAN_TxMailbox1AbortCallback>
 8001540:	e771      	b.n	8001426 <HAL_CAN_IRQHandler+0x78>
        HAL_CAN_TxMailbox2CompleteCallback(hcan);
 8001542:	4628      	mov	r0, r5
 8001544:	f7ff ff29 	bl	800139a <HAL_CAN_TxMailbox2CompleteCallback>
 8001548:	e77e      	b.n	8001448 <HAL_CAN_IRQHandler+0x9a>
        else if ((tsrflags & CAN_TSR_TERR2) != 0U)
 800154a:	f417 2f00 	tst.w	r7, #524288	; 0x80000
 800154e:	d002      	beq.n	8001556 <HAL_CAN_IRQHandler+0x1a8>
          errorcode |= HAL_CAN_ERROR_TX_TERR2;
 8001550:	f446 3680 	orr.w	r6, r6, #65536	; 0x10000
 8001554:	e778      	b.n	8001448 <HAL_CAN_IRQHandler+0x9a>
          HAL_CAN_TxMailbox2AbortCallback(hcan);
 8001556:	4628      	mov	r0, r5
 8001558:	f7ff ff22 	bl	80013a0 <HAL_CAN_TxMailbox2AbortCallback>
 800155c:	e774      	b.n	8001448 <HAL_CAN_IRQHandler+0x9a>
      __HAL_CAN_CLEAR_FLAG(hcan, CAN_FLAG_FF0);
 800155e:	682b      	ldr	r3, [r5, #0]
 8001560:	2208      	movs	r2, #8
 8001562:	60da      	str	r2, [r3, #12]
      HAL_CAN_RxFifo0FullCallback(hcan);
 8001564:	4628      	mov	r0, r5
 8001566:	f7ff ff1c 	bl	80013a2 <HAL_CAN_RxFifo0FullCallback>
 800156a:	e77e      	b.n	800146a <HAL_CAN_IRQHandler+0xbc>
      HAL_CAN_RxFifo0MsgPendingCallback(hcan);
 800156c:	4628      	mov	r0, r5
 800156e:	f002 fb1f 	bl	8003bb0 <HAL_CAN_RxFifo0MsgPendingCallback>
 8001572:	e782      	b.n	800147a <HAL_CAN_IRQHandler+0xcc>
      __HAL_CAN_CLEAR_FLAG(hcan, CAN_FLAG_FF1);
 8001574:	682b      	ldr	r3, [r5, #0]
 8001576:	2208      	movs	r2, #8
 8001578:	611a      	str	r2, [r3, #16]
      HAL_CAN_RxFifo1FullCallback(hcan);
 800157a:	4628      	mov	r0, r5
 800157c:	f7ff ff13 	bl	80013a6 <HAL_CAN_RxFifo1FullCallback>
 8001580:	e78c      	b.n	800149c <HAL_CAN_IRQHandler+0xee>
      HAL_CAN_RxFifo1MsgPendingCallback(hcan);
 8001582:	4628      	mov	r0, r5
 8001584:	f7ff ff0e 	bl	80013a4 <HAL_CAN_RxFifo1MsgPendingCallback>
 8001588:	e790      	b.n	80014ac <HAL_CAN_IRQHandler+0xfe>
      __HAL_CAN_CLEAR_FLAG(hcan, CAN_FLAG_SLAKI);
 800158a:	682b      	ldr	r3, [r5, #0]
 800158c:	2210      	movs	r2, #16
 800158e:	605a      	str	r2, [r3, #4]
      HAL_CAN_SleepCallback(hcan);
 8001590:	4628      	mov	r0, r5
 8001592:	f7ff ff09 	bl	80013a8 <HAL_CAN_SleepCallback>
 8001596:	e78f      	b.n	80014b8 <HAL_CAN_IRQHandler+0x10a>
      __HAL_CAN_CLEAR_FLAG(hcan, CAN_FLAG_WKU);
 8001598:	682b      	ldr	r3, [r5, #0]
 800159a:	2208      	movs	r2, #8
 800159c:	605a      	str	r2, [r3, #4]
      HAL_CAN_WakeUpFromRxMsgCallback(hcan);
 800159e:	4628      	mov	r0, r5
 80015a0:	f7ff ff03 	bl	80013aa <HAL_CAN_WakeUpFromRxMsgCallback>
 80015a4:	e78e      	b.n	80014c4 <HAL_CAN_IRQHandler+0x116>
        switch (esrflags & CAN_ESR_LEC)
 80015a6:	f1b9 0f10 	cmp.w	r9, #16
 80015aa:	d101      	bne.n	80015b0 <HAL_CAN_IRQHandler+0x202>
            errorcode |= HAL_CAN_ERROR_STF;
 80015ac:	f046 0608 	orr.w	r6, r6, #8
        CLEAR_BIT(hcan->Instance->ESR, CAN_ESR_LEC);
 80015b0:	682a      	ldr	r2, [r5, #0]
 80015b2:	6993      	ldr	r3, [r2, #24]
 80015b4:	f023 0370 	bic.w	r3, r3, #112	; 0x70
 80015b8:	6193      	str	r3, [r2, #24]
    __HAL_CAN_CLEAR_FLAG(hcan, CAN_FLAG_ERRI);
 80015ba:	682b      	ldr	r3, [r5, #0]
 80015bc:	2204      	movs	r2, #4
 80015be:	605a      	str	r2, [r3, #4]
  if (errorcode != HAL_CAN_ERROR_NONE)
 80015c0:	b99e      	cbnz	r6, 80015ea <HAL_CAN_IRQHandler+0x23c>
}
 80015c2:	e8bd 8ff8 	ldmia.w	sp!, {r3, r4, r5, r6, r7, r8, r9, sl, fp, pc}
        switch (esrflags & CAN_ESR_LEC)
 80015c6:	f1b9 0f50 	cmp.w	r9, #80	; 0x50
 80015ca:	d00b      	beq.n	80015e4 <HAL_CAN_IRQHandler+0x236>
 80015cc:	f1b9 0f60 	cmp.w	r9, #96	; 0x60
 80015d0:	d1ee      	bne.n	80015b0 <HAL_CAN_IRQHandler+0x202>
            errorcode |= HAL_CAN_ERROR_CRC;
 80015d2:	f446 7680 	orr.w	r6, r6, #256	; 0x100
            break;
 80015d6:	e7eb      	b.n	80015b0 <HAL_CAN_IRQHandler+0x202>
            errorcode |= HAL_CAN_ERROR_FOR;
 80015d8:	f046 0610 	orr.w	r6, r6, #16
            break;
 80015dc:	e7e8      	b.n	80015b0 <HAL_CAN_IRQHandler+0x202>
            errorcode |= HAL_CAN_ERROR_BR;
 80015de:	f046 0640 	orr.w	r6, r6, #64	; 0x40
            break;
 80015e2:	e7e5      	b.n	80015b0 <HAL_CAN_IRQHandler+0x202>
            errorcode |= HAL_CAN_ERROR_BD;
 80015e4:	f046 0680 	orr.w	r6, r6, #128	; 0x80
            break;
 80015e8:	e7e2      	b.n	80015b0 <HAL_CAN_IRQHandler+0x202>
    hcan->ErrorCode |= errorcode;
 80015ea:	6a6b      	ldr	r3, [r5, #36]	; 0x24
 80015ec:	431e      	orrs	r6, r3
 80015ee:	626e      	str	r6, [r5, #36]	; 0x24
    HAL_CAN_ErrorCallback(hcan);
 80015f0:	4628      	mov	r0, r5
 80015f2:	f7ff fedb 	bl	80013ac <HAL_CAN_ErrorCallback>
}
 80015f6:	e7e4      	b.n	80015c2 <HAL_CAN_IRQHandler+0x214>

080015f8 <HAL_NVIC_SetPriorityGrouping>:
__STATIC_INLINE void __NVIC_SetPriorityGrouping(uint32_t PriorityGroup)
{
  uint32_t reg_value;
  uint32_t PriorityGroupTmp = (PriorityGroup & (uint32_t)0x07UL);             /* only values 0..7 are used          */

  reg_value  =  SCB->AIRCR;                                                   /* read old register configuration    */
 80015f8:	4a07      	ldr	r2, [pc, #28]	; (8001618 <HAL_NVIC_SetPriorityGrouping+0x20>)
 80015fa:	68d3      	ldr	r3, [r2, #12]
  reg_value &= ~((uint32_t)(SCB_AIRCR_VECTKEY_Msk | SCB_AIRCR_PRIGROUP_Msk)); /* clear bits to change               */
 80015fc:	f423 63e0 	bic.w	r3, r3, #1792	; 0x700
 8001600:	041b      	lsls	r3, r3, #16
 8001602:	0c1b      	lsrs	r3, r3, #16
  reg_value  =  (reg_value                                   |
                ((uint32_t)0x5FAUL << SCB_AIRCR_VECTKEY_Pos) |
                (PriorityGroupTmp << SCB_AIRCR_PRIGROUP_Pos)  );              /* Insert write key and priority group */
 8001604:	0200      	lsls	r0, r0, #8
 8001606:	f400 60e0 	and.w	r0, r0, #1792	; 0x700
                ((uint32_t)0x5FAUL << SCB_AIRCR_VECTKEY_Pos) |
 800160a:	4303      	orrs	r3, r0
  reg_value  =  (reg_value                                   |
 800160c:	f043 63bf 	orr.w	r3, r3, #100139008	; 0x5f80000
 8001610:	f443 3300 	orr.w	r3, r3, #131072	; 0x20000
  SCB->AIRCR =  reg_value;
 8001614:	60d3      	str	r3, [r2, #12]
  /* Check the parameters */
  assert_param(IS_NVIC_PRIORITY_GROUP(PriorityGroup));
  
  /* Set the PRIGROUP[10:8] bits according to the PriorityGroup parameter value */
  NVIC_SetPriorityGrouping(PriorityGroup);
}
 8001616:	4770      	bx	lr
 8001618:	e000ed00 	.word	0xe000ed00

0800161c <HAL_NVIC_SetPriority>:
  *         This parameter can be a value between 0 and 15
  *         A lower priority value indicates a higher priority.          
  * @retval None
  */
void HAL_NVIC_SetPriority(IRQn_Type IRQn, uint32_t PreemptPriority, uint32_t SubPriority)
{ 
 800161c:	b430      	push	{r4, r5}
  \details Reads the priority grouping field from the NVIC Interrupt Controller.
  \return                Priority grouping field (SCB->AIRCR [10:8] PRIGROUP field).
 */
__STATIC_INLINE uint32_t __NVIC_GetPriorityGrouping(void)
{
  return ((uint32_t)((SCB->AIRCR & SCB_AIRCR_PRIGROUP_Msk) >> SCB_AIRCR_PRIGROUP_Pos));
 800161e:	4b17      	ldr	r3, [pc, #92]	; (800167c <HAL_NVIC_SetPriority+0x60>)
 8001620:	68db      	ldr	r3, [r3, #12]
 8001622:	f3c3 2302 	ubfx	r3, r3, #8, #3
{
  uint32_t PriorityGroupTmp = (PriorityGroup & (uint32_t)0x07UL);   /* only values 0..7 are used          */
  uint32_t PreemptPriorityBits;
  uint32_t SubPriorityBits;

  PreemptPriorityBits = ((7UL - PriorityGroupTmp) > (uint32_t)(__NVIC_PRIO_BITS)) ? (uint32_t)(__NVIC_PRIO_BITS) : (uint32_t)(7UL - PriorityGroupTmp);
 8001626:	f1c3 0407 	rsb	r4, r3, #7
 800162a:	2c04      	cmp	r4, #4
 800162c:	bf28      	it	cs
 800162e:	2404      	movcs	r4, #4
  SubPriorityBits     = ((PriorityGroupTmp + (uint32_t)(__NVIC_PRIO_BITS)) < (uint32_t)7UL) ? (uint32_t)0UL : (uint32_t)((PriorityGroupTmp - 7UL) + (uint32_t)(__NVIC_PRIO_BITS));
 8001630:	1d1d      	adds	r5, r3, #4
 8001632:	2d06      	cmp	r5, #6
 8001634:	d918      	bls.n	8001668 <HAL_NVIC_SetPriority+0x4c>
 8001636:	3b03      	subs	r3, #3

  return (
           ((PreemptPriority & (uint32_t)((1UL << (PreemptPriorityBits)) - 1UL)) << SubPriorityBits) |
 8001638:	f04f 35ff 	mov.w	r5, #4294967295
 800163c:	fa05 f404 	lsl.w	r4, r5, r4
 8001640:	ea21 0104 	bic.w	r1, r1, r4
 8001644:	4099      	lsls	r1, r3
           ((SubPriority     & (uint32_t)((1UL << (SubPriorityBits    )) - 1UL)))
 8001646:	fa05 f303 	lsl.w	r3, r5, r3
 800164a:	ea22 0303 	bic.w	r3, r2, r3
           ((PreemptPriority & (uint32_t)((1UL << (PreemptPriorityBits)) - 1UL)) << SubPriorityBits) |
 800164e:	4319      	orrs	r1, r3
  if ((int32_t)(IRQn) >= 0)
 8001650:	2800      	cmp	r0, #0
 8001652:	db0b      	blt.n	800166c <HAL_NVIC_SetPriority+0x50>
    NVIC->IP[((uint32_t)IRQn)]               = (uint8_t)((priority << (8U - __NVIC_PRIO_BITS)) & (uint32_t)0xFFUL);
 8001654:	0109      	lsls	r1, r1, #4
 8001656:	b2c9      	uxtb	r1, r1
 8001658:	f100 4060 	add.w	r0, r0, #3758096384	; 0xe0000000
 800165c:	f500 4061 	add.w	r0, r0, #57600	; 0xe100
 8001660:	f880 1300 	strb.w	r1, [r0, #768]	; 0x300
  assert_param(IS_NVIC_PREEMPTION_PRIORITY(PreemptPriority));
  
  prioritygroup = NVIC_GetPriorityGrouping();
  
  NVIC_SetPriority(IRQn, NVIC_EncodePriority(prioritygroup, PreemptPriority, SubPriority));
}
 8001664:	bc30      	pop	{r4, r5}
 8001666:	4770      	bx	lr
  SubPriorityBits     = ((PriorityGroupTmp + (uint32_t)(__NVIC_PRIO_BITS)) < (uint32_t)7UL) ? (uint32_t)0UL : (uint32_t)((PriorityGroupTmp - 7UL) + (uint32_t)(__NVIC_PRIO_BITS));
 8001668:	2300      	movs	r3, #0
 800166a:	e7e5      	b.n	8001638 <HAL_NVIC_SetPriority+0x1c>
    SCB->SHP[(((uint32_t)IRQn) & 0xFUL)-4UL] = (uint8_t)((priority << (8U - __NVIC_PRIO_BITS)) & (uint32_t)0xFFUL);
 800166c:	f000 000f 	and.w	r0, r0, #15
 8001670:	0109      	lsls	r1, r1, #4
 8001672:	b2c9      	uxtb	r1, r1
 8001674:	4b02      	ldr	r3, [pc, #8]	; (8001680 <HAL_NVIC_SetPriority+0x64>)
 8001676:	5419      	strb	r1, [r3, r0]
 8001678:	e7f4      	b.n	8001664 <HAL_NVIC_SetPriority+0x48>
 800167a:	bf00      	nop
 800167c:	e000ed00 	.word	0xe000ed00
 8001680:	e000ed14 	.word	0xe000ed14

08001684 <HAL_NVIC_EnableIRQ>:
  if ((int32_t)(IRQn) >= 0)
 8001684:	2800      	cmp	r0, #0
 8001686:	db07      	blt.n	8001698 <HAL_NVIC_EnableIRQ+0x14>
    NVIC->ISER[(((uint32_t)IRQn) >> 5UL)] = (uint32_t)(1UL << (((uint32_t)IRQn) & 0x1FUL));
 8001688:	f000 021f 	and.w	r2, r0, #31
 800168c:	0940      	lsrs	r0, r0, #5
 800168e:	2301      	movs	r3, #1
 8001690:	4093      	lsls	r3, r2
 8001692:	4a02      	ldr	r2, [pc, #8]	; (800169c <HAL_NVIC_EnableIRQ+0x18>)
 8001694:	f842 3020 	str.w	r3, [r2, r0, lsl #2]
  /* Check the parameters */
  assert_param(IS_NVIC_DEVICE_IRQ(IRQn));
  
  /* Enable interrupt */
  NVIC_EnableIRQ(IRQn);
}
 8001698:	4770      	bx	lr
 800169a:	bf00      	nop
 800169c:	e000e100 	.word	0xe000e100

080016a0 <HAL_SYSTICK_Config>:
           function <b>SysTick_Config</b> is not included. In this case, the file <b><i>device</i>.h</b>
           must contain a vendor-specific implementation of this function.
 */
__STATIC_INLINE uint32_t SysTick_Config(uint32_t ticks)
{
  if ((ticks - 1UL) > SysTick_LOAD_RELOAD_Msk)
 80016a0:	3801      	subs	r0, #1
 80016a2:	f1b0 7f80 	cmp.w	r0, #16777216	; 0x1000000
 80016a6:	d20a      	bcs.n	80016be <HAL_SYSTICK_Config+0x1e>
  {
    return (1UL);                                                   /* Reload value impossible */
  }

  SysTick->LOAD  = (uint32_t)(ticks - 1UL);                         /* set reload register */
 80016a8:	4b06      	ldr	r3, [pc, #24]	; (80016c4 <HAL_SYSTICK_Config+0x24>)
 80016aa:	6058      	str	r0, [r3, #4]
    SCB->SHP[(((uint32_t)IRQn) & 0xFUL)-4UL] = (uint8_t)((priority << (8U - __NVIC_PRIO_BITS)) & (uint32_t)0xFFUL);
 80016ac:	4a06      	ldr	r2, [pc, #24]	; (80016c8 <HAL_SYSTICK_Config+0x28>)
 80016ae:	21f0      	movs	r1, #240	; 0xf0
 80016b0:	f882 1023 	strb.w	r1, [r2, #35]	; 0x23
  NVIC_SetPriority (SysTick_IRQn, (1UL << __NVIC_PRIO_BITS) - 1UL); /* set Priority for Systick Interrupt */
  SysTick->VAL   = 0UL;                                             /* Load the SysTick Counter Value */
 80016b4:	2000      	movs	r0, #0
 80016b6:	6098      	str	r0, [r3, #8]
  SysTick->CTRL  = SysTick_CTRL_CLKSOURCE_Msk |
 80016b8:	2207      	movs	r2, #7
 80016ba:	601a      	str	r2, [r3, #0]
                   SysTick_CTRL_TICKINT_Msk   |
                   SysTick_CTRL_ENABLE_Msk;                         /* Enable SysTick IRQ and SysTick Timer */
  return (0UL);                                                     /* Function successful */
 80016bc:	4770      	bx	lr
    return (1UL);                                                   /* Reload value impossible */
 80016be:	2001      	movs	r0, #1
  *                  - 1  Function failed.
  */
uint32_t HAL_SYSTICK_Config(uint32_t TicksNumb)
{
   return SysTick_Config(TicksNumb);
}
 80016c0:	4770      	bx	lr
 80016c2:	bf00      	nop
 80016c4:	e000e010 	.word	0xe000e010
 80016c8:	e000ed00 	.word	0xe000ed00

080016cc <HAL_SYSTICK_IRQHandler>:
/**
  * @brief  This function handles SYSTICK interrupt request.
  * @retval None
  */
void HAL_SYSTICK_IRQHandler(void)
{
 80016cc:	b508      	push	{r3, lr}
  HAL_SYSTICK_Callback();
 80016ce:	f002 fb03 	bl	8003cd8 <HAL_SYSTICK_Callback>
}
 80016d2:	bd08      	pop	{r3, pc}

080016d4 <HAL_DMA_Abort>:
  *        and the Stream will be effectively disabled only after the transfer of
  *        this single data is finished.  
  * @retval HAL status
  */
HAL_StatusTypeDef HAL_DMA_Abort(DMA_HandleTypeDef *hdma)
{
 80016d4:	b570      	push	{r4, r5, r6, lr}
 80016d6:	4604      	mov	r4, r0
  /* calculate DMA base and stream number */
  DMA_Base_Registers *regs = (DMA_Base_Registers *)hdma->StreamBaseAddress;
 80016d8:	6d86      	ldr	r6, [r0, #88]	; 0x58
  
  uint32_t tickstart = HAL_GetTick();
 80016da:	f7fe ffb7 	bl	800064c <HAL_GetTick>
  
  if(hdma->State != HAL_DMA_STATE_BUSY)
 80016de:	f894 3035 	ldrb.w	r3, [r4, #53]	; 0x35
 80016e2:	b2db      	uxtb	r3, r3
 80016e4:	2b02      	cmp	r3, #2
 80016e6:	d006      	beq.n	80016f6 <HAL_DMA_Abort+0x22>
  {
    hdma->ErrorCode = HAL_DMA_ERROR_NO_XFER;
 80016e8:	2380      	movs	r3, #128	; 0x80
 80016ea:	6563      	str	r3, [r4, #84]	; 0x54
    
    /* Process Unlocked */
    __HAL_UNLOCK(hdma);
 80016ec:	2300      	movs	r3, #0
 80016ee:	f884 3034 	strb.w	r3, [r4, #52]	; 0x34
    
    return HAL_ERROR;
 80016f2:	2001      	movs	r0, #1
    
    /* Process Unlocked */
    __HAL_UNLOCK(hdma);
  }
  return HAL_OK;
}
 80016f4:	bd70      	pop	{r4, r5, r6, pc}
 80016f6:	4605      	mov	r5, r0
    hdma->Instance->CR  &= ~(DMA_IT_TC | DMA_IT_TE | DMA_IT_DME);
 80016f8:	6822      	ldr	r2, [r4, #0]
 80016fa:	6813      	ldr	r3, [r2, #0]
 80016fc:	f023 0316 	bic.w	r3, r3, #22
 8001700:	6013      	str	r3, [r2, #0]
    hdma->Instance->FCR &= ~(DMA_IT_FE);
 8001702:	6822      	ldr	r2, [r4, #0]
 8001704:	6953      	ldr	r3, [r2, #20]
 8001706:	f023 0380 	bic.w	r3, r3, #128	; 0x80
 800170a:	6153      	str	r3, [r2, #20]
    if((hdma->XferHalfCpltCallback != NULL) || (hdma->XferM1HalfCpltCallback != NULL))
 800170c:	6c23      	ldr	r3, [r4, #64]	; 0x40
 800170e:	b1e3      	cbz	r3, 800174a <HAL_DMA_Abort+0x76>
      hdma->Instance->CR  &= ~(DMA_IT_HT);
 8001710:	6822      	ldr	r2, [r4, #0]
 8001712:	6813      	ldr	r3, [r2, #0]
 8001714:	f023 0308 	bic.w	r3, r3, #8
 8001718:	6013      	str	r3, [r2, #0]
    __HAL_DMA_DISABLE(hdma);
 800171a:	6822      	ldr	r2, [r4, #0]
 800171c:	6813      	ldr	r3, [r2, #0]
 800171e:	f023 0301 	bic.w	r3, r3, #1
 8001722:	6013      	str	r3, [r2, #0]
    while((hdma->Instance->CR & DMA_SxCR_EN) != RESET)
 8001724:	6823      	ldr	r3, [r4, #0]
 8001726:	681b      	ldr	r3, [r3, #0]
 8001728:	f013 0f01 	tst.w	r3, #1
 800172c:	d011      	beq.n	8001752 <HAL_DMA_Abort+0x7e>
      if((HAL_GetTick() - tickstart ) > HAL_TIMEOUT_DMA_ABORT)
 800172e:	f7fe ff8d 	bl	800064c <HAL_GetTick>
 8001732:	1b43      	subs	r3, r0, r5
 8001734:	2b05      	cmp	r3, #5
 8001736:	d9f5      	bls.n	8001724 <HAL_DMA_Abort+0x50>
        hdma->ErrorCode = HAL_DMA_ERROR_TIMEOUT;
 8001738:	2320      	movs	r3, #32
 800173a:	6563      	str	r3, [r4, #84]	; 0x54
        hdma->State = HAL_DMA_STATE_TIMEOUT;
 800173c:	2003      	movs	r0, #3
 800173e:	f884 0035 	strb.w	r0, [r4, #53]	; 0x35
        __HAL_UNLOCK(hdma);
 8001742:	2300      	movs	r3, #0
 8001744:	f884 3034 	strb.w	r3, [r4, #52]	; 0x34
        return HAL_TIMEOUT;
 8001748:	e7d4      	b.n	80016f4 <HAL_DMA_Abort+0x20>
    if((hdma->XferHalfCpltCallback != NULL) || (hdma->XferM1HalfCpltCallback != NULL))
 800174a:	6ca3      	ldr	r3, [r4, #72]	; 0x48
 800174c:	2b00      	cmp	r3, #0
 800174e:	d1df      	bne.n	8001710 <HAL_DMA_Abort+0x3c>
 8001750:	e7e3      	b.n	800171a <HAL_DMA_Abort+0x46>
    regs->IFCR = 0x3FU << hdma->StreamIndex;
 8001752:	6de2      	ldr	r2, [r4, #92]	; 0x5c
 8001754:	233f      	movs	r3, #63	; 0x3f
 8001756:	4093      	lsls	r3, r2
 8001758:	60b3      	str	r3, [r6, #8]
    hdma->State = HAL_DMA_STATE_READY;
 800175a:	2301      	movs	r3, #1
 800175c:	f884 3035 	strb.w	r3, [r4, #53]	; 0x35
    __HAL_UNLOCK(hdma);
 8001760:	2000      	movs	r0, #0
 8001762:	f884 0034 	strb.w	r0, [r4, #52]	; 0x34
  return HAL_OK;
 8001766:	e7c5      	b.n	80016f4 <HAL_DMA_Abort+0x20>

08001768 <HAL_DMA_Abort_IT>:
  *                 the configuration information for the specified DMA Stream.
  * @retval HAL status
  */
HAL_StatusTypeDef HAL_DMA_Abort_IT(DMA_HandleTypeDef *hdma)
{
  if(hdma->State != HAL_DMA_STATE_BUSY)
 8001768:	f890 3035 	ldrb.w	r3, [r0, #53]	; 0x35
 800176c:	b2db      	uxtb	r3, r3
 800176e:	2b02      	cmp	r3, #2
 8001770:	d003      	beq.n	800177a <HAL_DMA_Abort_IT+0x12>
  {
    hdma->ErrorCode = HAL_DMA_ERROR_NO_XFER;
 8001772:	2380      	movs	r3, #128	; 0x80
 8001774:	6543      	str	r3, [r0, #84]	; 0x54
    return HAL_ERROR;
 8001776:	2001      	movs	r0, #1
 8001778:	4770      	bx	lr
  }
  else
  {
    /* Set Abort State  */
    hdma->State = HAL_DMA_STATE_ABORT;
 800177a:	2305      	movs	r3, #5
 800177c:	f880 3035 	strb.w	r3, [r0, #53]	; 0x35
    
    /* Disable the stream */
    __HAL_DMA_DISABLE(hdma);
 8001780:	6802      	ldr	r2, [r0, #0]
 8001782:	6813      	ldr	r3, [r2, #0]
 8001784:	f023 0301 	bic.w	r3, r3, #1
 8001788:	6013      	str	r3, [r2, #0]
  }

  return HAL_OK;
 800178a:	2000      	movs	r0, #0
}
 800178c:	4770      	bx	lr
	...

08001790 <HAL_GPIO_Init>:
  assert_param(IS_GPIO_ALL_INSTANCE(GPIOx));
  assert_param(IS_GPIO_PIN(GPIO_Init->Pin));
  assert_param(IS_GPIO_MODE(GPIO_Init->Mode));

  /* Configure the port pins */
  for(position = 0U; position < GPIO_NUMBER; position++)
 8001790:	2300      	movs	r3, #0
 8001792:	2b0f      	cmp	r3, #15
 8001794:	f200 80d7 	bhi.w	8001946 <HAL_GPIO_Init+0x1b6>
{
 8001798:	b4f0      	push	{r4, r5, r6, r7}
 800179a:	b082      	sub	sp, #8
 800179c:	e05d      	b.n	800185a <HAL_GPIO_Init+0xca>
          (GPIO_Init->Mode & GPIO_MODE) == MODE_AF)
      {
        /* Check the Speed parameter */
        assert_param(IS_GPIO_SPEED(GPIO_Init->Speed));
        /* Configure the IO Speed */
        temp = GPIOx->OSPEEDR; 
 800179e:	6886      	ldr	r6, [r0, #8]
        temp &= ~(GPIO_OSPEEDER_OSPEEDR0 << (position * 2U));
 80017a0:	005f      	lsls	r7, r3, #1
 80017a2:	2403      	movs	r4, #3
 80017a4:	40bc      	lsls	r4, r7
 80017a6:	ea26 0604 	bic.w	r6, r6, r4
        temp |= (GPIO_Init->Speed << (position * 2U));
 80017aa:	68cc      	ldr	r4, [r1, #12]
 80017ac:	40bc      	lsls	r4, r7
 80017ae:	4334      	orrs	r4, r6
        GPIOx->OSPEEDR = temp;
 80017b0:	6084      	str	r4, [r0, #8]

        /* Configure the IO Output Type */
        temp = GPIOx->OTYPER;
 80017b2:	6846      	ldr	r6, [r0, #4]
        temp &= ~(GPIO_OTYPER_OT_0 << position) ;
 80017b4:	ea26 0602 	bic.w	r6, r6, r2
        temp |= (((GPIO_Init->Mode & OUTPUT_TYPE) >> OUTPUT_TYPE_Pos) << position);
 80017b8:	684c      	ldr	r4, [r1, #4]
 80017ba:	f3c4 1200 	ubfx	r2, r4, #4, #1
 80017be:	409a      	lsls	r2, r3
 80017c0:	4332      	orrs	r2, r6
        GPIOx->OTYPER = temp;
 80017c2:	6042      	str	r2, [r0, #4]
 80017c4:	e057      	b.n	8001876 <HAL_GPIO_Init+0xe6>
      if((GPIO_Init->Mode & GPIO_MODE) == MODE_AF)
      {
        /* Check the Alternate function parameter */
        assert_param(IS_GPIO_AF(GPIO_Init->Alternate));
        /* Configure Alternate function mapped with the current IO */
        temp = GPIOx->AFR[position >> 3U];
 80017c6:	08dc      	lsrs	r4, r3, #3
 80017c8:	3408      	adds	r4, #8
 80017ca:	f850 7024 	ldr.w	r7, [r0, r4, lsl #2]
        temp &= ~(0xFU << ((uint32_t)(position & 0x07U) * 4U)) ;
 80017ce:	f003 0207 	and.w	r2, r3, #7
 80017d2:	0096      	lsls	r6, r2, #2
 80017d4:	220f      	movs	r2, #15
 80017d6:	40b2      	lsls	r2, r6
 80017d8:	ea27 0702 	bic.w	r7, r7, r2
        temp |= ((uint32_t)(GPIO_Init->Alternate) << (((uint32_t)position & 0x07U) * 4U));
 80017dc:	690a      	ldr	r2, [r1, #16]
 80017de:	40b2      	lsls	r2, r6
 80017e0:	433a      	orrs	r2, r7
        GPIOx->AFR[position >> 3U] = temp;
 80017e2:	f840 2024 	str.w	r2, [r0, r4, lsl #2]
 80017e6:	e05a      	b.n	800189e <HAL_GPIO_Init+0x10e>
        /* Enable SYSCFG Clock */
        __HAL_RCC_SYSCFG_CLK_ENABLE();

        temp = SYSCFG->EXTICR[position >> 2U];
        temp &= ~(0x0FU << (4U * (position & 0x03U)));
        temp |= ((uint32_t)(GPIO_GET_INDEX(GPIOx)) << (4U * (position & 0x03U)));
 80017e8:	2206      	movs	r2, #6
 80017ea:	e000      	b.n	80017ee <HAL_GPIO_Init+0x5e>
 80017ec:	2200      	movs	r2, #0
 80017ee:	40b2      	lsls	r2, r6
 80017f0:	433a      	orrs	r2, r7
        SYSCFG->EXTICR[position >> 2U] = temp;
 80017f2:	3402      	adds	r4, #2
 80017f4:	4e54      	ldr	r6, [pc, #336]	; (8001948 <HAL_GPIO_Init+0x1b8>)
 80017f6:	f846 2024 	str.w	r2, [r6, r4, lsl #2]

        /* Clear EXTI line configuration */
        temp = EXTI->IMR;
 80017fa:	4a54      	ldr	r2, [pc, #336]	; (800194c <HAL_GPIO_Init+0x1bc>)
 80017fc:	6814      	ldr	r4, [r2, #0]
        temp &= ~((uint32_t)iocurrent);
 80017fe:	43ea      	mvns	r2, r5
 8001800:	ea24 0605 	bic.w	r6, r4, r5
        if((GPIO_Init->Mode & EXTI_IT) != 0x00U)
 8001804:	684f      	ldr	r7, [r1, #4]
 8001806:	f417 3f80 	tst.w	r7, #65536	; 0x10000
 800180a:	d001      	beq.n	8001810 <HAL_GPIO_Init+0x80>
        {
          temp |= iocurrent;
 800180c:	ea45 0604 	orr.w	r6, r5, r4
        }
        EXTI->IMR = temp;
 8001810:	4c4e      	ldr	r4, [pc, #312]	; (800194c <HAL_GPIO_Init+0x1bc>)
 8001812:	6026      	str	r6, [r4, #0]

        temp = EXTI->EMR;
 8001814:	6864      	ldr	r4, [r4, #4]
        temp &= ~((uint32_t)iocurrent);
 8001816:	ea02 0604 	and.w	r6, r2, r4
        if((GPIO_Init->Mode & EXTI_EVT) != 0x00U)
 800181a:	684f      	ldr	r7, [r1, #4]
 800181c:	f417 3f00 	tst.w	r7, #131072	; 0x20000
 8001820:	d001      	beq.n	8001826 <HAL_GPIO_Init+0x96>
        {
          temp |= iocurrent;
 8001822:	ea45 0604 	orr.w	r6, r5, r4
        }
        EXTI->EMR = temp;
 8001826:	4c49      	ldr	r4, [pc, #292]	; (800194c <HAL_GPIO_Init+0x1bc>)
 8001828:	6066      	str	r6, [r4, #4]

        /* Clear Rising Falling edge configuration */
        temp = EXTI->RTSR;
 800182a:	68a4      	ldr	r4, [r4, #8]
        temp &= ~((uint32_t)iocurrent);
 800182c:	ea02 0604 	and.w	r6, r2, r4
        if((GPIO_Init->Mode & TRIGGER_RISING) != 0x00U)
 8001830:	684f      	ldr	r7, [r1, #4]
 8001832:	f417 1f80 	tst.w	r7, #1048576	; 0x100000
 8001836:	d001      	beq.n	800183c <HAL_GPIO_Init+0xac>
        {
          temp |= iocurrent;
 8001838:	ea45 0604 	orr.w	r6, r5, r4
        }
        EXTI->RTSR = temp;
 800183c:	4c43      	ldr	r4, [pc, #268]	; (800194c <HAL_GPIO_Init+0x1bc>)
 800183e:	60a6      	str	r6, [r4, #8]

        temp = EXTI->FTSR;
 8001840:	68e4      	ldr	r4, [r4, #12]
        temp &= ~((uint32_t)iocurrent);
 8001842:	4022      	ands	r2, r4
        if((GPIO_Init->Mode & TRIGGER_FALLING) != 0x00U)
 8001844:	684e      	ldr	r6, [r1, #4]
 8001846:	f416 1f00 	tst.w	r6, #2097152	; 0x200000
 800184a:	d001      	beq.n	8001850 <HAL_GPIO_Init+0xc0>
        {
          temp |= iocurrent;
 800184c:	ea45 0204 	orr.w	r2, r5, r4
        }
        EXTI->FTSR = temp;
 8001850:	4c3e      	ldr	r4, [pc, #248]	; (800194c <HAL_GPIO_Init+0x1bc>)
 8001852:	60e2      	str	r2, [r4, #12]
  for(position = 0U; position < GPIO_NUMBER; position++)
 8001854:	3301      	adds	r3, #1
 8001856:	2b0f      	cmp	r3, #15
 8001858:	d872      	bhi.n	8001940 <HAL_GPIO_Init+0x1b0>
    ioposition = 0x01U << position;
 800185a:	2201      	movs	r2, #1
 800185c:	409a      	lsls	r2, r3
    iocurrent = (uint32_t)(GPIO_Init->Pin) & ioposition;
 800185e:	680c      	ldr	r4, [r1, #0]
 8001860:	ea04 0502 	and.w	r5, r4, r2
    if(iocurrent == ioposition)
 8001864:	ea32 0404 	bics.w	r4, r2, r4
 8001868:	d1f4      	bne.n	8001854 <HAL_GPIO_Init+0xc4>
      if(((GPIO_Init->Mode & GPIO_MODE) == MODE_OUTPUT) || \
 800186a:	684c      	ldr	r4, [r1, #4]
 800186c:	f004 0403 	and.w	r4, r4, #3
 8001870:	3c01      	subs	r4, #1
 8001872:	2c01      	cmp	r4, #1
 8001874:	d993      	bls.n	800179e <HAL_GPIO_Init+0xe>
      if((GPIO_Init->Mode & GPIO_MODE) != MODE_ANALOG)
 8001876:	684a      	ldr	r2, [r1, #4]
 8001878:	f002 0203 	and.w	r2, r2, #3
 800187c:	2a03      	cmp	r2, #3
 800187e:	d009      	beq.n	8001894 <HAL_GPIO_Init+0x104>
        temp = GPIOx->PUPDR;
 8001880:	68c4      	ldr	r4, [r0, #12]
        temp &= ~(GPIO_PUPDR_PUPDR0 << (position * 2U));
 8001882:	005e      	lsls	r6, r3, #1
 8001884:	2203      	movs	r2, #3
 8001886:	40b2      	lsls	r2, r6
 8001888:	ea24 0402 	bic.w	r4, r4, r2
        temp |= ((GPIO_Init->Pull) << (position * 2U));
 800188c:	688a      	ldr	r2, [r1, #8]
 800188e:	40b2      	lsls	r2, r6
 8001890:	4322      	orrs	r2, r4
        GPIOx->PUPDR = temp;
 8001892:	60c2      	str	r2, [r0, #12]
      if((GPIO_Init->Mode & GPIO_MODE) == MODE_AF)
 8001894:	684a      	ldr	r2, [r1, #4]
 8001896:	f002 0203 	and.w	r2, r2, #3
 800189a:	2a02      	cmp	r2, #2
 800189c:	d093      	beq.n	80017c6 <HAL_GPIO_Init+0x36>
      temp = GPIOx->MODER;
 800189e:	6804      	ldr	r4, [r0, #0]
      temp &= ~(GPIO_MODER_MODER0 << (position * 2U));
 80018a0:	005e      	lsls	r6, r3, #1
 80018a2:	2203      	movs	r2, #3
 80018a4:	40b2      	lsls	r2, r6
 80018a6:	ea24 0402 	bic.w	r4, r4, r2
      temp |= ((GPIO_Init->Mode & GPIO_MODE) << (position * 2U));
 80018aa:	684a      	ldr	r2, [r1, #4]
 80018ac:	f002 0203 	and.w	r2, r2, #3
 80018b0:	40b2      	lsls	r2, r6
 80018b2:	4322      	orrs	r2, r4
      GPIOx->MODER = temp;
 80018b4:	6002      	str	r2, [r0, #0]
      if((GPIO_Init->Mode & EXTI_MODE) != 0x00U)
 80018b6:	684a      	ldr	r2, [r1, #4]
 80018b8:	f412 3f40 	tst.w	r2, #196608	; 0x30000
 80018bc:	d0ca      	beq.n	8001854 <HAL_GPIO_Init+0xc4>
        __HAL_RCC_SYSCFG_CLK_ENABLE();
 80018be:	2200      	movs	r2, #0
 80018c0:	9201      	str	r2, [sp, #4]
 80018c2:	4a23      	ldr	r2, [pc, #140]	; (8001950 <HAL_GPIO_Init+0x1c0>)
 80018c4:	6c54      	ldr	r4, [r2, #68]	; 0x44
 80018c6:	f444 4480 	orr.w	r4, r4, #16384	; 0x4000
 80018ca:	6454      	str	r4, [r2, #68]	; 0x44
 80018cc:	6c52      	ldr	r2, [r2, #68]	; 0x44
 80018ce:	f402 4280 	and.w	r2, r2, #16384	; 0x4000
 80018d2:	9201      	str	r2, [sp, #4]
 80018d4:	9a01      	ldr	r2, [sp, #4]
        temp = SYSCFG->EXTICR[position >> 2U];
 80018d6:	089c      	lsrs	r4, r3, #2
 80018d8:	1ca6      	adds	r6, r4, #2
 80018da:	4a1b      	ldr	r2, [pc, #108]	; (8001948 <HAL_GPIO_Init+0x1b8>)
 80018dc:	f852 7026 	ldr.w	r7, [r2, r6, lsl #2]
        temp &= ~(0x0FU << (4U * (position & 0x03U)));
 80018e0:	f003 0203 	and.w	r2, r3, #3
 80018e4:	0096      	lsls	r6, r2, #2
 80018e6:	220f      	movs	r2, #15
 80018e8:	40b2      	lsls	r2, r6
 80018ea:	ea27 0702 	bic.w	r7, r7, r2
        temp |= ((uint32_t)(GPIO_GET_INDEX(GPIOx)) << (4U * (position & 0x03U)));
 80018ee:	4a19      	ldr	r2, [pc, #100]	; (8001954 <HAL_GPIO_Init+0x1c4>)
 80018f0:	4290      	cmp	r0, r2
 80018f2:	f43f af7b 	beq.w	80017ec <HAL_GPIO_Init+0x5c>
 80018f6:	f502 6280 	add.w	r2, r2, #1024	; 0x400
 80018fa:	4290      	cmp	r0, r2
 80018fc:	d016      	beq.n	800192c <HAL_GPIO_Init+0x19c>
 80018fe:	f502 6280 	add.w	r2, r2, #1024	; 0x400
 8001902:	4290      	cmp	r0, r2
 8001904:	d014      	beq.n	8001930 <HAL_GPIO_Init+0x1a0>
 8001906:	f502 6280 	add.w	r2, r2, #1024	; 0x400
 800190a:	4290      	cmp	r0, r2
 800190c:	d012      	beq.n	8001934 <HAL_GPIO_Init+0x1a4>
 800190e:	f502 6280 	add.w	r2, r2, #1024	; 0x400
 8001912:	4290      	cmp	r0, r2
 8001914:	d010      	beq.n	8001938 <HAL_GPIO_Init+0x1a8>
 8001916:	f502 6280 	add.w	r2, r2, #1024	; 0x400
 800191a:	4290      	cmp	r0, r2
 800191c:	d00e      	beq.n	800193c <HAL_GPIO_Init+0x1ac>
 800191e:	f502 6280 	add.w	r2, r2, #1024	; 0x400
 8001922:	4290      	cmp	r0, r2
 8001924:	f43f af60 	beq.w	80017e8 <HAL_GPIO_Init+0x58>
 8001928:	2207      	movs	r2, #7
 800192a:	e760      	b.n	80017ee <HAL_GPIO_Init+0x5e>
 800192c:	2201      	movs	r2, #1
 800192e:	e75e      	b.n	80017ee <HAL_GPIO_Init+0x5e>
 8001930:	2202      	movs	r2, #2
 8001932:	e75c      	b.n	80017ee <HAL_GPIO_Init+0x5e>
 8001934:	2203      	movs	r2, #3
 8001936:	e75a      	b.n	80017ee <HAL_GPIO_Init+0x5e>
 8001938:	2204      	movs	r2, #4
 800193a:	e758      	b.n	80017ee <HAL_GPIO_Init+0x5e>
 800193c:	2205      	movs	r2, #5
 800193e:	e756      	b.n	80017ee <HAL_GPIO_Init+0x5e>
      }
    }
  }
}
 8001940:	b002      	add	sp, #8
 8001942:	bcf0      	pop	{r4, r5, r6, r7}
 8001944:	4770      	bx	lr
 8001946:	4770      	bx	lr
 8001948:	40013800 	.word	0x40013800
 800194c:	40013c00 	.word	0x40013c00
 8001950:	40023800 	.word	0x40023800
 8001954:	40020000 	.word	0x40020000

08001958 <HAL_GPIO_ReadPin>:
  GPIO_PinState bitstatus;

  /* Check the parameters */
  assert_param(IS_GPIO_PIN(GPIO_Pin));

  if((GPIOx->IDR & GPIO_Pin) != (uint32_t)GPIO_PIN_RESET)
 8001958:	6903      	ldr	r3, [r0, #16]
 800195a:	4219      	tst	r1, r3
 800195c:	d001      	beq.n	8001962 <HAL_GPIO_ReadPin+0xa>
  {
    bitstatus = GPIO_PIN_SET;
 800195e:	2001      	movs	r0, #1
 8001960:	4770      	bx	lr
  }
  else
  {
    bitstatus = GPIO_PIN_RESET;
 8001962:	2000      	movs	r0, #0
  }
  return bitstatus;
}
 8001964:	4770      	bx	lr

08001966 <HAL_GPIO_WritePin>:
{
  /* Check the parameters */
  assert_param(IS_GPIO_PIN(GPIO_Pin));
  assert_param(IS_GPIO_PIN_ACTION(PinState));

  if(PinState != GPIO_PIN_RESET)
 8001966:	b10a      	cbz	r2, 800196c <HAL_GPIO_WritePin+0x6>
  {
    GPIOx->BSRR = GPIO_Pin;
 8001968:	6181      	str	r1, [r0, #24]
 800196a:	4770      	bx	lr
  }
  else
  {
    GPIOx->BSRR = (uint32_t)GPIO_Pin << 16U;
 800196c:	0409      	lsls	r1, r1, #16
 800196e:	6181      	str	r1, [r0, #24]
  }
}
 8001970:	4770      	bx	lr
	...

08001974 <HAL_GPIO_EXTI_IRQHandler>:
  * @brief  This function handles EXTI interrupt request.
  * @param  GPIO_Pin Specifies the pins connected EXTI line
  * @retval None
  */
void HAL_GPIO_EXTI_IRQHandler(uint16_t GPIO_Pin)
{
 8001974:	b508      	push	{r3, lr}
  /* EXTI line interrupt detected */
  if(__HAL_GPIO_EXTI_GET_IT(GPIO_Pin) != RESET)
 8001976:	4b05      	ldr	r3, [pc, #20]	; (800198c <HAL_GPIO_EXTI_IRQHandler+0x18>)
 8001978:	695b      	ldr	r3, [r3, #20]
 800197a:	4203      	tst	r3, r0
 800197c:	d100      	bne.n	8001980 <HAL_GPIO_EXTI_IRQHandler+0xc>
  {
    __HAL_GPIO_EXTI_CLEAR_IT(GPIO_Pin);
    HAL_GPIO_EXTI_Callback(GPIO_Pin);
  }
}
 800197e:	bd08      	pop	{r3, pc}
    __HAL_GPIO_EXTI_CLEAR_IT(GPIO_Pin);
 8001980:	4b02      	ldr	r3, [pc, #8]	; (800198c <HAL_GPIO_EXTI_IRQHandler+0x18>)
 8001982:	6158      	str	r0, [r3, #20]
    HAL_GPIO_EXTI_Callback(GPIO_Pin);
 8001984:	f001 fcda 	bl	800333c <HAL_GPIO_EXTI_Callback>
}
 8001988:	e7f9      	b.n	800197e <HAL_GPIO_EXTI_IRQHandler+0xa>
 800198a:	bf00      	nop
 800198c:	40013c00 	.word	0x40013c00

08001990 <HAL_PWREx_EnableOverDrive>:
  *         During the Over-drive switch activation, no peripheral clocks should be enabled.   
  *         The peripheral clocks must be enabled once the Over-drive mode is activated.   
  * @retval HAL status
  */
HAL_StatusTypeDef HAL_PWREx_EnableOverDrive(void)
{
 8001990:	b510      	push	{r4, lr}
 8001992:	b082      	sub	sp, #8
  uint32_t tickstart = 0U;

  __HAL_RCC_PWR_CLK_ENABLE();
 8001994:	2300      	movs	r3, #0
 8001996:	9301      	str	r3, [sp, #4]
 8001998:	4b19      	ldr	r3, [pc, #100]	; (8001a00 <HAL_PWREx_EnableOverDrive+0x70>)
 800199a:	6c1a      	ldr	r2, [r3, #64]	; 0x40
 800199c:	f042 5280 	orr.w	r2, r2, #268435456	; 0x10000000
 80019a0:	641a      	str	r2, [r3, #64]	; 0x40
 80019a2:	6c1b      	ldr	r3, [r3, #64]	; 0x40
 80019a4:	f003 5380 	and.w	r3, r3, #268435456	; 0x10000000
 80019a8:	9301      	str	r3, [sp, #4]
 80019aa:	9b01      	ldr	r3, [sp, #4]
  
  /* Enable the Over-drive to extend the clock frequency to 180 Mhz */
  __HAL_PWR_OVERDRIVE_ENABLE();
 80019ac:	4b15      	ldr	r3, [pc, #84]	; (8001a04 <HAL_PWREx_EnableOverDrive+0x74>)
 80019ae:	2201      	movs	r2, #1
 80019b0:	601a      	str	r2, [r3, #0]

  /* Get tick */
  tickstart = HAL_GetTick();
 80019b2:	f7fe fe4b 	bl	800064c <HAL_GetTick>
 80019b6:	4604      	mov	r4, r0

  while(!__HAL_PWR_GET_FLAG(PWR_FLAG_ODRDY))
 80019b8:	4b13      	ldr	r3, [pc, #76]	; (8001a08 <HAL_PWREx_EnableOverDrive+0x78>)
 80019ba:	685b      	ldr	r3, [r3, #4]
 80019bc:	f413 3f80 	tst.w	r3, #65536	; 0x10000
 80019c0:	d108      	bne.n	80019d4 <HAL_PWREx_EnableOverDrive+0x44>
  {
    if((HAL_GetTick() - tickstart) > PWR_OVERDRIVE_TIMEOUT_VALUE)
 80019c2:	f7fe fe43 	bl	800064c <HAL_GetTick>
 80019c6:	1b00      	subs	r0, r0, r4
 80019c8:	f5b0 7f7a 	cmp.w	r0, #1000	; 0x3e8
 80019cc:	d9f4      	bls.n	80019b8 <HAL_PWREx_EnableOverDrive+0x28>
    {
      return HAL_TIMEOUT;
 80019ce:	2003      	movs	r0, #3
    {
      return HAL_TIMEOUT;
    }
  } 
  return HAL_OK;
}
 80019d0:	b002      	add	sp, #8
 80019d2:	bd10      	pop	{r4, pc}
  __HAL_PWR_OVERDRIVESWITCHING_ENABLE();
 80019d4:	4b0d      	ldr	r3, [pc, #52]	; (8001a0c <HAL_PWREx_EnableOverDrive+0x7c>)
 80019d6:	2201      	movs	r2, #1
 80019d8:	601a      	str	r2, [r3, #0]
  tickstart = HAL_GetTick();
 80019da:	f7fe fe37 	bl	800064c <HAL_GetTick>
 80019de:	4604      	mov	r4, r0
  while(!__HAL_PWR_GET_FLAG(PWR_FLAG_ODSWRDY))
 80019e0:	4b09      	ldr	r3, [pc, #36]	; (8001a08 <HAL_PWREx_EnableOverDrive+0x78>)
 80019e2:	685b      	ldr	r3, [r3, #4]
 80019e4:	f413 3f00 	tst.w	r3, #131072	; 0x20000
 80019e8:	d107      	bne.n	80019fa <HAL_PWREx_EnableOverDrive+0x6a>
    if((HAL_GetTick() - tickstart ) > PWR_OVERDRIVE_TIMEOUT_VALUE)
 80019ea:	f7fe fe2f 	bl	800064c <HAL_GetTick>
 80019ee:	1b00      	subs	r0, r0, r4
 80019f0:	f5b0 7f7a 	cmp.w	r0, #1000	; 0x3e8
 80019f4:	d9f4      	bls.n	80019e0 <HAL_PWREx_EnableOverDrive+0x50>
      return HAL_TIMEOUT;
 80019f6:	2003      	movs	r0, #3
 80019f8:	e7ea      	b.n	80019d0 <HAL_PWREx_EnableOverDrive+0x40>
  return HAL_OK;
 80019fa:	2000      	movs	r0, #0
 80019fc:	e7e8      	b.n	80019d0 <HAL_PWREx_EnableOverDrive+0x40>
 80019fe:	bf00      	nop
 8001a00:	40023800 	.word	0x40023800
 8001a04:	420e0040 	.word	0x420e0040
 8001a08:	40007000 	.word	0x40007000
 8001a0c:	420e0044 	.word	0x420e0044

08001a10 <HAL_RCC_ClockConfig>:
HAL_StatusTypeDef HAL_RCC_ClockConfig(RCC_ClkInitTypeDef  *RCC_ClkInitStruct, uint32_t FLatency)
{
  uint32_t tickstart;

  /* Check Null pointer */
  if(RCC_ClkInitStruct == NULL)
 8001a10:	2800      	cmp	r0, #0
 8001a12:	f000 809b 	beq.w	8001b4c <HAL_RCC_ClockConfig+0x13c>
{
 8001a16:	b570      	push	{r4, r5, r6, lr}
 8001a18:	460d      	mov	r5, r1
 8001a1a:	4604      	mov	r4, r0
  /* To correctly read data from FLASH memory, the number of wait states (LATENCY)
    must be correctly programmed according to the frequency of the CPU clock
    (HCLK) and the supply voltage of the device. */

  /* Increasing the number of wait states because of higher CPU frequency */
  if(FLatency > __HAL_FLASH_GET_LATENCY())
 8001a1c:	4b4f      	ldr	r3, [pc, #316]	; (8001b5c <HAL_RCC_ClockConfig+0x14c>)
 8001a1e:	681b      	ldr	r3, [r3, #0]
 8001a20:	f003 030f 	and.w	r3, r3, #15
 8001a24:	428b      	cmp	r3, r1
 8001a26:	d208      	bcs.n	8001a3a <HAL_RCC_ClockConfig+0x2a>
  {
    /* Program the new number of wait states to the LATENCY bits in the FLASH_ACR register */
    __HAL_FLASH_SET_LATENCY(FLatency);
 8001a28:	b2cb      	uxtb	r3, r1
 8001a2a:	4a4c      	ldr	r2, [pc, #304]	; (8001b5c <HAL_RCC_ClockConfig+0x14c>)
 8001a2c:	7013      	strb	r3, [r2, #0]

    /* Check that the new number of wait states is taken into account to access the Flash
    memory by reading the FLASH_ACR register */
    if(__HAL_FLASH_GET_LATENCY() != FLatency)
 8001a2e:	6813      	ldr	r3, [r2, #0]
 8001a30:	f003 030f 	and.w	r3, r3, #15
 8001a34:	428b      	cmp	r3, r1
 8001a36:	f040 808b 	bne.w	8001b50 <HAL_RCC_ClockConfig+0x140>
      return HAL_ERROR;
    }
  }

  /*-------------------------- HCLK Configuration --------------------------*/
  if(((RCC_ClkInitStruct->ClockType) & RCC_CLOCKTYPE_HCLK) == RCC_CLOCKTYPE_HCLK)
 8001a3a:	6823      	ldr	r3, [r4, #0]
 8001a3c:	f013 0f02 	tst.w	r3, #2
 8001a40:	d017      	beq.n	8001a72 <HAL_RCC_ClockConfig+0x62>
  {
    /* Set the highest APBx dividers in order to ensure that we do not go through
       a non-spec phase whatever we decrease or increase HCLK. */
    if(((RCC_ClkInitStruct->ClockType) & RCC_CLOCKTYPE_PCLK1) == RCC_CLOCKTYPE_PCLK1)
 8001a42:	f013 0f04 	tst.w	r3, #4
 8001a46:	d004      	beq.n	8001a52 <HAL_RCC_ClockConfig+0x42>
    {
      MODIFY_REG(RCC->CFGR, RCC_CFGR_PPRE1, RCC_HCLK_DIV16);
 8001a48:	4a45      	ldr	r2, [pc, #276]	; (8001b60 <HAL_RCC_ClockConfig+0x150>)
 8001a4a:	6893      	ldr	r3, [r2, #8]
 8001a4c:	f443 53e0 	orr.w	r3, r3, #7168	; 0x1c00
 8001a50:	6093      	str	r3, [r2, #8]
    }

    if(((RCC_ClkInitStruct->ClockType) & RCC_CLOCKTYPE_PCLK2) == RCC_CLOCKTYPE_PCLK2)
 8001a52:	6823      	ldr	r3, [r4, #0]
 8001a54:	f013 0f08 	tst.w	r3, #8
 8001a58:	d004      	beq.n	8001a64 <HAL_RCC_ClockConfig+0x54>
    {
      MODIFY_REG(RCC->CFGR, RCC_CFGR_PPRE2, (RCC_HCLK_DIV16 << 3));
 8001a5a:	4a41      	ldr	r2, [pc, #260]	; (8001b60 <HAL_RCC_ClockConfig+0x150>)
 8001a5c:	6893      	ldr	r3, [r2, #8]
 8001a5e:	f443 4360 	orr.w	r3, r3, #57344	; 0xe000
 8001a62:	6093      	str	r3, [r2, #8]
    }

    assert_param(IS_RCC_HCLK(RCC_ClkInitStruct->AHBCLKDivider));
    MODIFY_REG(RCC->CFGR, RCC_CFGR_HPRE, RCC_ClkInitStruct->AHBCLKDivider);
 8001a64:	4a3e      	ldr	r2, [pc, #248]	; (8001b60 <HAL_RCC_ClockConfig+0x150>)
 8001a66:	6893      	ldr	r3, [r2, #8]
 8001a68:	f023 03f0 	bic.w	r3, r3, #240	; 0xf0
 8001a6c:	68a1      	ldr	r1, [r4, #8]
 8001a6e:	430b      	orrs	r3, r1
 8001a70:	6093      	str	r3, [r2, #8]
  }

  /*------------------------- SYSCLK Configuration ---------------------------*/
  if(((RCC_ClkInitStruct->ClockType) & RCC_CLOCKTYPE_SYSCLK) == RCC_CLOCKTYPE_SYSCLK)
 8001a72:	6823      	ldr	r3, [r4, #0]
 8001a74:	f013 0f01 	tst.w	r3, #1
 8001a78:	d032      	beq.n	8001ae0 <HAL_RCC_ClockConfig+0xd0>
  {
    assert_param(IS_RCC_SYSCLKSOURCE(RCC_ClkInitStruct->SYSCLKSource));

    /* HSE is selected as System Clock Source */
    if(RCC_ClkInitStruct->SYSCLKSource == RCC_SYSCLKSOURCE_HSE)
 8001a7a:	6863      	ldr	r3, [r4, #4]
 8001a7c:	2b01      	cmp	r3, #1
 8001a7e:	d021      	beq.n	8001ac4 <HAL_RCC_ClockConfig+0xb4>
      {
        return HAL_ERROR;
      }
    }
    /* PLL is selected as System Clock Source */
    else if((RCC_ClkInitStruct->SYSCLKSource == RCC_SYSCLKSOURCE_PLLCLK)   ||
 8001a80:	1e9a      	subs	r2, r3, #2
 8001a82:	2a01      	cmp	r2, #1
 8001a84:	d925      	bls.n	8001ad2 <HAL_RCC_ClockConfig+0xc2>
    }
    /* HSI is selected as System Clock Source */
    else
    {
      /* Check the HSI ready flag */
      if(__HAL_RCC_GET_FLAG(RCC_FLAG_HSIRDY) == RESET)
 8001a86:	4a36      	ldr	r2, [pc, #216]	; (8001b60 <HAL_RCC_ClockConfig+0x150>)
 8001a88:	6812      	ldr	r2, [r2, #0]
 8001a8a:	f012 0f02 	tst.w	r2, #2
 8001a8e:	d061      	beq.n	8001b54 <HAL_RCC_ClockConfig+0x144>
      {
        return HAL_ERROR;
      }
    }

    __HAL_RCC_SYSCLK_CONFIG(RCC_ClkInitStruct->SYSCLKSource);
 8001a90:	4933      	ldr	r1, [pc, #204]	; (8001b60 <HAL_RCC_ClockConfig+0x150>)
 8001a92:	688a      	ldr	r2, [r1, #8]
 8001a94:	f022 0203 	bic.w	r2, r2, #3
 8001a98:	4313      	orrs	r3, r2
 8001a9a:	608b      	str	r3, [r1, #8]

    /* Get Start Tick */
    tickstart = HAL_GetTick();
 8001a9c:	f7fe fdd6 	bl	800064c <HAL_GetTick>
 8001aa0:	4606      	mov	r6, r0

    while (__HAL_RCC_GET_SYSCLK_SOURCE() != (RCC_ClkInitStruct->SYSCLKSource << RCC_CFGR_SWS_Pos))
 8001aa2:	4b2f      	ldr	r3, [pc, #188]	; (8001b60 <HAL_RCC_ClockConfig+0x150>)
 8001aa4:	689b      	ldr	r3, [r3, #8]
 8001aa6:	f003 030c 	and.w	r3, r3, #12
 8001aaa:	6862      	ldr	r2, [r4, #4]
 8001aac:	ebb3 0f82 	cmp.w	r3, r2, lsl #2
 8001ab0:	d016      	beq.n	8001ae0 <HAL_RCC_ClockConfig+0xd0>
    {
      if ((HAL_GetTick() - tickstart) > CLOCKSWITCH_TIMEOUT_VALUE)
 8001ab2:	f7fe fdcb 	bl	800064c <HAL_GetTick>
 8001ab6:	1b80      	subs	r0, r0, r6
 8001ab8:	f241 3388 	movw	r3, #5000	; 0x1388
 8001abc:	4298      	cmp	r0, r3
 8001abe:	d9f0      	bls.n	8001aa2 <HAL_RCC_ClockConfig+0x92>
      {
        return HAL_TIMEOUT;
 8001ac0:	2003      	movs	r0, #3
 8001ac2:	e042      	b.n	8001b4a <HAL_RCC_ClockConfig+0x13a>
      if(__HAL_RCC_GET_FLAG(RCC_FLAG_HSERDY) == RESET)
 8001ac4:	4a26      	ldr	r2, [pc, #152]	; (8001b60 <HAL_RCC_ClockConfig+0x150>)
 8001ac6:	6812      	ldr	r2, [r2, #0]
 8001ac8:	f412 3f00 	tst.w	r2, #131072	; 0x20000
 8001acc:	d1e0      	bne.n	8001a90 <HAL_RCC_ClockConfig+0x80>
        return HAL_ERROR;
 8001ace:	2001      	movs	r0, #1
 8001ad0:	e03b      	b.n	8001b4a <HAL_RCC_ClockConfig+0x13a>
      if(__HAL_RCC_GET_FLAG(RCC_FLAG_PLLRDY) == RESET)
 8001ad2:	4a23      	ldr	r2, [pc, #140]	; (8001b60 <HAL_RCC_ClockConfig+0x150>)
 8001ad4:	6812      	ldr	r2, [r2, #0]
 8001ad6:	f012 7f00 	tst.w	r2, #33554432	; 0x2000000
 8001ada:	d1d9      	bne.n	8001a90 <HAL_RCC_ClockConfig+0x80>
        return HAL_ERROR;
 8001adc:	2001      	movs	r0, #1
 8001ade:	e034      	b.n	8001b4a <HAL_RCC_ClockConfig+0x13a>
      }
    }
  }

  /* Decreasing the number of wait states because of lower CPU frequency */
  if(FLatency < __HAL_FLASH_GET_LATENCY())
 8001ae0:	4b1e      	ldr	r3, [pc, #120]	; (8001b5c <HAL_RCC_ClockConfig+0x14c>)
 8001ae2:	681b      	ldr	r3, [r3, #0]
 8001ae4:	f003 030f 	and.w	r3, r3, #15
 8001ae8:	42ab      	cmp	r3, r5
 8001aea:	d907      	bls.n	8001afc <HAL_RCC_ClockConfig+0xec>
  {
     /* Program the new number of wait states to the LATENCY bits in the FLASH_ACR register */
    __HAL_FLASH_SET_LATENCY(FLatency);
 8001aec:	b2ea      	uxtb	r2, r5
 8001aee:	4b1b      	ldr	r3, [pc, #108]	; (8001b5c <HAL_RCC_ClockConfig+0x14c>)
 8001af0:	701a      	strb	r2, [r3, #0]

    /* Check that the new number of wait states is taken into account to access the Flash
    memory by reading the FLASH_ACR register */
    if(__HAL_FLASH_GET_LATENCY() != FLatency)
 8001af2:	681b      	ldr	r3, [r3, #0]
 8001af4:	f003 030f 	and.w	r3, r3, #15
 8001af8:	42ab      	cmp	r3, r5
 8001afa:	d12d      	bne.n	8001b58 <HAL_RCC_ClockConfig+0x148>
      return HAL_ERROR;
    }
  }

  /*-------------------------- PCLK1 Configuration ---------------------------*/
  if(((RCC_ClkInitStruct->ClockType) & RCC_CLOCKTYPE_PCLK1) == RCC_CLOCKTYPE_PCLK1)
 8001afc:	6823      	ldr	r3, [r4, #0]
 8001afe:	f013 0f04 	tst.w	r3, #4
 8001b02:	d006      	beq.n	8001b12 <HAL_RCC_ClockConfig+0x102>
  {
    assert_param(IS_RCC_PCLK(RCC_ClkInitStruct->APB1CLKDivider));
    MODIFY_REG(RCC->CFGR, RCC_CFGR_PPRE1, RCC_ClkInitStruct->APB1CLKDivider);
 8001b04:	4a16      	ldr	r2, [pc, #88]	; (8001b60 <HAL_RCC_ClockConfig+0x150>)
 8001b06:	6893      	ldr	r3, [r2, #8]
 8001b08:	f423 53e0 	bic.w	r3, r3, #7168	; 0x1c00
 8001b0c:	68e1      	ldr	r1, [r4, #12]
 8001b0e:	430b      	orrs	r3, r1
 8001b10:	6093      	str	r3, [r2, #8]
  }

  /*-------------------------- PCLK2 Configuration ---------------------------*/
  if(((RCC_ClkInitStruct->ClockType) & RCC_CLOCKTYPE_PCLK2) == RCC_CLOCKTYPE_PCLK2)
 8001b12:	6823      	ldr	r3, [r4, #0]
 8001b14:	f013 0f08 	tst.w	r3, #8
 8001b18:	d007      	beq.n	8001b2a <HAL_RCC_ClockConfig+0x11a>
  {
    assert_param(IS_RCC_PCLK(RCC_ClkInitStruct->APB2CLKDivider));
    MODIFY_REG(RCC->CFGR, RCC_CFGR_PPRE2, ((RCC_ClkInitStruct->APB2CLKDivider) << 3U));
 8001b1a:	4a11      	ldr	r2, [pc, #68]	; (8001b60 <HAL_RCC_ClockConfig+0x150>)
 8001b1c:	6893      	ldr	r3, [r2, #8]
 8001b1e:	f423 4360 	bic.w	r3, r3, #57344	; 0xe000
 8001b22:	6921      	ldr	r1, [r4, #16]
 8001b24:	ea43 03c1 	orr.w	r3, r3, r1, lsl #3
 8001b28:	6093      	str	r3, [r2, #8]
  }

  /* Update the SystemCoreClock global variable */
  SystemCoreClock = HAL_RCC_GetSysClockFreq() >> AHBPrescTable[(RCC->CFGR & RCC_CFGR_HPRE)>> RCC_CFGR_HPRE_Pos];
 8001b2a:	f000 f847 	bl	8001bbc <HAL_RCC_GetSysClockFreq>
 8001b2e:	4b0c      	ldr	r3, [pc, #48]	; (8001b60 <HAL_RCC_ClockConfig+0x150>)
 8001b30:	689b      	ldr	r3, [r3, #8]
 8001b32:	f3c3 1303 	ubfx	r3, r3, #4, #4
 8001b36:	4a0b      	ldr	r2, [pc, #44]	; (8001b64 <HAL_RCC_ClockConfig+0x154>)
 8001b38:	5cd3      	ldrb	r3, [r2, r3]
 8001b3a:	40d8      	lsrs	r0, r3
 8001b3c:	4b0a      	ldr	r3, [pc, #40]	; (8001b68 <HAL_RCC_ClockConfig+0x158>)
 8001b3e:	6018      	str	r0, [r3, #0]

  /* Configure the source of time base considering new system clocks settings */
  HAL_InitTick (uwTickPrio);
 8001b40:	4b0a      	ldr	r3, [pc, #40]	; (8001b6c <HAL_RCC_ClockConfig+0x15c>)
 8001b42:	6818      	ldr	r0, [r3, #0]
 8001b44:	f7fe fd38 	bl	80005b8 <HAL_InitTick>

  return HAL_OK;
 8001b48:	2000      	movs	r0, #0
}
 8001b4a:	bd70      	pop	{r4, r5, r6, pc}
    return HAL_ERROR;
 8001b4c:	2001      	movs	r0, #1
}
 8001b4e:	4770      	bx	lr
      return HAL_ERROR;
 8001b50:	2001      	movs	r0, #1
 8001b52:	e7fa      	b.n	8001b4a <HAL_RCC_ClockConfig+0x13a>
        return HAL_ERROR;
 8001b54:	2001      	movs	r0, #1
 8001b56:	e7f8      	b.n	8001b4a <HAL_RCC_ClockConfig+0x13a>
      return HAL_ERROR;
 8001b58:	2001      	movs	r0, #1
 8001b5a:	e7f6      	b.n	8001b4a <HAL_RCC_ClockConfig+0x13a>
 8001b5c:	40023c00 	.word	0x40023c00
 8001b60:	40023800 	.word	0x40023800
 8001b64:	08005890 	.word	0x08005890
 8001b68:	20000010 	.word	0x20000010
 8001b6c:	20000004 	.word	0x20000004

08001b70 <HAL_RCC_GetHCLKFreq>:
  * @retval HCLK frequency
  */
uint32_t HAL_RCC_GetHCLKFreq(void)
{
  return SystemCoreClock;
}
 8001b70:	4b01      	ldr	r3, [pc, #4]	; (8001b78 <HAL_RCC_GetHCLKFreq+0x8>)
 8001b72:	6818      	ldr	r0, [r3, #0]
 8001b74:	4770      	bx	lr
 8001b76:	bf00      	nop
 8001b78:	20000010 	.word	0x20000010

08001b7c <HAL_RCC_GetPCLK1Freq>:
  * @note   Each time PCLK1 changes, this function must be called to update the
  *         right PCLK1 value. Otherwise, any configuration based on this function will be incorrect.
  * @retval PCLK1 frequency
  */
uint32_t HAL_RCC_GetPCLK1Freq(void)
{
 8001b7c:	b508      	push	{r3, lr}
  /* Get HCLK source and Compute PCLK1 frequency ---------------------------*/
  return (HAL_RCC_GetHCLKFreq() >> APBPrescTable[(RCC->CFGR & RCC_CFGR_PPRE1)>> RCC_CFGR_PPRE1_Pos]);
 8001b7e:	f7ff fff7 	bl	8001b70 <HAL_RCC_GetHCLKFreq>
 8001b82:	4b04      	ldr	r3, [pc, #16]	; (8001b94 <HAL_RCC_GetPCLK1Freq+0x18>)
 8001b84:	689b      	ldr	r3, [r3, #8]
 8001b86:	f3c3 2382 	ubfx	r3, r3, #10, #3
 8001b8a:	4a03      	ldr	r2, [pc, #12]	; (8001b98 <HAL_RCC_GetPCLK1Freq+0x1c>)
 8001b8c:	5cd3      	ldrb	r3, [r2, r3]
}
 8001b8e:	40d8      	lsrs	r0, r3
 8001b90:	bd08      	pop	{r3, pc}
 8001b92:	bf00      	nop
 8001b94:	40023800 	.word	0x40023800
 8001b98:	080058a0 	.word	0x080058a0

08001b9c <HAL_RCC_GetPCLK2Freq>:
  * @note   Each time PCLK2 changes, this function must be called to update the
  *         right PCLK2 value. Otherwise, any configuration based on this function will be incorrect.
  * @retval PCLK2 frequency
  */
uint32_t HAL_RCC_GetPCLK2Freq(void)
{
 8001b9c:	b508      	push	{r3, lr}
  /* Get HCLK source and Compute PCLK2 frequency ---------------------------*/
  return (HAL_RCC_GetHCLKFreq()>> APBPrescTable[(RCC->CFGR & RCC_CFGR_PPRE2)>> RCC_CFGR_PPRE2_Pos]);
 8001b9e:	f7ff ffe7 	bl	8001b70 <HAL_RCC_GetHCLKFreq>
 8001ba2:	4b04      	ldr	r3, [pc, #16]	; (8001bb4 <HAL_RCC_GetPCLK2Freq+0x18>)
 8001ba4:	689b      	ldr	r3, [r3, #8]
 8001ba6:	f3c3 3342 	ubfx	r3, r3, #13, #3
 8001baa:	4a03      	ldr	r2, [pc, #12]	; (8001bb8 <HAL_RCC_GetPCLK2Freq+0x1c>)
 8001bac:	5cd3      	ldrb	r3, [r2, r3]
}
 8001bae:	40d8      	lsrs	r0, r3
 8001bb0:	bd08      	pop	{r3, pc}
 8001bb2:	bf00      	nop
 8001bb4:	40023800 	.word	0x40023800
 8001bb8:	080058a0 	.word	0x080058a0

08001bbc <HAL_RCC_GetSysClockFreq>:
  *
  *
  * @retval SYSCLK frequency
  */
uint32_t HAL_RCC_GetSysClockFreq(void)
{
 8001bbc:	e92d 43f8 	stmdb	sp!, {r3, r4, r5, r6, r7, r8, r9, lr}
  uint32_t pllp = 0U;
  uint32_t pllr = 0U;
  uint32_t sysclockfreq = 0U;

  /* Get SYSCLK source -------------------------------------------------------*/
  switch (RCC->CFGR & RCC_CFGR_SWS)
 8001bc0:	4b59      	ldr	r3, [pc, #356]	; (8001d28 <HAL_RCC_GetSysClockFreq+0x16c>)
 8001bc2:	689b      	ldr	r3, [r3, #8]
 8001bc4:	f003 030c 	and.w	r3, r3, #12
 8001bc8:	2b08      	cmp	r3, #8
 8001bca:	d008      	beq.n	8001bde <HAL_RCC_GetSysClockFreq+0x22>
 8001bcc:	2b0c      	cmp	r3, #12
 8001bce:	d05b      	beq.n	8001c88 <HAL_RCC_GetSysClockFreq+0xcc>
 8001bd0:	2b04      	cmp	r3, #4
 8001bd2:	d002      	beq.n	8001bda <HAL_RCC_GetSysClockFreq+0x1e>
 8001bd4:	4855      	ldr	r0, [pc, #340]	; (8001d2c <HAL_RCC_GetSysClockFreq+0x170>)
      sysclockfreq = HSI_VALUE;
      break;
    }
  }
  return sysclockfreq;
}
 8001bd6:	e8bd 83f8 	ldmia.w	sp!, {r3, r4, r5, r6, r7, r8, r9, pc}
      sysclockfreq = HSE_VALUE;
 8001bda:	4855      	ldr	r0, [pc, #340]	; (8001d30 <HAL_RCC_GetSysClockFreq+0x174>)
 8001bdc:	e7fb      	b.n	8001bd6 <HAL_RCC_GetSysClockFreq+0x1a>
      pllm = RCC->PLLCFGR & RCC_PLLCFGR_PLLM;
 8001bde:	4b52      	ldr	r3, [pc, #328]	; (8001d28 <HAL_RCC_GetSysClockFreq+0x16c>)
 8001be0:	685a      	ldr	r2, [r3, #4]
 8001be2:	f002 023f 	and.w	r2, r2, #63	; 0x3f
      if(__HAL_RCC_GET_PLL_OSCSOURCE() != RCC_PLLSOURCE_HSI)
 8001be6:	685b      	ldr	r3, [r3, #4]
 8001be8:	f413 0f80 	tst.w	r3, #4194304	; 0x400000
 8001bec:	d02b      	beq.n	8001c46 <HAL_RCC_GetSysClockFreq+0x8a>
        pllvco = (uint32_t) ((((uint64_t) HSE_VALUE * ((uint64_t) ((RCC->PLLCFGR & RCC_PLLCFGR_PLLN) >> RCC_PLLCFGR_PLLN_Pos)))) / (uint64_t)pllm);
 8001bee:	4b4e      	ldr	r3, [pc, #312]	; (8001d28 <HAL_RCC_GetSysClockFreq+0x16c>)
 8001bf0:	685b      	ldr	r3, [r3, #4]
 8001bf2:	f3c3 1388 	ubfx	r3, r3, #6, #9
 8001bf6:	0158      	lsls	r0, r3, #5
 8001bf8:	2100      	movs	r1, #0
 8001bfa:	1ac0      	subs	r0, r0, r3
 8001bfc:	f161 0100 	sbc.w	r1, r1, #0
 8001c00:	018c      	lsls	r4, r1, #6
 8001c02:	ea44 6490 	orr.w	r4, r4, r0, lsr #26
 8001c06:	0185      	lsls	r5, r0, #6
 8001c08:	ebb5 0800 	subs.w	r8, r5, r0
 8001c0c:	eb64 0901 	sbc.w	r9, r4, r1
 8001c10:	ea4f 01c9 	mov.w	r1, r9, lsl #3
 8001c14:	ea41 7158 	orr.w	r1, r1, r8, lsr #29
 8001c18:	ea4f 00c8 	mov.w	r0, r8, lsl #3
 8001c1c:	18c0      	adds	r0, r0, r3
 8001c1e:	f141 0100 	adc.w	r1, r1, #0
 8001c22:	024b      	lsls	r3, r1, #9
 8001c24:	ea43 53d0 	orr.w	r3, r3, r0, lsr #23
 8001c28:	0244      	lsls	r4, r0, #9
 8001c2a:	4620      	mov	r0, r4
 8001c2c:	4619      	mov	r1, r3
 8001c2e:	2300      	movs	r3, #0
 8001c30:	f7fe fb46 	bl	80002c0 <__aeabi_uldivmod>
      pllp = ((((RCC->PLLCFGR & RCC_PLLCFGR_PLLP) >> RCC_PLLCFGR_PLLP_Pos) + 1U) *2U);
 8001c34:	4b3c      	ldr	r3, [pc, #240]	; (8001d28 <HAL_RCC_GetSysClockFreq+0x16c>)
 8001c36:	685b      	ldr	r3, [r3, #4]
 8001c38:	f3c3 4301 	ubfx	r3, r3, #16, #2
 8001c3c:	3301      	adds	r3, #1
 8001c3e:	005b      	lsls	r3, r3, #1
      sysclockfreq = pllvco/pllp;
 8001c40:	fbb0 f0f3 	udiv	r0, r0, r3
      break;
 8001c44:	e7c7      	b.n	8001bd6 <HAL_RCC_GetSysClockFreq+0x1a>
        pllvco = (uint32_t) ((((uint64_t) HSI_VALUE * ((uint64_t) ((RCC->PLLCFGR & RCC_PLLCFGR_PLLN) >> RCC_PLLCFGR_PLLN_Pos)))) / (uint64_t)pllm);
 8001c46:	4b38      	ldr	r3, [pc, #224]	; (8001d28 <HAL_RCC_GetSysClockFreq+0x16c>)
 8001c48:	685b      	ldr	r3, [r3, #4]
 8001c4a:	f3c3 1388 	ubfx	r3, r3, #6, #9
 8001c4e:	0158      	lsls	r0, r3, #5
 8001c50:	2100      	movs	r1, #0
 8001c52:	1ac0      	subs	r0, r0, r3
 8001c54:	f161 0100 	sbc.w	r1, r1, #0
 8001c58:	018c      	lsls	r4, r1, #6
 8001c5a:	ea44 6490 	orr.w	r4, r4, r0, lsr #26
 8001c5e:	0185      	lsls	r5, r0, #6
 8001c60:	1a2e      	subs	r6, r5, r0
 8001c62:	eb64 0701 	sbc.w	r7, r4, r1
 8001c66:	00f9      	lsls	r1, r7, #3
 8001c68:	ea41 7156 	orr.w	r1, r1, r6, lsr #29
 8001c6c:	00f0      	lsls	r0, r6, #3
 8001c6e:	18c0      	adds	r0, r0, r3
 8001c70:	f141 0100 	adc.w	r1, r1, #0
 8001c74:	028b      	lsls	r3, r1, #10
 8001c76:	ea43 5390 	orr.w	r3, r3, r0, lsr #22
 8001c7a:	0284      	lsls	r4, r0, #10
 8001c7c:	4620      	mov	r0, r4
 8001c7e:	4619      	mov	r1, r3
 8001c80:	2300      	movs	r3, #0
 8001c82:	f7fe fb1d 	bl	80002c0 <__aeabi_uldivmod>
 8001c86:	e7d5      	b.n	8001c34 <HAL_RCC_GetSysClockFreq+0x78>
      pllm = RCC->PLLCFGR & RCC_PLLCFGR_PLLM;
 8001c88:	4b27      	ldr	r3, [pc, #156]	; (8001d28 <HAL_RCC_GetSysClockFreq+0x16c>)
 8001c8a:	685a      	ldr	r2, [r3, #4]
 8001c8c:	f002 023f 	and.w	r2, r2, #63	; 0x3f
      if(__HAL_RCC_GET_PLL_OSCSOURCE() != RCC_PLLSOURCE_HSI)
 8001c90:	685b      	ldr	r3, [r3, #4]
 8001c92:	f413 0f80 	tst.w	r3, #4194304	; 0x400000
 8001c96:	d026      	beq.n	8001ce6 <HAL_RCC_GetSysClockFreq+0x12a>
        pllvco = (uint32_t) ((((uint64_t) HSE_VALUE * ((uint64_t) ((RCC->PLLCFGR & RCC_PLLCFGR_PLLN) >> RCC_PLLCFGR_PLLN_Pos)))) / (uint64_t)pllm);
 8001c98:	4b23      	ldr	r3, [pc, #140]	; (8001d28 <HAL_RCC_GetSysClockFreq+0x16c>)
 8001c9a:	685b      	ldr	r3, [r3, #4]
 8001c9c:	f3c3 1388 	ubfx	r3, r3, #6, #9
 8001ca0:	0158      	lsls	r0, r3, #5
 8001ca2:	2100      	movs	r1, #0
 8001ca4:	1ac0      	subs	r0, r0, r3
 8001ca6:	f161 0100 	sbc.w	r1, r1, #0
 8001caa:	018e      	lsls	r6, r1, #6
 8001cac:	ea46 6690 	orr.w	r6, r6, r0, lsr #26
 8001cb0:	0187      	lsls	r7, r0, #6
 8001cb2:	1a3c      	subs	r4, r7, r0
 8001cb4:	eb66 0501 	sbc.w	r5, r6, r1
 8001cb8:	00e9      	lsls	r1, r5, #3
 8001cba:	ea41 7154 	orr.w	r1, r1, r4, lsr #29
 8001cbe:	00e0      	lsls	r0, r4, #3
 8001cc0:	18c0      	adds	r0, r0, r3
 8001cc2:	f141 0100 	adc.w	r1, r1, #0
 8001cc6:	024b      	lsls	r3, r1, #9
 8001cc8:	ea43 53d0 	orr.w	r3, r3, r0, lsr #23
 8001ccc:	0244      	lsls	r4, r0, #9
 8001cce:	4620      	mov	r0, r4
 8001cd0:	4619      	mov	r1, r3
 8001cd2:	2300      	movs	r3, #0
 8001cd4:	f7fe faf4 	bl	80002c0 <__aeabi_uldivmod>
      pllr = ((RCC->PLLCFGR & RCC_PLLCFGR_PLLR) >> RCC_PLLCFGR_PLLR_Pos);
 8001cd8:	4b13      	ldr	r3, [pc, #76]	; (8001d28 <HAL_RCC_GetSysClockFreq+0x16c>)
 8001cda:	685b      	ldr	r3, [r3, #4]
 8001cdc:	f3c3 7302 	ubfx	r3, r3, #28, #3
      sysclockfreq = pllvco/pllr;
 8001ce0:	fbb0 f0f3 	udiv	r0, r0, r3
      break;
 8001ce4:	e777      	b.n	8001bd6 <HAL_RCC_GetSysClockFreq+0x1a>
        pllvco = (uint32_t) ((((uint64_t) HSI_VALUE * ((uint64_t) ((RCC->PLLCFGR & RCC_PLLCFGR_PLLN) >> RCC_PLLCFGR_PLLN_Pos)))) / (uint64_t)pllm);
 8001ce6:	4b10      	ldr	r3, [pc, #64]	; (8001d28 <HAL_RCC_GetSysClockFreq+0x16c>)
 8001ce8:	685b      	ldr	r3, [r3, #4]
 8001cea:	f3c3 1388 	ubfx	r3, r3, #6, #9
 8001cee:	015c      	lsls	r4, r3, #5
 8001cf0:	2500      	movs	r5, #0
 8001cf2:	1ae4      	subs	r4, r4, r3
 8001cf4:	f165 0500 	sbc.w	r5, r5, #0
 8001cf8:	01ae      	lsls	r6, r5, #6
 8001cfa:	ea46 6694 	orr.w	r6, r6, r4, lsr #26
 8001cfe:	01a7      	lsls	r7, r4, #6
 8001d00:	1b38      	subs	r0, r7, r4
 8001d02:	eb66 0105 	sbc.w	r1, r6, r5
 8001d06:	00cc      	lsls	r4, r1, #3
 8001d08:	ea44 7450 	orr.w	r4, r4, r0, lsr #29
 8001d0c:	00c5      	lsls	r5, r0, #3
 8001d0e:	18e8      	adds	r0, r5, r3
 8001d10:	f144 0100 	adc.w	r1, r4, #0
 8001d14:	028b      	lsls	r3, r1, #10
 8001d16:	ea43 5390 	orr.w	r3, r3, r0, lsr #22
 8001d1a:	0284      	lsls	r4, r0, #10
 8001d1c:	4620      	mov	r0, r4
 8001d1e:	4619      	mov	r1, r3
 8001d20:	2300      	movs	r3, #0
 8001d22:	f7fe facd 	bl	80002c0 <__aeabi_uldivmod>
 8001d26:	e7d7      	b.n	8001cd8 <HAL_RCC_GetSysClockFreq+0x11c>
 8001d28:	40023800 	.word	0x40023800
 8001d2c:	00f42400 	.word	0x00f42400
 8001d30:	007a1200 	.word	0x007a1200

08001d34 <HAL_RCC_OscConfig>:
HAL_StatusTypeDef HAL_RCC_OscConfig(RCC_OscInitTypeDef  *RCC_OscInitStruct)
{
  uint32_t tickstart, pll_config;

  /* Check Null pointer */
  if(RCC_OscInitStruct == NULL)
 8001d34:	2800      	cmp	r0, #0
 8001d36:	f000 8201 	beq.w	800213c <HAL_RCC_OscConfig+0x408>
{
 8001d3a:	b570      	push	{r4, r5, r6, lr}
 8001d3c:	b082      	sub	sp, #8
 8001d3e:	4604      	mov	r4, r0
  }

  /* Check the parameters */
  assert_param(IS_RCC_OSCILLATORTYPE(RCC_OscInitStruct->OscillatorType));
  /*------------------------------- HSE Configuration ------------------------*/
  if(((RCC_OscInitStruct->OscillatorType) & RCC_OSCILLATORTYPE_HSE) == RCC_OSCILLATORTYPE_HSE)
 8001d40:	6803      	ldr	r3, [r0, #0]
 8001d42:	f013 0f01 	tst.w	r3, #1
 8001d46:	d041      	beq.n	8001dcc <HAL_RCC_OscConfig+0x98>
  {
    /* Check the parameters */
    assert_param(IS_RCC_HSE(RCC_OscInitStruct->HSEState));
    /* When the HSE is used as system clock or clock source for PLL in these cases HSE will not disabled */
#if defined(STM32F446xx)
    if((__HAL_RCC_GET_SYSCLK_SOURCE() == RCC_CFGR_SWS_HSE)                                                                     ||\
 8001d48:	4ba5      	ldr	r3, [pc, #660]	; (8001fe0 <HAL_RCC_OscConfig+0x2ac>)
 8001d4a:	689b      	ldr	r3, [r3, #8]
 8001d4c:	f003 030c 	and.w	r3, r3, #12
 8001d50:	2b04      	cmp	r3, #4
 8001d52:	d032      	beq.n	8001dba <HAL_RCC_OscConfig+0x86>
      ((__HAL_RCC_GET_SYSCLK_SOURCE() == RCC_CFGR_SWS_PLL) && ((RCC->PLLCFGR & RCC_PLLCFGR_PLLSRC) == RCC_PLLCFGR_PLLSRC_HSE)) ||\
 8001d54:	4ba2      	ldr	r3, [pc, #648]	; (8001fe0 <HAL_RCC_OscConfig+0x2ac>)
 8001d56:	689b      	ldr	r3, [r3, #8]
 8001d58:	f003 030c 	and.w	r3, r3, #12
    if((__HAL_RCC_GET_SYSCLK_SOURCE() == RCC_CFGR_SWS_HSE)                                                                     ||\
 8001d5c:	2b08      	cmp	r3, #8
 8001d5e:	d027      	beq.n	8001db0 <HAL_RCC_OscConfig+0x7c>
      ((__HAL_RCC_GET_SYSCLK_SOURCE() == RCC_CFGR_SWS_PLLR) && ((RCC->PLLCFGR & RCC_PLLCFGR_PLLSRC) == RCC_PLLCFGR_PLLSRC_HSE)))
 8001d60:	4b9f      	ldr	r3, [pc, #636]	; (8001fe0 <HAL_RCC_OscConfig+0x2ac>)
 8001d62:	689b      	ldr	r3, [r3, #8]
 8001d64:	f003 030c 	and.w	r3, r3, #12
      ((__HAL_RCC_GET_SYSCLK_SOURCE() == RCC_CFGR_SWS_PLL) && ((RCC->PLLCFGR & RCC_PLLCFGR_PLLSRC) == RCC_PLLCFGR_PLLSRC_HSE)) ||\
 8001d68:	2b0c      	cmp	r3, #12
 8001d6a:	d059      	beq.n	8001e20 <HAL_RCC_OscConfig+0xec>
      }
    }
    else
    {
      /* Set the new HSE configuration ---------------------------------------*/
      __HAL_RCC_HSE_CONFIG(RCC_OscInitStruct->HSEState);
 8001d6c:	6863      	ldr	r3, [r4, #4]
 8001d6e:	f5b3 3f80 	cmp.w	r3, #65536	; 0x10000
 8001d72:	d05b      	beq.n	8001e2c <HAL_RCC_OscConfig+0xf8>
 8001d74:	f5b3 2fa0 	cmp.w	r3, #327680	; 0x50000
 8001d78:	d05e      	beq.n	8001e38 <HAL_RCC_OscConfig+0x104>
 8001d7a:	4b99      	ldr	r3, [pc, #612]	; (8001fe0 <HAL_RCC_OscConfig+0x2ac>)
 8001d7c:	681a      	ldr	r2, [r3, #0]
 8001d7e:	f422 3280 	bic.w	r2, r2, #65536	; 0x10000
 8001d82:	601a      	str	r2, [r3, #0]
 8001d84:	681a      	ldr	r2, [r3, #0]
 8001d86:	f422 2280 	bic.w	r2, r2, #262144	; 0x40000
 8001d8a:	601a      	str	r2, [r3, #0]

      /* Check the HSE State */
      if((RCC_OscInitStruct->HSEState) != RCC_HSE_OFF)
 8001d8c:	6863      	ldr	r3, [r4, #4]
 8001d8e:	2b00      	cmp	r3, #0
 8001d90:	d05c      	beq.n	8001e4c <HAL_RCC_OscConfig+0x118>
      {
        /* Get Start Tick*/
        tickstart = HAL_GetTick();
 8001d92:	f7fe fc5b 	bl	800064c <HAL_GetTick>
 8001d96:	4605      	mov	r5, r0

        /* Wait till HSE is ready */
        while(__HAL_RCC_GET_FLAG(RCC_FLAG_HSERDY) == RESET)
 8001d98:	4b91      	ldr	r3, [pc, #580]	; (8001fe0 <HAL_RCC_OscConfig+0x2ac>)
 8001d9a:	681b      	ldr	r3, [r3, #0]
 8001d9c:	f413 3f00 	tst.w	r3, #131072	; 0x20000
 8001da0:	d114      	bne.n	8001dcc <HAL_RCC_OscConfig+0x98>
        {
          if((HAL_GetTick() - tickstart ) > HSE_TIMEOUT_VALUE)
 8001da2:	f7fe fc53 	bl	800064c <HAL_GetTick>
 8001da6:	1b40      	subs	r0, r0, r5
 8001da8:	2864      	cmp	r0, #100	; 0x64
 8001daa:	d9f5      	bls.n	8001d98 <HAL_RCC_OscConfig+0x64>
          {
            return HAL_TIMEOUT;
 8001dac:	2003      	movs	r0, #3
 8001dae:	e1cc      	b.n	800214a <HAL_RCC_OscConfig+0x416>
      ((__HAL_RCC_GET_SYSCLK_SOURCE() == RCC_CFGR_SWS_PLL) && ((RCC->PLLCFGR & RCC_PLLCFGR_PLLSRC) == RCC_PLLCFGR_PLLSRC_HSE)) ||\
 8001db0:	4b8b      	ldr	r3, [pc, #556]	; (8001fe0 <HAL_RCC_OscConfig+0x2ac>)
 8001db2:	685b      	ldr	r3, [r3, #4]
 8001db4:	f413 0f80 	tst.w	r3, #4194304	; 0x400000
 8001db8:	d0d2      	beq.n	8001d60 <HAL_RCC_OscConfig+0x2c>
      if((__HAL_RCC_GET_FLAG(RCC_FLAG_HSERDY) != RESET) && (RCC_OscInitStruct->HSEState == RCC_HSE_OFF))
 8001dba:	4b89      	ldr	r3, [pc, #548]	; (8001fe0 <HAL_RCC_OscConfig+0x2ac>)
 8001dbc:	681b      	ldr	r3, [r3, #0]
 8001dbe:	f413 3f00 	tst.w	r3, #131072	; 0x20000
 8001dc2:	d003      	beq.n	8001dcc <HAL_RCC_OscConfig+0x98>
 8001dc4:	6863      	ldr	r3, [r4, #4]
 8001dc6:	2b00      	cmp	r3, #0
 8001dc8:	f000 81ba 	beq.w	8002140 <HAL_RCC_OscConfig+0x40c>
        }
      }
    }
  }
  /*----------------------------- HSI Configuration --------------------------*/
  if(((RCC_OscInitStruct->OscillatorType) & RCC_OSCILLATORTYPE_HSI) == RCC_OSCILLATORTYPE_HSI)
 8001dcc:	6823      	ldr	r3, [r4, #0]
 8001dce:	f013 0f02 	tst.w	r3, #2
 8001dd2:	d060      	beq.n	8001e96 <HAL_RCC_OscConfig+0x162>
    assert_param(IS_RCC_HSI(RCC_OscInitStruct->HSIState));
    assert_param(IS_RCC_CALIBRATION_VALUE(RCC_OscInitStruct->HSICalibrationValue));

    /* Check if HSI is used as system clock or as PLL source when PLL is selected as system clock */
#if defined(STM32F446xx)
    if((__HAL_RCC_GET_SYSCLK_SOURCE() == RCC_CFGR_SWS_HSI)                                                                     ||\
 8001dd4:	4b82      	ldr	r3, [pc, #520]	; (8001fe0 <HAL_RCC_OscConfig+0x2ac>)
 8001dd6:	689b      	ldr	r3, [r3, #8]
 8001dd8:	f013 0f0c 	tst.w	r3, #12
 8001ddc:	d04a      	beq.n	8001e74 <HAL_RCC_OscConfig+0x140>
      ((__HAL_RCC_GET_SYSCLK_SOURCE() == RCC_CFGR_SWS_PLL) && ((RCC->PLLCFGR & RCC_PLLCFGR_PLLSRC) == RCC_PLLCFGR_PLLSRC_HSI)) ||\
 8001dde:	4b80      	ldr	r3, [pc, #512]	; (8001fe0 <HAL_RCC_OscConfig+0x2ac>)
 8001de0:	689b      	ldr	r3, [r3, #8]
 8001de2:	f003 030c 	and.w	r3, r3, #12
    if((__HAL_RCC_GET_SYSCLK_SOURCE() == RCC_CFGR_SWS_HSI)                                                                     ||\
 8001de6:	2b08      	cmp	r3, #8
 8001de8:	d03f      	beq.n	8001e6a <HAL_RCC_OscConfig+0x136>
      ((__HAL_RCC_GET_SYSCLK_SOURCE() == RCC_CFGR_SWS_PLLR) && ((RCC->PLLCFGR & RCC_PLLCFGR_PLLSRC) == RCC_PLLCFGR_PLLSRC_HSI)))
 8001dea:	4b7d      	ldr	r3, [pc, #500]	; (8001fe0 <HAL_RCC_OscConfig+0x2ac>)
 8001dec:	689b      	ldr	r3, [r3, #8]
 8001dee:	f003 030c 	and.w	r3, r3, #12
      ((__HAL_RCC_GET_SYSCLK_SOURCE() == RCC_CFGR_SWS_PLL) && ((RCC->PLLCFGR & RCC_PLLCFGR_PLLSRC) == RCC_PLLCFGR_PLLSRC_HSI)) ||\
 8001df2:	2b0c      	cmp	r3, #12
 8001df4:	d068      	beq.n	8001ec8 <HAL_RCC_OscConfig+0x194>
      }
    }
    else
    {
      /* Check the HSI State */
      if((RCC_OscInitStruct->HSIState)!= RCC_HSI_OFF)
 8001df6:	68e3      	ldr	r3, [r4, #12]
 8001df8:	2b00      	cmp	r3, #0
 8001dfa:	d074      	beq.n	8001ee6 <HAL_RCC_OscConfig+0x1b2>
      {
        /* Enable the Internal High Speed oscillator (HSI). */
        __HAL_RCC_HSI_ENABLE();
 8001dfc:	4b79      	ldr	r3, [pc, #484]	; (8001fe4 <HAL_RCC_OscConfig+0x2b0>)
 8001dfe:	2201      	movs	r2, #1
 8001e00:	601a      	str	r2, [r3, #0]

        /* Get Start Tick*/
        tickstart = HAL_GetTick();
 8001e02:	f7fe fc23 	bl	800064c <HAL_GetTick>
 8001e06:	4605      	mov	r5, r0

        /* Wait till HSI is ready */
        while(__HAL_RCC_GET_FLAG(RCC_FLAG_HSIRDY) == RESET)
 8001e08:	4b75      	ldr	r3, [pc, #468]	; (8001fe0 <HAL_RCC_OscConfig+0x2ac>)
 8001e0a:	681b      	ldr	r3, [r3, #0]
 8001e0c:	f013 0f02 	tst.w	r3, #2
 8001e10:	d160      	bne.n	8001ed4 <HAL_RCC_OscConfig+0x1a0>
        {
          if((HAL_GetTick() - tickstart ) > HSI_TIMEOUT_VALUE)
 8001e12:	f7fe fc1b 	bl	800064c <HAL_GetTick>
 8001e16:	1b40      	subs	r0, r0, r5
 8001e18:	2802      	cmp	r0, #2
 8001e1a:	d9f5      	bls.n	8001e08 <HAL_RCC_OscConfig+0xd4>
          {
            return HAL_TIMEOUT;
 8001e1c:	2003      	movs	r0, #3
 8001e1e:	e194      	b.n	800214a <HAL_RCC_OscConfig+0x416>
      ((__HAL_RCC_GET_SYSCLK_SOURCE() == RCC_CFGR_SWS_PLLR) && ((RCC->PLLCFGR & RCC_PLLCFGR_PLLSRC) == RCC_PLLCFGR_PLLSRC_HSE)))
 8001e20:	4b6f      	ldr	r3, [pc, #444]	; (8001fe0 <HAL_RCC_OscConfig+0x2ac>)
 8001e22:	685b      	ldr	r3, [r3, #4]
 8001e24:	f413 0f80 	tst.w	r3, #4194304	; 0x400000
 8001e28:	d0a0      	beq.n	8001d6c <HAL_RCC_OscConfig+0x38>
 8001e2a:	e7c6      	b.n	8001dba <HAL_RCC_OscConfig+0x86>
      __HAL_RCC_HSE_CONFIG(RCC_OscInitStruct->HSEState);
 8001e2c:	4a6c      	ldr	r2, [pc, #432]	; (8001fe0 <HAL_RCC_OscConfig+0x2ac>)
 8001e2e:	6813      	ldr	r3, [r2, #0]
 8001e30:	f443 3380 	orr.w	r3, r3, #65536	; 0x10000
 8001e34:	6013      	str	r3, [r2, #0]
 8001e36:	e7a9      	b.n	8001d8c <HAL_RCC_OscConfig+0x58>
 8001e38:	4b69      	ldr	r3, [pc, #420]	; (8001fe0 <HAL_RCC_OscConfig+0x2ac>)
 8001e3a:	681a      	ldr	r2, [r3, #0]
 8001e3c:	f442 2280 	orr.w	r2, r2, #262144	; 0x40000
 8001e40:	601a      	str	r2, [r3, #0]
 8001e42:	681a      	ldr	r2, [r3, #0]
 8001e44:	f442 3280 	orr.w	r2, r2, #65536	; 0x10000
 8001e48:	601a      	str	r2, [r3, #0]
 8001e4a:	e79f      	b.n	8001d8c <HAL_RCC_OscConfig+0x58>
        tickstart = HAL_GetTick();
 8001e4c:	f7fe fbfe 	bl	800064c <HAL_GetTick>
 8001e50:	4605      	mov	r5, r0
        while(__HAL_RCC_GET_FLAG(RCC_FLAG_HSERDY) != RESET)
 8001e52:	4b63      	ldr	r3, [pc, #396]	; (8001fe0 <HAL_RCC_OscConfig+0x2ac>)
 8001e54:	681b      	ldr	r3, [r3, #0]
 8001e56:	f413 3f00 	tst.w	r3, #131072	; 0x20000
 8001e5a:	d0b7      	beq.n	8001dcc <HAL_RCC_OscConfig+0x98>
          if((HAL_GetTick() - tickstart ) > HSE_TIMEOUT_VALUE)
 8001e5c:	f7fe fbf6 	bl	800064c <HAL_GetTick>
 8001e60:	1b40      	subs	r0, r0, r5
 8001e62:	2864      	cmp	r0, #100	; 0x64
 8001e64:	d9f5      	bls.n	8001e52 <HAL_RCC_OscConfig+0x11e>
            return HAL_TIMEOUT;
 8001e66:	2003      	movs	r0, #3
 8001e68:	e16f      	b.n	800214a <HAL_RCC_OscConfig+0x416>
      ((__HAL_RCC_GET_SYSCLK_SOURCE() == RCC_CFGR_SWS_PLL) && ((RCC->PLLCFGR & RCC_PLLCFGR_PLLSRC) == RCC_PLLCFGR_PLLSRC_HSI)) ||\
 8001e6a:	4b5d      	ldr	r3, [pc, #372]	; (8001fe0 <HAL_RCC_OscConfig+0x2ac>)
 8001e6c:	685b      	ldr	r3, [r3, #4]
 8001e6e:	f413 0f80 	tst.w	r3, #4194304	; 0x400000
 8001e72:	d1ba      	bne.n	8001dea <HAL_RCC_OscConfig+0xb6>
      if((__HAL_RCC_GET_FLAG(RCC_FLAG_HSIRDY) != RESET) && (RCC_OscInitStruct->HSIState != RCC_HSI_ON))
 8001e74:	4b5a      	ldr	r3, [pc, #360]	; (8001fe0 <HAL_RCC_OscConfig+0x2ac>)
 8001e76:	681b      	ldr	r3, [r3, #0]
 8001e78:	f013 0f02 	tst.w	r3, #2
 8001e7c:	d003      	beq.n	8001e86 <HAL_RCC_OscConfig+0x152>
 8001e7e:	68e3      	ldr	r3, [r4, #12]
 8001e80:	2b01      	cmp	r3, #1
 8001e82:	f040 815f 	bne.w	8002144 <HAL_RCC_OscConfig+0x410>
        __HAL_RCC_HSI_CALIBRATIONVALUE_ADJUST(RCC_OscInitStruct->HSICalibrationValue);
 8001e86:	4a56      	ldr	r2, [pc, #344]	; (8001fe0 <HAL_RCC_OscConfig+0x2ac>)
 8001e88:	6813      	ldr	r3, [r2, #0]
 8001e8a:	f023 03f8 	bic.w	r3, r3, #248	; 0xf8
 8001e8e:	6921      	ldr	r1, [r4, #16]
 8001e90:	ea43 03c1 	orr.w	r3, r3, r1, lsl #3
 8001e94:	6013      	str	r3, [r2, #0]
        }
      }
    }
  }
  /*------------------------------ LSI Configuration -------------------------*/
  if(((RCC_OscInitStruct->OscillatorType) & RCC_OSCILLATORTYPE_LSI) == RCC_OSCILLATORTYPE_LSI)
 8001e96:	6823      	ldr	r3, [r4, #0]
 8001e98:	f013 0f08 	tst.w	r3, #8
 8001e9c:	d047      	beq.n	8001f2e <HAL_RCC_OscConfig+0x1fa>
  {
    /* Check the parameters */
    assert_param(IS_RCC_LSI(RCC_OscInitStruct->LSIState));

    /* Check the LSI State */
    if((RCC_OscInitStruct->LSIState)!= RCC_LSI_OFF)
 8001e9e:	6963      	ldr	r3, [r4, #20]
 8001ea0:	2b00      	cmp	r3, #0
 8001ea2:	d032      	beq.n	8001f0a <HAL_RCC_OscConfig+0x1d6>
    {
      /* Enable the Internal Low Speed oscillator (LSI). */
      __HAL_RCC_LSI_ENABLE();
 8001ea4:	4b50      	ldr	r3, [pc, #320]	; (8001fe8 <HAL_RCC_OscConfig+0x2b4>)
 8001ea6:	2201      	movs	r2, #1
 8001ea8:	601a      	str	r2, [r3, #0]

      /* Get Start Tick*/
      tickstart = HAL_GetTick();
 8001eaa:	f7fe fbcf 	bl	800064c <HAL_GetTick>
 8001eae:	4605      	mov	r5, r0

      /* Wait till LSI is ready */
      while(__HAL_RCC_GET_FLAG(RCC_FLAG_LSIRDY) == RESET)
 8001eb0:	4b4b      	ldr	r3, [pc, #300]	; (8001fe0 <HAL_RCC_OscConfig+0x2ac>)
 8001eb2:	6f5b      	ldr	r3, [r3, #116]	; 0x74
 8001eb4:	f013 0f02 	tst.w	r3, #2
 8001eb8:	d139      	bne.n	8001f2e <HAL_RCC_OscConfig+0x1fa>
      {
        if((HAL_GetTick() - tickstart ) > LSI_TIMEOUT_VALUE)
 8001eba:	f7fe fbc7 	bl	800064c <HAL_GetTick>
 8001ebe:	1b40      	subs	r0, r0, r5
 8001ec0:	2802      	cmp	r0, #2
 8001ec2:	d9f5      	bls.n	8001eb0 <HAL_RCC_OscConfig+0x17c>
        {
          return HAL_TIMEOUT;
 8001ec4:	2003      	movs	r0, #3
 8001ec6:	e140      	b.n	800214a <HAL_RCC_OscConfig+0x416>
      ((__HAL_RCC_GET_SYSCLK_SOURCE() == RCC_CFGR_SWS_PLLR) && ((RCC->PLLCFGR & RCC_PLLCFGR_PLLSRC) == RCC_PLLCFGR_PLLSRC_HSI)))
 8001ec8:	4b45      	ldr	r3, [pc, #276]	; (8001fe0 <HAL_RCC_OscConfig+0x2ac>)
 8001eca:	685b      	ldr	r3, [r3, #4]
 8001ecc:	f413 0f80 	tst.w	r3, #4194304	; 0x400000
 8001ed0:	d191      	bne.n	8001df6 <HAL_RCC_OscConfig+0xc2>
 8001ed2:	e7cf      	b.n	8001e74 <HAL_RCC_OscConfig+0x140>
        __HAL_RCC_HSI_CALIBRATIONVALUE_ADJUST(RCC_OscInitStruct->HSICalibrationValue);
 8001ed4:	4a42      	ldr	r2, [pc, #264]	; (8001fe0 <HAL_RCC_OscConfig+0x2ac>)
 8001ed6:	6813      	ldr	r3, [r2, #0]
 8001ed8:	f023 03f8 	bic.w	r3, r3, #248	; 0xf8
 8001edc:	6921      	ldr	r1, [r4, #16]
 8001ede:	ea43 03c1 	orr.w	r3, r3, r1, lsl #3
 8001ee2:	6013      	str	r3, [r2, #0]
 8001ee4:	e7d7      	b.n	8001e96 <HAL_RCC_OscConfig+0x162>
        __HAL_RCC_HSI_DISABLE();
 8001ee6:	4b3f      	ldr	r3, [pc, #252]	; (8001fe4 <HAL_RCC_OscConfig+0x2b0>)
 8001ee8:	2200      	movs	r2, #0
 8001eea:	601a      	str	r2, [r3, #0]
        tickstart = HAL_GetTick();
 8001eec:	f7fe fbae 	bl	800064c <HAL_GetTick>
 8001ef0:	4605      	mov	r5, r0
        while(__HAL_RCC_GET_FLAG(RCC_FLAG_HSIRDY) != RESET)
 8001ef2:	4b3b      	ldr	r3, [pc, #236]	; (8001fe0 <HAL_RCC_OscConfig+0x2ac>)
 8001ef4:	681b      	ldr	r3, [r3, #0]
 8001ef6:	f013 0f02 	tst.w	r3, #2
 8001efa:	d0cc      	beq.n	8001e96 <HAL_RCC_OscConfig+0x162>
          if((HAL_GetTick() - tickstart ) > HSI_TIMEOUT_VALUE)
 8001efc:	f7fe fba6 	bl	800064c <HAL_GetTick>
 8001f00:	1b40      	subs	r0, r0, r5
 8001f02:	2802      	cmp	r0, #2
 8001f04:	d9f5      	bls.n	8001ef2 <HAL_RCC_OscConfig+0x1be>
            return HAL_TIMEOUT;
 8001f06:	2003      	movs	r0, #3
 8001f08:	e11f      	b.n	800214a <HAL_RCC_OscConfig+0x416>
      }
    }
    else
    {
      /* Disable the Internal Low Speed oscillator (LSI). */
      __HAL_RCC_LSI_DISABLE();
 8001f0a:	4b37      	ldr	r3, [pc, #220]	; (8001fe8 <HAL_RCC_OscConfig+0x2b4>)
 8001f0c:	2200      	movs	r2, #0
 8001f0e:	601a      	str	r2, [r3, #0]

      /* Get Start Tick*/
      tickstart = HAL_GetTick();
 8001f10:	f7fe fb9c 	bl	800064c <HAL_GetTick>
 8001f14:	4605      	mov	r5, r0

      /* Wait till LSI is ready */
      while(__HAL_RCC_GET_FLAG(RCC_FLAG_LSIRDY) != RESET)
 8001f16:	4b32      	ldr	r3, [pc, #200]	; (8001fe0 <HAL_RCC_OscConfig+0x2ac>)
 8001f18:	6f5b      	ldr	r3, [r3, #116]	; 0x74
 8001f1a:	f013 0f02 	tst.w	r3, #2
 8001f1e:	d006      	beq.n	8001f2e <HAL_RCC_OscConfig+0x1fa>
      {
        if((HAL_GetTick() - tickstart ) > LSI_TIMEOUT_VALUE)
 8001f20:	f7fe fb94 	bl	800064c <HAL_GetTick>
 8001f24:	1b40      	subs	r0, r0, r5
 8001f26:	2802      	cmp	r0, #2
 8001f28:	d9f5      	bls.n	8001f16 <HAL_RCC_OscConfig+0x1e2>
        {
          return HAL_TIMEOUT;
 8001f2a:	2003      	movs	r0, #3
 8001f2c:	e10d      	b.n	800214a <HAL_RCC_OscConfig+0x416>
        }
      }
    }
  }
  /*------------------------------ LSE Configuration -------------------------*/
  if(((RCC_OscInitStruct->OscillatorType) & RCC_OSCILLATORTYPE_LSE) == RCC_OSCILLATORTYPE_LSE)
 8001f2e:	6823      	ldr	r3, [r4, #0]
 8001f30:	f013 0f04 	tst.w	r3, #4
 8001f34:	d078      	beq.n	8002028 <HAL_RCC_OscConfig+0x2f4>
    /* Check the parameters */
    assert_param(IS_RCC_LSE(RCC_OscInitStruct->LSEState));

    /* Update LSE configuration in Backup Domain control register    */
    /* Requires to enable write access to Backup Domain of necessary */
    if(__HAL_RCC_PWR_IS_CLK_DISABLED())
 8001f36:	4b2a      	ldr	r3, [pc, #168]	; (8001fe0 <HAL_RCC_OscConfig+0x2ac>)
 8001f38:	6c1b      	ldr	r3, [r3, #64]	; 0x40
 8001f3a:	f013 5f80 	tst.w	r3, #268435456	; 0x10000000
 8001f3e:	d133      	bne.n	8001fa8 <HAL_RCC_OscConfig+0x274>
    {
      __HAL_RCC_PWR_CLK_ENABLE();
 8001f40:	2300      	movs	r3, #0
 8001f42:	9301      	str	r3, [sp, #4]
 8001f44:	4b26      	ldr	r3, [pc, #152]	; (8001fe0 <HAL_RCC_OscConfig+0x2ac>)
 8001f46:	6c1a      	ldr	r2, [r3, #64]	; 0x40
 8001f48:	f042 5280 	orr.w	r2, r2, #268435456	; 0x10000000
 8001f4c:	641a      	str	r2, [r3, #64]	; 0x40
 8001f4e:	6c1b      	ldr	r3, [r3, #64]	; 0x40
 8001f50:	f003 5380 	and.w	r3, r3, #268435456	; 0x10000000
 8001f54:	9301      	str	r3, [sp, #4]
 8001f56:	9b01      	ldr	r3, [sp, #4]
      pwrclkchanged = SET;
 8001f58:	2501      	movs	r5, #1
    }

    if(HAL_IS_BIT_CLR(PWR->CR, PWR_CR_DBP))
 8001f5a:	4b24      	ldr	r3, [pc, #144]	; (8001fec <HAL_RCC_OscConfig+0x2b8>)
 8001f5c:	681b      	ldr	r3, [r3, #0]
 8001f5e:	f413 7f80 	tst.w	r3, #256	; 0x100
 8001f62:	d023      	beq.n	8001fac <HAL_RCC_OscConfig+0x278>
        }
      }
    }

    /* Set the new LSE configuration -----------------------------------------*/
    __HAL_RCC_LSE_CONFIG(RCC_OscInitStruct->LSEState);
 8001f64:	68a3      	ldr	r3, [r4, #8]
 8001f66:	2b01      	cmp	r3, #1
 8001f68:	d034      	beq.n	8001fd4 <HAL_RCC_OscConfig+0x2a0>
 8001f6a:	2b05      	cmp	r3, #5
 8001f6c:	d040      	beq.n	8001ff0 <HAL_RCC_OscConfig+0x2bc>
 8001f6e:	4b1c      	ldr	r3, [pc, #112]	; (8001fe0 <HAL_RCC_OscConfig+0x2ac>)
 8001f70:	6f1a      	ldr	r2, [r3, #112]	; 0x70
 8001f72:	f022 0201 	bic.w	r2, r2, #1
 8001f76:	671a      	str	r2, [r3, #112]	; 0x70
 8001f78:	6f1a      	ldr	r2, [r3, #112]	; 0x70
 8001f7a:	f022 0204 	bic.w	r2, r2, #4
 8001f7e:	671a      	str	r2, [r3, #112]	; 0x70
    /* Check the LSE State */
    if((RCC_OscInitStruct->LSEState) != RCC_LSE_OFF)
 8001f80:	68a3      	ldr	r3, [r4, #8]
 8001f82:	2b00      	cmp	r3, #0
 8001f84:	d03e      	beq.n	8002004 <HAL_RCC_OscConfig+0x2d0>
    {
      /* Get Start Tick*/
      tickstart = HAL_GetTick();
 8001f86:	f7fe fb61 	bl	800064c <HAL_GetTick>
 8001f8a:	4606      	mov	r6, r0

      /* Wait till LSE is ready */
      while(__HAL_RCC_GET_FLAG(RCC_FLAG_LSERDY) == RESET)
 8001f8c:	4b14      	ldr	r3, [pc, #80]	; (8001fe0 <HAL_RCC_OscConfig+0x2ac>)
 8001f8e:	6f1b      	ldr	r3, [r3, #112]	; 0x70
 8001f90:	f013 0f02 	tst.w	r3, #2
 8001f94:	d147      	bne.n	8002026 <HAL_RCC_OscConfig+0x2f2>
      {
        if((HAL_GetTick() - tickstart ) > RCC_LSE_TIMEOUT_VALUE)
 8001f96:	f7fe fb59 	bl	800064c <HAL_GetTick>
 8001f9a:	1b80      	subs	r0, r0, r6
 8001f9c:	f241 3388 	movw	r3, #5000	; 0x1388
 8001fa0:	4298      	cmp	r0, r3
 8001fa2:	d9f3      	bls.n	8001f8c <HAL_RCC_OscConfig+0x258>
        {
          return HAL_TIMEOUT;
 8001fa4:	2003      	movs	r0, #3
 8001fa6:	e0d0      	b.n	800214a <HAL_RCC_OscConfig+0x416>
    FlagStatus       pwrclkchanged = RESET;
 8001fa8:	2500      	movs	r5, #0
 8001faa:	e7d6      	b.n	8001f5a <HAL_RCC_OscConfig+0x226>
      SET_BIT(PWR->CR, PWR_CR_DBP);
 8001fac:	4a0f      	ldr	r2, [pc, #60]	; (8001fec <HAL_RCC_OscConfig+0x2b8>)
 8001fae:	6813      	ldr	r3, [r2, #0]
 8001fb0:	f443 7380 	orr.w	r3, r3, #256	; 0x100
 8001fb4:	6013      	str	r3, [r2, #0]
      tickstart = HAL_GetTick();
 8001fb6:	f7fe fb49 	bl	800064c <HAL_GetTick>
 8001fba:	4606      	mov	r6, r0
      while(HAL_IS_BIT_CLR(PWR->CR, PWR_CR_DBP))
 8001fbc:	4b0b      	ldr	r3, [pc, #44]	; (8001fec <HAL_RCC_OscConfig+0x2b8>)
 8001fbe:	681b      	ldr	r3, [r3, #0]
 8001fc0:	f413 7f80 	tst.w	r3, #256	; 0x100
 8001fc4:	d1ce      	bne.n	8001f64 <HAL_RCC_OscConfig+0x230>
        if((HAL_GetTick() - tickstart) > RCC_DBP_TIMEOUT_VALUE)
 8001fc6:	f7fe fb41 	bl	800064c <HAL_GetTick>
 8001fca:	1b80      	subs	r0, r0, r6
 8001fcc:	2802      	cmp	r0, #2
 8001fce:	d9f5      	bls.n	8001fbc <HAL_RCC_OscConfig+0x288>
          return HAL_TIMEOUT;
 8001fd0:	2003      	movs	r0, #3
 8001fd2:	e0ba      	b.n	800214a <HAL_RCC_OscConfig+0x416>
    __HAL_RCC_LSE_CONFIG(RCC_OscInitStruct->LSEState);
 8001fd4:	4a02      	ldr	r2, [pc, #8]	; (8001fe0 <HAL_RCC_OscConfig+0x2ac>)
 8001fd6:	6f13      	ldr	r3, [r2, #112]	; 0x70
 8001fd8:	f043 0301 	orr.w	r3, r3, #1
 8001fdc:	6713      	str	r3, [r2, #112]	; 0x70
 8001fde:	e7cf      	b.n	8001f80 <HAL_RCC_OscConfig+0x24c>
 8001fe0:	40023800 	.word	0x40023800
 8001fe4:	42470000 	.word	0x42470000
 8001fe8:	42470e80 	.word	0x42470e80
 8001fec:	40007000 	.word	0x40007000
 8001ff0:	4b5e      	ldr	r3, [pc, #376]	; (800216c <HAL_RCC_OscConfig+0x438>)
 8001ff2:	6f1a      	ldr	r2, [r3, #112]	; 0x70
 8001ff4:	f042 0204 	orr.w	r2, r2, #4
 8001ff8:	671a      	str	r2, [r3, #112]	; 0x70
 8001ffa:	6f1a      	ldr	r2, [r3, #112]	; 0x70
 8001ffc:	f042 0201 	orr.w	r2, r2, #1
 8002000:	671a      	str	r2, [r3, #112]	; 0x70
 8002002:	e7bd      	b.n	8001f80 <HAL_RCC_OscConfig+0x24c>
      }
    }
    else
    {
      /* Get Start Tick*/
      tickstart = HAL_GetTick();
 8002004:	f7fe fb22 	bl	800064c <HAL_GetTick>
 8002008:	4606      	mov	r6, r0

      /* Wait till LSE is ready */
      while(__HAL_RCC_GET_FLAG(RCC_FLAG_LSERDY) != RESET)
 800200a:	4b58      	ldr	r3, [pc, #352]	; (800216c <HAL_RCC_OscConfig+0x438>)
 800200c:	6f1b      	ldr	r3, [r3, #112]	; 0x70
 800200e:	f013 0f02 	tst.w	r3, #2
 8002012:	d008      	beq.n	8002026 <HAL_RCC_OscConfig+0x2f2>
      {
        if((HAL_GetTick() - tickstart ) > RCC_LSE_TIMEOUT_VALUE)
 8002014:	f7fe fb1a 	bl	800064c <HAL_GetTick>
 8002018:	1b80      	subs	r0, r0, r6
 800201a:	f241 3388 	movw	r3, #5000	; 0x1388
 800201e:	4298      	cmp	r0, r3
 8002020:	d9f3      	bls.n	800200a <HAL_RCC_OscConfig+0x2d6>
        {
          return HAL_TIMEOUT;
 8002022:	2003      	movs	r0, #3
 8002024:	e091      	b.n	800214a <HAL_RCC_OscConfig+0x416>
        }
      }
    }

    /* Restore clock configuration if changed */
    if(pwrclkchanged == SET)
 8002026:	b9ed      	cbnz	r5, 8002064 <HAL_RCC_OscConfig+0x330>
    }
  }
  /*-------------------------------- PLL Configuration -----------------------*/
  /* Check the parameters */
  assert_param(IS_RCC_PLL(RCC_OscInitStruct->PLL.PLLState));
  if ((RCC_OscInitStruct->PLL.PLLState) != RCC_PLL_NONE)
 8002028:	69a3      	ldr	r3, [r4, #24]
 800202a:	2b00      	cmp	r3, #0
 800202c:	f000 808c 	beq.w	8002148 <HAL_RCC_OscConfig+0x414>
  {
    /* Check if the PLL is used as system clock or not */
    if(__HAL_RCC_GET_SYSCLK_SOURCE() != RCC_CFGR_SWS_PLL)
 8002030:	4a4e      	ldr	r2, [pc, #312]	; (800216c <HAL_RCC_OscConfig+0x438>)
 8002032:	6892      	ldr	r2, [r2, #8]
 8002034:	f002 020c 	and.w	r2, r2, #12
 8002038:	2a08      	cmp	r2, #8
 800203a:	d054      	beq.n	80020e6 <HAL_RCC_OscConfig+0x3b2>
    {
      if((RCC_OscInitStruct->PLL.PLLState) == RCC_PLL_ON)
 800203c:	2b02      	cmp	r3, #2
 800203e:	d017      	beq.n	8002070 <HAL_RCC_OscConfig+0x33c>
        }
      }
      else
      {
        /* Disable the main PLL. */
        __HAL_RCC_PLL_DISABLE();
 8002040:	4b4b      	ldr	r3, [pc, #300]	; (8002170 <HAL_RCC_OscConfig+0x43c>)
 8002042:	2200      	movs	r2, #0
 8002044:	601a      	str	r2, [r3, #0]

        /* Get Start Tick*/
        tickstart = HAL_GetTick();
 8002046:	f7fe fb01 	bl	800064c <HAL_GetTick>
 800204a:	4604      	mov	r4, r0

        /* Wait till PLL is ready */
        while(__HAL_RCC_GET_FLAG(RCC_FLAG_PLLRDY) != RESET)
 800204c:	4b47      	ldr	r3, [pc, #284]	; (800216c <HAL_RCC_OscConfig+0x438>)
 800204e:	681b      	ldr	r3, [r3, #0]
 8002050:	f013 7f00 	tst.w	r3, #33554432	; 0x2000000
 8002054:	d045      	beq.n	80020e2 <HAL_RCC_OscConfig+0x3ae>
        {
          if((HAL_GetTick() - tickstart ) > PLL_TIMEOUT_VALUE)
 8002056:	f7fe faf9 	bl	800064c <HAL_GetTick>
 800205a:	1b00      	subs	r0, r0, r4
 800205c:	2802      	cmp	r0, #2
 800205e:	d9f5      	bls.n	800204c <HAL_RCC_OscConfig+0x318>
          {
            return HAL_TIMEOUT;
 8002060:	2003      	movs	r0, #3
 8002062:	e072      	b.n	800214a <HAL_RCC_OscConfig+0x416>
      __HAL_RCC_PWR_CLK_DISABLE();
 8002064:	4a41      	ldr	r2, [pc, #260]	; (800216c <HAL_RCC_OscConfig+0x438>)
 8002066:	6c13      	ldr	r3, [r2, #64]	; 0x40
 8002068:	f023 5380 	bic.w	r3, r3, #268435456	; 0x10000000
 800206c:	6413      	str	r3, [r2, #64]	; 0x40
 800206e:	e7db      	b.n	8002028 <HAL_RCC_OscConfig+0x2f4>
        __HAL_RCC_PLL_DISABLE();
 8002070:	4b3f      	ldr	r3, [pc, #252]	; (8002170 <HAL_RCC_OscConfig+0x43c>)
 8002072:	2200      	movs	r2, #0
 8002074:	601a      	str	r2, [r3, #0]
        tickstart = HAL_GetTick();
 8002076:	f7fe fae9 	bl	800064c <HAL_GetTick>
 800207a:	4605      	mov	r5, r0
        while(__HAL_RCC_GET_FLAG(RCC_FLAG_PLLRDY) != RESET)
 800207c:	4b3b      	ldr	r3, [pc, #236]	; (800216c <HAL_RCC_OscConfig+0x438>)
 800207e:	681b      	ldr	r3, [r3, #0]
 8002080:	f013 7f00 	tst.w	r3, #33554432	; 0x2000000
 8002084:	d006      	beq.n	8002094 <HAL_RCC_OscConfig+0x360>
          if((HAL_GetTick() - tickstart ) > PLL_TIMEOUT_VALUE)
 8002086:	f7fe fae1 	bl	800064c <HAL_GetTick>
 800208a:	1b40      	subs	r0, r0, r5
 800208c:	2802      	cmp	r0, #2
 800208e:	d9f5      	bls.n	800207c <HAL_RCC_OscConfig+0x348>
            return HAL_TIMEOUT;
 8002090:	2003      	movs	r0, #3
 8002092:	e05a      	b.n	800214a <HAL_RCC_OscConfig+0x416>
        WRITE_REG(RCC->PLLCFGR, (RCC_OscInitStruct->PLL.PLLSource                                            | \
 8002094:	69e3      	ldr	r3, [r4, #28]
 8002096:	6a22      	ldr	r2, [r4, #32]
 8002098:	4313      	orrs	r3, r2
 800209a:	6a62      	ldr	r2, [r4, #36]	; 0x24
 800209c:	ea43 1382 	orr.w	r3, r3, r2, lsl #6
 80020a0:	6aa2      	ldr	r2, [r4, #40]	; 0x28
 80020a2:	0852      	lsrs	r2, r2, #1
 80020a4:	3a01      	subs	r2, #1
 80020a6:	ea43 4302 	orr.w	r3, r3, r2, lsl #16
 80020aa:	6ae2      	ldr	r2, [r4, #44]	; 0x2c
 80020ac:	ea43 6302 	orr.w	r3, r3, r2, lsl #24
 80020b0:	6b22      	ldr	r2, [r4, #48]	; 0x30
 80020b2:	ea43 7302 	orr.w	r3, r3, r2, lsl #28
 80020b6:	4a2d      	ldr	r2, [pc, #180]	; (800216c <HAL_RCC_OscConfig+0x438>)
 80020b8:	6053      	str	r3, [r2, #4]
        __HAL_RCC_PLL_ENABLE();
 80020ba:	4b2d      	ldr	r3, [pc, #180]	; (8002170 <HAL_RCC_OscConfig+0x43c>)
 80020bc:	2201      	movs	r2, #1
 80020be:	601a      	str	r2, [r3, #0]
        tickstart = HAL_GetTick();
 80020c0:	f7fe fac4 	bl	800064c <HAL_GetTick>
 80020c4:	4604      	mov	r4, r0
        while(__HAL_RCC_GET_FLAG(RCC_FLAG_PLLRDY) == RESET)
 80020c6:	4b29      	ldr	r3, [pc, #164]	; (800216c <HAL_RCC_OscConfig+0x438>)
 80020c8:	681b      	ldr	r3, [r3, #0]
 80020ca:	f013 7f00 	tst.w	r3, #33554432	; 0x2000000
 80020ce:	d106      	bne.n	80020de <HAL_RCC_OscConfig+0x3aa>
          if((HAL_GetTick() - tickstart ) > PLL_TIMEOUT_VALUE)
 80020d0:	f7fe fabc 	bl	800064c <HAL_GetTick>
 80020d4:	1b00      	subs	r0, r0, r4
 80020d6:	2802      	cmp	r0, #2
 80020d8:	d9f5      	bls.n	80020c6 <HAL_RCC_OscConfig+0x392>
            return HAL_TIMEOUT;
 80020da:	2003      	movs	r0, #3
 80020dc:	e035      	b.n	800214a <HAL_RCC_OscConfig+0x416>
          return HAL_ERROR;
        }
      }
    }
  }
  return HAL_OK;
 80020de:	2000      	movs	r0, #0
 80020e0:	e033      	b.n	800214a <HAL_RCC_OscConfig+0x416>
 80020e2:	2000      	movs	r0, #0
 80020e4:	e031      	b.n	800214a <HAL_RCC_OscConfig+0x416>
      if((RCC_OscInitStruct->PLL.PLLState) == RCC_PLL_OFF)
 80020e6:	2b01      	cmp	r3, #1
 80020e8:	d031      	beq.n	800214e <HAL_RCC_OscConfig+0x41a>
        pll_config = RCC->PLLCFGR;
 80020ea:	4b20      	ldr	r3, [pc, #128]	; (800216c <HAL_RCC_OscConfig+0x438>)
 80020ec:	685b      	ldr	r3, [r3, #4]
            (READ_BIT(pll_config, RCC_PLLCFGR_PLLSRC) != RCC_OscInitStruct->PLL.PLLSource) ||
 80020ee:	f403 0180 	and.w	r1, r3, #4194304	; 0x400000
 80020f2:	69e2      	ldr	r2, [r4, #28]
        if (((RCC_OscInitStruct->PLL.PLLState) == RCC_PLL_OFF) ||
 80020f4:	4291      	cmp	r1, r2
 80020f6:	d12c      	bne.n	8002152 <HAL_RCC_OscConfig+0x41e>
            (READ_BIT(pll_config, RCC_PLLCFGR_PLLM) != (RCC_OscInitStruct->PLL.PLLM) << RCC_PLLCFGR_PLLM_Pos) ||
 80020f8:	f003 023f 	and.w	r2, r3, #63	; 0x3f
 80020fc:	6a21      	ldr	r1, [r4, #32]
            (READ_BIT(pll_config, RCC_PLLCFGR_PLLSRC) != RCC_OscInitStruct->PLL.PLLSource) ||
 80020fe:	428a      	cmp	r2, r1
 8002100:	d129      	bne.n	8002156 <HAL_RCC_OscConfig+0x422>
            (READ_BIT(pll_config, RCC_PLLCFGR_PLLN) != (RCC_OscInitStruct->PLL.PLLN) << RCC_PLLCFGR_PLLN_Pos) ||
 8002102:	6a61      	ldr	r1, [r4, #36]	; 0x24
            (READ_BIT(pll_config, RCC_PLLCFGR_PLLM) != (RCC_OscInitStruct->PLL.PLLM) << RCC_PLLCFGR_PLLM_Pos) ||
 8002104:	f647 72c0 	movw	r2, #32704	; 0x7fc0
 8002108:	401a      	ands	r2, r3
 800210a:	ebb2 1f81 	cmp.w	r2, r1, lsl #6
 800210e:	d124      	bne.n	800215a <HAL_RCC_OscConfig+0x426>
            (READ_BIT(pll_config, RCC_PLLCFGR_PLLP) != (((RCC_OscInitStruct->PLL.PLLP >> 1U) - 1U)) << RCC_PLLCFGR_PLLP_Pos) ||
 8002110:	f403 3140 	and.w	r1, r3, #196608	; 0x30000
 8002114:	6aa2      	ldr	r2, [r4, #40]	; 0x28
 8002116:	0852      	lsrs	r2, r2, #1
 8002118:	3a01      	subs	r2, #1
            (READ_BIT(pll_config, RCC_PLLCFGR_PLLN) != (RCC_OscInitStruct->PLL.PLLN) << RCC_PLLCFGR_PLLN_Pos) ||
 800211a:	ebb1 4f02 	cmp.w	r1, r2, lsl #16
 800211e:	d11e      	bne.n	800215e <HAL_RCC_OscConfig+0x42a>
            (READ_BIT(pll_config, RCC_PLLCFGR_PLLQ) != (RCC_OscInitStruct->PLL.PLLQ << RCC_PLLCFGR_PLLQ_Pos)) ||
 8002120:	f003 6270 	and.w	r2, r3, #251658240	; 0xf000000
 8002124:	6ae1      	ldr	r1, [r4, #44]	; 0x2c
            (READ_BIT(pll_config, RCC_PLLCFGR_PLLP) != (((RCC_OscInitStruct->PLL.PLLP >> 1U) - 1U)) << RCC_PLLCFGR_PLLP_Pos) ||
 8002126:	ebb2 6f01 	cmp.w	r2, r1, lsl #24
 800212a:	d11a      	bne.n	8002162 <HAL_RCC_OscConfig+0x42e>
            (READ_BIT(pll_config, RCC_PLLCFGR_PLLR) != (RCC_OscInitStruct->PLL.PLLR << RCC_PLLCFGR_PLLR_Pos)))
 800212c:	f003 43e0 	and.w	r3, r3, #1879048192	; 0x70000000
 8002130:	6b22      	ldr	r2, [r4, #48]	; 0x30
            (READ_BIT(pll_config, RCC_PLLCFGR_PLLQ) != (RCC_OscInitStruct->PLL.PLLQ << RCC_PLLCFGR_PLLQ_Pos)) ||
 8002132:	ebb3 7f02 	cmp.w	r3, r2, lsl #28
 8002136:	d116      	bne.n	8002166 <HAL_RCC_OscConfig+0x432>
  return HAL_OK;
 8002138:	2000      	movs	r0, #0
 800213a:	e006      	b.n	800214a <HAL_RCC_OscConfig+0x416>
    return HAL_ERROR;
 800213c:	2001      	movs	r0, #1
}
 800213e:	4770      	bx	lr
        return HAL_ERROR;
 8002140:	2001      	movs	r0, #1
 8002142:	e002      	b.n	800214a <HAL_RCC_OscConfig+0x416>
        return HAL_ERROR;
 8002144:	2001      	movs	r0, #1
 8002146:	e000      	b.n	800214a <HAL_RCC_OscConfig+0x416>
  return HAL_OK;
 8002148:	2000      	movs	r0, #0
}
 800214a:	b002      	add	sp, #8
 800214c:	bd70      	pop	{r4, r5, r6, pc}
        return HAL_ERROR;
 800214e:	2001      	movs	r0, #1
 8002150:	e7fb      	b.n	800214a <HAL_RCC_OscConfig+0x416>
          return HAL_ERROR;
 8002152:	2001      	movs	r0, #1
 8002154:	e7f9      	b.n	800214a <HAL_RCC_OscConfig+0x416>
 8002156:	2001      	movs	r0, #1
 8002158:	e7f7      	b.n	800214a <HAL_RCC_OscConfig+0x416>
 800215a:	2001      	movs	r0, #1
 800215c:	e7f5      	b.n	800214a <HAL_RCC_OscConfig+0x416>
 800215e:	2001      	movs	r0, #1
 8002160:	e7f3      	b.n	800214a <HAL_RCC_OscConfig+0x416>
 8002162:	2001      	movs	r0, #1
 8002164:	e7f1      	b.n	800214a <HAL_RCC_OscConfig+0x416>
 8002166:	2001      	movs	r0, #1
 8002168:	e7ef      	b.n	800214a <HAL_RCC_OscConfig+0x416>
 800216a:	bf00      	nop
 800216c:	40023800 	.word	0x40023800
 8002170:	42470060 	.word	0x42470060

08002174 <TIM_OC1_SetConfig>:
  * @param  TIMx to select the TIM peripheral
  * @param  OC_Config The output configuration structure
  * @retval None
  */
static void TIM_OC1_SetConfig(TIM_TypeDef *TIMx, TIM_OC_InitTypeDef *OC_Config)
{
 8002174:	b430      	push	{r4, r5}
  uint32_t tmpccmrx;
  uint32_t tmpccer;
  uint32_t tmpcr2;

  /* Disable the Channel 1: Reset the CC1E Bit */
  TIMx->CCER &= ~TIM_CCER_CC1E;
 8002176:	6a03      	ldr	r3, [r0, #32]
 8002178:	f023 0301 	bic.w	r3, r3, #1
 800217c:	6203      	str	r3, [r0, #32]

  /* Get the TIMx CCER register value */
  tmpccer = TIMx->CCER;
 800217e:	6a05      	ldr	r5, [r0, #32]
  /* Get the TIMx CR2 register value */
  tmpcr2 =  TIMx->CR2;
 8002180:	6842      	ldr	r2, [r0, #4]

  /* Get the TIMx CCMR1 register value */
  tmpccmrx = TIMx->CCMR1;
 8002182:	6984      	ldr	r4, [r0, #24]

  /* Reset the Output Compare Mode Bits */
  tmpccmrx &= ~TIM_CCMR1_OC1M;
  tmpccmrx &= ~TIM_CCMR1_CC1S;
 8002184:	f024 0473 	bic.w	r4, r4, #115	; 0x73
  /* Select the Output Compare Mode */
  tmpccmrx |= OC_Config->OCMode;
 8002188:	680b      	ldr	r3, [r1, #0]
 800218a:	431c      	orrs	r4, r3

  /* Reset the Output Polarity level */
  tmpccer &= ~TIM_CCER_CC1P;
 800218c:	f025 0502 	bic.w	r5, r5, #2
  /* Set the Output Compare Polarity */
  tmpccer |= OC_Config->OCPolarity;
 8002190:	688b      	ldr	r3, [r1, #8]
 8002192:	432b      	orrs	r3, r5

  if (IS_TIM_CCXN_INSTANCE(TIMx, TIM_CHANNEL_1))
 8002194:	4d10      	ldr	r5, [pc, #64]	; (80021d8 <TIM_OC1_SetConfig+0x64>)
 8002196:	42a8      	cmp	r0, r5
 8002198:	d003      	beq.n	80021a2 <TIM_OC1_SetConfig+0x2e>
 800219a:	f505 6580 	add.w	r5, r5, #1024	; 0x400
 800219e:	42a8      	cmp	r0, r5
 80021a0:	d105      	bne.n	80021ae <TIM_OC1_SetConfig+0x3a>
  {
    /* Check parameters */
    assert_param(IS_TIM_OCN_POLARITY(OC_Config->OCNPolarity));

    /* Reset the Output N Polarity level */
    tmpccer &= ~TIM_CCER_CC1NP;
 80021a2:	f023 0308 	bic.w	r3, r3, #8
    /* Set the Output N Polarity */
    tmpccer |= OC_Config->OCNPolarity;
 80021a6:	68cd      	ldr	r5, [r1, #12]
 80021a8:	432b      	orrs	r3, r5
    /* Reset the Output N State */
    tmpccer &= ~TIM_CCER_CC1NE;
 80021aa:	f023 0304 	bic.w	r3, r3, #4
  }

  if (IS_TIM_BREAK_INSTANCE(TIMx))
 80021ae:	4d0a      	ldr	r5, [pc, #40]	; (80021d8 <TIM_OC1_SetConfig+0x64>)
 80021b0:	42a8      	cmp	r0, r5
 80021b2:	d003      	beq.n	80021bc <TIM_OC1_SetConfig+0x48>
 80021b4:	f505 6580 	add.w	r5, r5, #1024	; 0x400
 80021b8:	42a8      	cmp	r0, r5
 80021ba:	d105      	bne.n	80021c8 <TIM_OC1_SetConfig+0x54>
    assert_param(IS_TIM_OCNIDLE_STATE(OC_Config->OCNIdleState));
    assert_param(IS_TIM_OCIDLE_STATE(OC_Config->OCIdleState));

    /* Reset the Output Compare and Output Compare N IDLE State */
    tmpcr2 &= ~TIM_CR2_OIS1;
    tmpcr2 &= ~TIM_CR2_OIS1N;
 80021bc:	f422 7240 	bic.w	r2, r2, #768	; 0x300
    /* Set the Output Idle state */
    tmpcr2 |= OC_Config->OCIdleState;
 80021c0:	694d      	ldr	r5, [r1, #20]
 80021c2:	4315      	orrs	r5, r2
    /* Set the Output N Idle state */
    tmpcr2 |= OC_Config->OCNIdleState;
 80021c4:	698a      	ldr	r2, [r1, #24]
 80021c6:	432a      	orrs	r2, r5
  }

  /* Write to TIMx CR2 */
  TIMx->CR2 = tmpcr2;
 80021c8:	6042      	str	r2, [r0, #4]

  /* Write to TIMx CCMR1 */
  TIMx->CCMR1 = tmpccmrx;
 80021ca:	6184      	str	r4, [r0, #24]

  /* Set the Capture Compare Register value */
  TIMx->CCR1 = OC_Config->Pulse;
 80021cc:	684a      	ldr	r2, [r1, #4]
 80021ce:	6342      	str	r2, [r0, #52]	; 0x34

  /* Write to TIMx CCER */
  TIMx->CCER = tmpccer;
 80021d0:	6203      	str	r3, [r0, #32]
}
 80021d2:	bc30      	pop	{r4, r5}
 80021d4:	4770      	bx	lr
 80021d6:	bf00      	nop
 80021d8:	40010000 	.word	0x40010000

080021dc <TIM_OC3_SetConfig>:
  * @param  TIMx to select the TIM peripheral
  * @param  OC_Config The output configuration structure
  * @retval None
  */
static void TIM_OC3_SetConfig(TIM_TypeDef *TIMx, TIM_OC_InitTypeDef *OC_Config)
{
 80021dc:	b430      	push	{r4, r5}
  uint32_t tmpccmrx;
  uint32_t tmpccer;
  uint32_t tmpcr2;

  /* Disable the Channel 3: Reset the CC2E Bit */
  TIMx->CCER &= ~TIM_CCER_CC3E;
 80021de:	6a03      	ldr	r3, [r0, #32]
 80021e0:	f423 7380 	bic.w	r3, r3, #256	; 0x100
 80021e4:	6203      	str	r3, [r0, #32]

  /* Get the TIMx CCER register value */
  tmpccer = TIMx->CCER;
 80021e6:	6a03      	ldr	r3, [r0, #32]
  /* Get the TIMx CR2 register value */
  tmpcr2 =  TIMx->CR2;
 80021e8:	6842      	ldr	r2, [r0, #4]

  /* Get the TIMx CCMR2 register value */
  tmpccmrx = TIMx->CCMR2;
 80021ea:	69c4      	ldr	r4, [r0, #28]

  /* Reset the Output Compare mode and Capture/Compare selection Bits */
  tmpccmrx &= ~TIM_CCMR2_OC3M;
  tmpccmrx &= ~TIM_CCMR2_CC3S;
 80021ec:	f024 0473 	bic.w	r4, r4, #115	; 0x73
  /* Select the Output Compare Mode */
  tmpccmrx |= OC_Config->OCMode;
 80021f0:	680d      	ldr	r5, [r1, #0]
 80021f2:	432c      	orrs	r4, r5

  /* Reset the Output Polarity level */
  tmpccer &= ~TIM_CCER_CC3P;
 80021f4:	f423 7300 	bic.w	r3, r3, #512	; 0x200
  /* Set the Output Compare Polarity */
  tmpccer |= (OC_Config->OCPolarity << 8U);
 80021f8:	688d      	ldr	r5, [r1, #8]
 80021fa:	ea43 2305 	orr.w	r3, r3, r5, lsl #8

  if (IS_TIM_CCXN_INSTANCE(TIMx, TIM_CHANNEL_3))
 80021fe:	4d12      	ldr	r5, [pc, #72]	; (8002248 <TIM_OC3_SetConfig+0x6c>)
 8002200:	42a8      	cmp	r0, r5
 8002202:	d003      	beq.n	800220c <TIM_OC3_SetConfig+0x30>
 8002204:	f505 6580 	add.w	r5, r5, #1024	; 0x400
 8002208:	42a8      	cmp	r0, r5
 800220a:	d106      	bne.n	800221a <TIM_OC3_SetConfig+0x3e>
  {
    assert_param(IS_TIM_OCN_POLARITY(OC_Config->OCNPolarity));

    /* Reset the Output N Polarity level */
    tmpccer &= ~TIM_CCER_CC3NP;
 800220c:	f423 6300 	bic.w	r3, r3, #2048	; 0x800
    /* Set the Output N Polarity */
    tmpccer |= (OC_Config->OCNPolarity << 8U);
 8002210:	68cd      	ldr	r5, [r1, #12]
 8002212:	ea43 2305 	orr.w	r3, r3, r5, lsl #8
    /* Reset the Output N State */
    tmpccer &= ~TIM_CCER_CC3NE;
 8002216:	f423 6380 	bic.w	r3, r3, #1024	; 0x400
  }

  if (IS_TIM_BREAK_INSTANCE(TIMx))
 800221a:	4d0b      	ldr	r5, [pc, #44]	; (8002248 <TIM_OC3_SetConfig+0x6c>)
 800221c:	42a8      	cmp	r0, r5
 800221e:	d003      	beq.n	8002228 <TIM_OC3_SetConfig+0x4c>
 8002220:	f505 6580 	add.w	r5, r5, #1024	; 0x400
 8002224:	42a8      	cmp	r0, r5
 8002226:	d107      	bne.n	8002238 <TIM_OC3_SetConfig+0x5c>
    assert_param(IS_TIM_OCNIDLE_STATE(OC_Config->OCNIdleState));
    assert_param(IS_TIM_OCIDLE_STATE(OC_Config->OCIdleState));

    /* Reset the Output Compare and Output Compare N IDLE State */
    tmpcr2 &= ~TIM_CR2_OIS3;
    tmpcr2 &= ~TIM_CR2_OIS3N;
 8002228:	f422 5240 	bic.w	r2, r2, #12288	; 0x3000
    /* Set the Output Idle state */
    tmpcr2 |= (OC_Config->OCIdleState << 4U);
 800222c:	694d      	ldr	r5, [r1, #20]
 800222e:	ea42 1205 	orr.w	r2, r2, r5, lsl #4
    /* Set the Output N Idle state */
    tmpcr2 |= (OC_Config->OCNIdleState << 4U);
 8002232:	698d      	ldr	r5, [r1, #24]
 8002234:	ea42 1205 	orr.w	r2, r2, r5, lsl #4
  }

  /* Write to TIMx CR2 */
  TIMx->CR2 = tmpcr2;
 8002238:	6042      	str	r2, [r0, #4]

  /* Write to TIMx CCMR2 */
  TIMx->CCMR2 = tmpccmrx;
 800223a:	61c4      	str	r4, [r0, #28]

  /* Set the Capture Compare Register value */
  TIMx->CCR3 = OC_Config->Pulse;
 800223c:	684a      	ldr	r2, [r1, #4]
 800223e:	63c2      	str	r2, [r0, #60]	; 0x3c

  /* Write to TIMx CCER */
  TIMx->CCER = tmpccer;
 8002240:	6203      	str	r3, [r0, #32]
}
 8002242:	bc30      	pop	{r4, r5}
 8002244:	4770      	bx	lr
 8002246:	bf00      	nop
 8002248:	40010000 	.word	0x40010000

0800224c <TIM_OC4_SetConfig>:
  * @param  TIMx to select the TIM peripheral
  * @param  OC_Config The output configuration structure
  * @retval None
  */
static void TIM_OC4_SetConfig(TIM_TypeDef *TIMx, TIM_OC_InitTypeDef *OC_Config)
{
 800224c:	b430      	push	{r4, r5}
  uint32_t tmpccmrx;
  uint32_t tmpccer;
  uint32_t tmpcr2;

  /* Disable the Channel 4: Reset the CC4E Bit */
  TIMx->CCER &= ~TIM_CCER_CC4E;
 800224e:	6a03      	ldr	r3, [r0, #32]
 8002250:	f423 5380 	bic.w	r3, r3, #4096	; 0x1000
 8002254:	6203      	str	r3, [r0, #32]

  /* Get the TIMx CCER register value */
  tmpccer = TIMx->CCER;
 8002256:	6a03      	ldr	r3, [r0, #32]
  /* Get the TIMx CR2 register value */
  tmpcr2 =  TIMx->CR2;
 8002258:	6844      	ldr	r4, [r0, #4]

  /* Get the TIMx CCMR2 register value */
  tmpccmrx = TIMx->CCMR2;
 800225a:	69c2      	ldr	r2, [r0, #28]

  /* Reset the Output Compare mode and Capture/Compare selection Bits */
  tmpccmrx &= ~TIM_CCMR2_OC4M;
  tmpccmrx &= ~TIM_CCMR2_CC4S;
 800225c:	f422 42e6 	bic.w	r2, r2, #29440	; 0x7300

  /* Select the Output Compare Mode */
  tmpccmrx |= (OC_Config->OCMode << 8U);
 8002260:	680d      	ldr	r5, [r1, #0]
 8002262:	ea42 2205 	orr.w	r2, r2, r5, lsl #8

  /* Reset the Output Polarity level */
  tmpccer &= ~TIM_CCER_CC4P;
 8002266:	f423 5300 	bic.w	r3, r3, #8192	; 0x2000
  /* Set the Output Compare Polarity */
  tmpccer |= (OC_Config->OCPolarity << 12U);
 800226a:	688d      	ldr	r5, [r1, #8]
 800226c:	ea43 3305 	orr.w	r3, r3, r5, lsl #12

  if (IS_TIM_BREAK_INSTANCE(TIMx))
 8002270:	4d09      	ldr	r5, [pc, #36]	; (8002298 <TIM_OC4_SetConfig+0x4c>)
 8002272:	42a8      	cmp	r0, r5
 8002274:	d003      	beq.n	800227e <TIM_OC4_SetConfig+0x32>
 8002276:	f505 6580 	add.w	r5, r5, #1024	; 0x400
 800227a:	42a8      	cmp	r0, r5
 800227c:	d104      	bne.n	8002288 <TIM_OC4_SetConfig+0x3c>
  {
    /* Check parameters */
    assert_param(IS_TIM_OCIDLE_STATE(OC_Config->OCIdleState));

    /* Reset the Output Compare IDLE State */
    tmpcr2 &= ~TIM_CR2_OIS4;
 800227e:	f424 4480 	bic.w	r4, r4, #16384	; 0x4000

    /* Set the Output Idle state */
    tmpcr2 |= (OC_Config->OCIdleState << 6U);
 8002282:	694d      	ldr	r5, [r1, #20]
 8002284:	ea44 1485 	orr.w	r4, r4, r5, lsl #6
  }

  /* Write to TIMx CR2 */
  TIMx->CR2 = tmpcr2;
 8002288:	6044      	str	r4, [r0, #4]

  /* Write to TIMx CCMR2 */
  TIMx->CCMR2 = tmpccmrx;
 800228a:	61c2      	str	r2, [r0, #28]

  /* Set the Capture Compare Register value */
  TIMx->CCR4 = OC_Config->Pulse;
 800228c:	684a      	ldr	r2, [r1, #4]
 800228e:	6402      	str	r2, [r0, #64]	; 0x40

  /* Write to TIMx CCER */
  TIMx->CCER = tmpccer;
 8002290:	6203      	str	r3, [r0, #32]
}
 8002292:	bc30      	pop	{r4, r5}
 8002294:	4770      	bx	lr
 8002296:	bf00      	nop
 8002298:	40010000 	.word	0x40010000

0800229c <TIM_TI1_ConfigInputStage>:
  * @param  TIM_ICFilter Specifies the Input Capture Filter.
  *          This parameter must be a value between 0x00 and 0x0F.
  * @retval None
  */
static void TIM_TI1_ConfigInputStage(TIM_TypeDef *TIMx, uint32_t TIM_ICPolarity, uint32_t TIM_ICFilter)
{
 800229c:	b430      	push	{r4, r5}
  uint32_t tmpccmr1;
  uint32_t tmpccer;

  /* Disable the Channel 1: Reset the CC1E Bit */
  tmpccer = TIMx->CCER;
 800229e:	6a03      	ldr	r3, [r0, #32]
  TIMx->CCER &= ~TIM_CCER_CC1E;
 80022a0:	6a05      	ldr	r5, [r0, #32]
 80022a2:	f025 0501 	bic.w	r5, r5, #1
 80022a6:	6205      	str	r5, [r0, #32]
  tmpccmr1 = TIMx->CCMR1;
 80022a8:	6984      	ldr	r4, [r0, #24]

  /* Set the filter */
  tmpccmr1 &= ~TIM_CCMR1_IC1F;
 80022aa:	f024 04f0 	bic.w	r4, r4, #240	; 0xf0
  tmpccmr1 |= (TIM_ICFilter << 4U);
 80022ae:	ea44 1402 	orr.w	r4, r4, r2, lsl #4

  /* Select the Polarity and set the CC1E Bit */
  tmpccer &= ~(TIM_CCER_CC1P | TIM_CCER_CC1NP);
 80022b2:	f023 030a 	bic.w	r3, r3, #10
  tmpccer |= TIM_ICPolarity;
 80022b6:	430b      	orrs	r3, r1

  /* Write to TIMx CCMR1 and CCER registers */
  TIMx->CCMR1 = tmpccmr1;
 80022b8:	6184      	str	r4, [r0, #24]
  TIMx->CCER = tmpccer;
 80022ba:	6203      	str	r3, [r0, #32]
}
 80022bc:	bc30      	pop	{r4, r5}
 80022be:	4770      	bx	lr

080022c0 <TIM_TI2_ConfigInputStage>:
  * @param  TIM_ICFilter Specifies the Input Capture Filter.
  *          This parameter must be a value between 0x00 and 0x0F.
  * @retval None
  */
static void TIM_TI2_ConfigInputStage(TIM_TypeDef *TIMx, uint32_t TIM_ICPolarity, uint32_t TIM_ICFilter)
{
 80022c0:	b430      	push	{r4, r5}
  uint32_t tmpccmr1;
  uint32_t tmpccer;

  /* Disable the Channel 2: Reset the CC2E Bit */
  TIMx->CCER &= ~TIM_CCER_CC2E;
 80022c2:	6a05      	ldr	r5, [r0, #32]
 80022c4:	f025 0510 	bic.w	r5, r5, #16
 80022c8:	6205      	str	r5, [r0, #32]
  tmpccmr1 = TIMx->CCMR1;
 80022ca:	6984      	ldr	r4, [r0, #24]
  tmpccer = TIMx->CCER;
 80022cc:	6a03      	ldr	r3, [r0, #32]

  /* Set the filter */
  tmpccmr1 &= ~TIM_CCMR1_IC2F;
 80022ce:	f424 4470 	bic.w	r4, r4, #61440	; 0xf000
  tmpccmr1 |= (TIM_ICFilter << 12U);
 80022d2:	ea44 3402 	orr.w	r4, r4, r2, lsl #12

  /* Select the Polarity and set the CC2E Bit */
  tmpccer &= ~(TIM_CCER_CC2P | TIM_CCER_CC2NP);
 80022d6:	f023 03a0 	bic.w	r3, r3, #160	; 0xa0
  tmpccer |= (TIM_ICPolarity << 4U);
 80022da:	ea43 1301 	orr.w	r3, r3, r1, lsl #4

  /* Write to TIMx CCMR1 and CCER registers */
  TIMx->CCMR1 = tmpccmr1 ;
 80022de:	6184      	str	r4, [r0, #24]
  TIMx->CCER = tmpccer;
 80022e0:	6203      	str	r3, [r0, #32]
}
 80022e2:	bc30      	pop	{r4, r5}
 80022e4:	4770      	bx	lr

080022e6 <TIM_ITRx_SetConfig>:
static void TIM_ITRx_SetConfig(TIM_TypeDef *TIMx, uint32_t InputTriggerSource)
{
  uint32_t tmpsmcr;

  /* Get the TIMx SMCR register value */
  tmpsmcr = TIMx->SMCR;
 80022e6:	6883      	ldr	r3, [r0, #8]
  /* Reset the TS Bits */
  tmpsmcr &= ~TIM_SMCR_TS;
 80022e8:	f023 0370 	bic.w	r3, r3, #112	; 0x70
  /* Set the Input Trigger source and the slave mode*/
  tmpsmcr |= (InputTriggerSource | TIM_SLAVEMODE_EXTERNAL1);
 80022ec:	430b      	orrs	r3, r1
 80022ee:	f043 0307 	orr.w	r3, r3, #7
  /* Write to TIMx SMCR */
  TIMx->SMCR = tmpsmcr;
 80022f2:	6083      	str	r3, [r0, #8]
}
 80022f4:	4770      	bx	lr
	...

080022f8 <HAL_TIM_Base_Start_IT>:
  if (htim->State != HAL_TIM_STATE_READY)
 80022f8:	f890 303d 	ldrb.w	r3, [r0, #61]	; 0x3d
 80022fc:	b2db      	uxtb	r3, r3
 80022fe:	2b01      	cmp	r3, #1
 8002300:	d137      	bne.n	8002372 <HAL_TIM_Base_Start_IT+0x7a>
  htim->State = HAL_TIM_STATE_BUSY;
 8002302:	2302      	movs	r3, #2
 8002304:	f880 303d 	strb.w	r3, [r0, #61]	; 0x3d
  __HAL_TIM_ENABLE_IT(htim, TIM_IT_UPDATE);
 8002308:	6802      	ldr	r2, [r0, #0]
 800230a:	68d3      	ldr	r3, [r2, #12]
 800230c:	f043 0301 	orr.w	r3, r3, #1
 8002310:	60d3      	str	r3, [r2, #12]
  if (IS_TIM_SLAVE_INSTANCE(htim->Instance))
 8002312:	6803      	ldr	r3, [r0, #0]
 8002314:	4a19      	ldr	r2, [pc, #100]	; (800237c <HAL_TIM_Base_Start_IT+0x84>)
 8002316:	4293      	cmp	r3, r2
 8002318:	d020      	beq.n	800235c <HAL_TIM_Base_Start_IT+0x64>
 800231a:	f1b3 4f80 	cmp.w	r3, #1073741824	; 0x40000000
 800231e:	d01d      	beq.n	800235c <HAL_TIM_Base_Start_IT+0x64>
 8002320:	f5a2 427c 	sub.w	r2, r2, #64512	; 0xfc00
 8002324:	4293      	cmp	r3, r2
 8002326:	d019      	beq.n	800235c <HAL_TIM_Base_Start_IT+0x64>
 8002328:	f502 6280 	add.w	r2, r2, #1024	; 0x400
 800232c:	4293      	cmp	r3, r2
 800232e:	d015      	beq.n	800235c <HAL_TIM_Base_Start_IT+0x64>
 8002330:	f502 6280 	add.w	r2, r2, #1024	; 0x400
 8002334:	4293      	cmp	r3, r2
 8002336:	d011      	beq.n	800235c <HAL_TIM_Base_Start_IT+0x64>
 8002338:	f502 4278 	add.w	r2, r2, #63488	; 0xf800
 800233c:	4293      	cmp	r3, r2
 800233e:	d00d      	beq.n	800235c <HAL_TIM_Base_Start_IT+0x64>
 8002340:	f502 5270 	add.w	r2, r2, #15360	; 0x3c00
 8002344:	4293      	cmp	r3, r2
 8002346:	d009      	beq.n	800235c <HAL_TIM_Base_Start_IT+0x64>
 8002348:	f5a2 3294 	sub.w	r2, r2, #75776	; 0x12800
 800234c:	4293      	cmp	r3, r2
 800234e:	d005      	beq.n	800235c <HAL_TIM_Base_Start_IT+0x64>
    __HAL_TIM_ENABLE(htim);
 8002350:	681a      	ldr	r2, [r3, #0]
 8002352:	f042 0201 	orr.w	r2, r2, #1
 8002356:	601a      	str	r2, [r3, #0]
  return HAL_OK;
 8002358:	2000      	movs	r0, #0
 800235a:	4770      	bx	lr
    tmpsmcr = htim->Instance->SMCR & TIM_SMCR_SMS;
 800235c:	689a      	ldr	r2, [r3, #8]
 800235e:	f002 0207 	and.w	r2, r2, #7
    if (!IS_TIM_SLAVEMODE_TRIGGER_ENABLED(tmpsmcr))
 8002362:	2a06      	cmp	r2, #6
 8002364:	d007      	beq.n	8002376 <HAL_TIM_Base_Start_IT+0x7e>
      __HAL_TIM_ENABLE(htim);
 8002366:	681a      	ldr	r2, [r3, #0]
 8002368:	f042 0201 	orr.w	r2, r2, #1
 800236c:	601a      	str	r2, [r3, #0]
  return HAL_OK;
 800236e:	2000      	movs	r0, #0
 8002370:	4770      	bx	lr
    return HAL_ERROR;
 8002372:	2001      	movs	r0, #1
 8002374:	4770      	bx	lr
  return HAL_OK;
 8002376:	2000      	movs	r0, #0
}
 8002378:	4770      	bx	lr
 800237a:	bf00      	nop
 800237c:	40010000 	.word	0x40010000

08002380 <HAL_TIM_PWM_MspInit>:
}
 8002380:	4770      	bx	lr

08002382 <HAL_TIM_OC_DelayElapsedCallback>:
}
 8002382:	4770      	bx	lr

08002384 <HAL_TIM_IC_CaptureCallback>:
}
 8002384:	4770      	bx	lr

08002386 <HAL_TIM_PWM_PulseFinishedCallback>:
}
 8002386:	4770      	bx	lr

08002388 <HAL_TIM_TriggerCallback>:
}
 8002388:	4770      	bx	lr

0800238a <HAL_TIM_IRQHandler>:
{
 800238a:	b510      	push	{r4, lr}
 800238c:	4604      	mov	r4, r0
  if (__HAL_TIM_GET_FLAG(htim, TIM_FLAG_CC1) != RESET)
 800238e:	6803      	ldr	r3, [r0, #0]
 8002390:	691a      	ldr	r2, [r3, #16]
 8002392:	f012 0f02 	tst.w	r2, #2
 8002396:	d011      	beq.n	80023bc <HAL_TIM_IRQHandler+0x32>
    if (__HAL_TIM_GET_IT_SOURCE(htim, TIM_IT_CC1) != RESET)
 8002398:	68da      	ldr	r2, [r3, #12]
 800239a:	f012 0f02 	tst.w	r2, #2
 800239e:	d00d      	beq.n	80023bc <HAL_TIM_IRQHandler+0x32>
        __HAL_TIM_CLEAR_IT(htim, TIM_IT_CC1);
 80023a0:	f06f 0202 	mvn.w	r2, #2
 80023a4:	611a      	str	r2, [r3, #16]
        htim->Channel = HAL_TIM_ACTIVE_CHANNEL_1;
 80023a6:	2301      	movs	r3, #1
 80023a8:	7703      	strb	r3, [r0, #28]
        if ((htim->Instance->CCMR1 & TIM_CCMR1_CC1S) != 0x00U)
 80023aa:	6803      	ldr	r3, [r0, #0]
 80023ac:	699b      	ldr	r3, [r3, #24]
 80023ae:	f013 0f03 	tst.w	r3, #3
 80023b2:	d070      	beq.n	8002496 <HAL_TIM_IRQHandler+0x10c>
          HAL_TIM_IC_CaptureCallback(htim);
 80023b4:	f7ff ffe6 	bl	8002384 <HAL_TIM_IC_CaptureCallback>
        htim->Channel = HAL_TIM_ACTIVE_CHANNEL_CLEARED;
 80023b8:	2300      	movs	r3, #0
 80023ba:	7723      	strb	r3, [r4, #28]
  if (__HAL_TIM_GET_FLAG(htim, TIM_FLAG_CC2) != RESET)
 80023bc:	6823      	ldr	r3, [r4, #0]
 80023be:	691a      	ldr	r2, [r3, #16]
 80023c0:	f012 0f04 	tst.w	r2, #4
 80023c4:	d012      	beq.n	80023ec <HAL_TIM_IRQHandler+0x62>
    if (__HAL_TIM_GET_IT_SOURCE(htim, TIM_IT_CC2) != RESET)
 80023c6:	68da      	ldr	r2, [r3, #12]
 80023c8:	f012 0f04 	tst.w	r2, #4
 80023cc:	d00e      	beq.n	80023ec <HAL_TIM_IRQHandler+0x62>
      __HAL_TIM_CLEAR_IT(htim, TIM_IT_CC2);
 80023ce:	f06f 0204 	mvn.w	r2, #4
 80023d2:	611a      	str	r2, [r3, #16]
      htim->Channel = HAL_TIM_ACTIVE_CHANNEL_2;
 80023d4:	2302      	movs	r3, #2
 80023d6:	7723      	strb	r3, [r4, #28]
      if ((htim->Instance->CCMR1 & TIM_CCMR1_CC2S) != 0x00U)
 80023d8:	6823      	ldr	r3, [r4, #0]
 80023da:	699b      	ldr	r3, [r3, #24]
 80023dc:	f413 7f40 	tst.w	r3, #768	; 0x300
 80023e0:	d05f      	beq.n	80024a2 <HAL_TIM_IRQHandler+0x118>
        HAL_TIM_IC_CaptureCallback(htim);
 80023e2:	4620      	mov	r0, r4
 80023e4:	f7ff ffce 	bl	8002384 <HAL_TIM_IC_CaptureCallback>
      htim->Channel = HAL_TIM_ACTIVE_CHANNEL_CLEARED;
 80023e8:	2300      	movs	r3, #0
 80023ea:	7723      	strb	r3, [r4, #28]
  if (__HAL_TIM_GET_FLAG(htim, TIM_FLAG_CC3) != RESET)
 80023ec:	6823      	ldr	r3, [r4, #0]
 80023ee:	691a      	ldr	r2, [r3, #16]
 80023f0:	f012 0f08 	tst.w	r2, #8
 80023f4:	d012      	beq.n	800241c <HAL_TIM_IRQHandler+0x92>
    if (__HAL_TIM_GET_IT_SOURCE(htim, TIM_IT_CC3) != RESET)
 80023f6:	68da      	ldr	r2, [r3, #12]
 80023f8:	f012 0f08 	tst.w	r2, #8
 80023fc:	d00e      	beq.n	800241c <HAL_TIM_IRQHandler+0x92>
      __HAL_TIM_CLEAR_IT(htim, TIM_IT_CC3);
 80023fe:	f06f 0208 	mvn.w	r2, #8
 8002402:	611a      	str	r2, [r3, #16]
      htim->Channel = HAL_TIM_ACTIVE_CHANNEL_3;
 8002404:	2304      	movs	r3, #4
 8002406:	7723      	strb	r3, [r4, #28]
      if ((htim->Instance->CCMR2 & TIM_CCMR2_CC3S) != 0x00U)
 8002408:	6823      	ldr	r3, [r4, #0]
 800240a:	69db      	ldr	r3, [r3, #28]
 800240c:	f013 0f03 	tst.w	r3, #3
 8002410:	d04e      	beq.n	80024b0 <HAL_TIM_IRQHandler+0x126>
        HAL_TIM_IC_CaptureCallback(htim);
 8002412:	4620      	mov	r0, r4
 8002414:	f7ff ffb6 	bl	8002384 <HAL_TIM_IC_CaptureCallback>
      htim->Channel = HAL_TIM_ACTIVE_CHANNEL_CLEARED;
 8002418:	2300      	movs	r3, #0
 800241a:	7723      	strb	r3, [r4, #28]
  if (__HAL_TIM_GET_FLAG(htim, TIM_FLAG_CC4) != RESET)
 800241c:	6823      	ldr	r3, [r4, #0]
 800241e:	691a      	ldr	r2, [r3, #16]
 8002420:	f012 0f10 	tst.w	r2, #16
 8002424:	d012      	beq.n	800244c <HAL_TIM_IRQHandler+0xc2>
    if (__HAL_TIM_GET_IT_SOURCE(htim, TIM_IT_CC4) != RESET)
 8002426:	68da      	ldr	r2, [r3, #12]
 8002428:	f012 0f10 	tst.w	r2, #16
 800242c:	d00e      	beq.n	800244c <HAL_TIM_IRQHandler+0xc2>
      __HAL_TIM_CLEAR_IT(htim, TIM_IT_CC4);
 800242e:	f06f 0210 	mvn.w	r2, #16
 8002432:	611a      	str	r2, [r3, #16]
      htim->Channel = HAL_TIM_ACTIVE_CHANNEL_4;
 8002434:	2308      	movs	r3, #8
 8002436:	7723      	strb	r3, [r4, #28]
      if ((htim->Instance->CCMR2 & TIM_CCMR2_CC4S) != 0x00U)
 8002438:	6823      	ldr	r3, [r4, #0]
 800243a:	69db      	ldr	r3, [r3, #28]
 800243c:	f413 7f40 	tst.w	r3, #768	; 0x300
 8002440:	d03d      	beq.n	80024be <HAL_TIM_IRQHandler+0x134>
        HAL_TIM_IC_CaptureCallback(htim);
 8002442:	4620      	mov	r0, r4
 8002444:	f7ff ff9e 	bl	8002384 <HAL_TIM_IC_CaptureCallback>
      htim->Channel = HAL_TIM_ACTIVE_CHANNEL_CLEARED;
 8002448:	2300      	movs	r3, #0
 800244a:	7723      	strb	r3, [r4, #28]
  if (__HAL_TIM_GET_FLAG(htim, TIM_FLAG_UPDATE) != RESET)
 800244c:	6823      	ldr	r3, [r4, #0]
 800244e:	691a      	ldr	r2, [r3, #16]
 8002450:	f012 0f01 	tst.w	r2, #1
 8002454:	d003      	beq.n	800245e <HAL_TIM_IRQHandler+0xd4>
    if (__HAL_TIM_GET_IT_SOURCE(htim, TIM_IT_UPDATE) != RESET)
 8002456:	68da      	ldr	r2, [r3, #12]
 8002458:	f012 0f01 	tst.w	r2, #1
 800245c:	d136      	bne.n	80024cc <HAL_TIM_IRQHandler+0x142>
  if (__HAL_TIM_GET_FLAG(htim, TIM_FLAG_BREAK) != RESET)
 800245e:	6823      	ldr	r3, [r4, #0]
 8002460:	691a      	ldr	r2, [r3, #16]
 8002462:	f012 0f80 	tst.w	r2, #128	; 0x80
 8002466:	d003      	beq.n	8002470 <HAL_TIM_IRQHandler+0xe6>
    if (__HAL_TIM_GET_IT_SOURCE(htim, TIM_IT_BREAK) != RESET)
 8002468:	68da      	ldr	r2, [r3, #12]
 800246a:	f012 0f80 	tst.w	r2, #128	; 0x80
 800246e:	d134      	bne.n	80024da <HAL_TIM_IRQHandler+0x150>
  if (__HAL_TIM_GET_FLAG(htim, TIM_FLAG_TRIGGER) != RESET)
 8002470:	6823      	ldr	r3, [r4, #0]
 8002472:	691a      	ldr	r2, [r3, #16]
 8002474:	f012 0f40 	tst.w	r2, #64	; 0x40
 8002478:	d003      	beq.n	8002482 <HAL_TIM_IRQHandler+0xf8>
    if (__HAL_TIM_GET_IT_SOURCE(htim, TIM_IT_TRIGGER) != RESET)
 800247a:	68da      	ldr	r2, [r3, #12]
 800247c:	f012 0f40 	tst.w	r2, #64	; 0x40
 8002480:	d132      	bne.n	80024e8 <HAL_TIM_IRQHandler+0x15e>
  if (__HAL_TIM_GET_FLAG(htim, TIM_FLAG_COM) != RESET)
 8002482:	6823      	ldr	r3, [r4, #0]
 8002484:	691a      	ldr	r2, [r3, #16]
 8002486:	f012 0f20 	tst.w	r2, #32
 800248a:	d003      	beq.n	8002494 <HAL_TIM_IRQHandler+0x10a>
    if (__HAL_TIM_GET_IT_SOURCE(htim, TIM_IT_COM) != RESET)
 800248c:	68da      	ldr	r2, [r3, #12]
 800248e:	f012 0f20 	tst.w	r2, #32
 8002492:	d130      	bne.n	80024f6 <HAL_TIM_IRQHandler+0x16c>
}
 8002494:	bd10      	pop	{r4, pc}
          HAL_TIM_OC_DelayElapsedCallback(htim);
 8002496:	f7ff ff74 	bl	8002382 <HAL_TIM_OC_DelayElapsedCallback>
          HAL_TIM_PWM_PulseFinishedCallback(htim);
 800249a:	4620      	mov	r0, r4
 800249c:	f7ff ff73 	bl	8002386 <HAL_TIM_PWM_PulseFinishedCallback>
 80024a0:	e78a      	b.n	80023b8 <HAL_TIM_IRQHandler+0x2e>
        HAL_TIM_OC_DelayElapsedCallback(htim);
 80024a2:	4620      	mov	r0, r4
 80024a4:	f7ff ff6d 	bl	8002382 <HAL_TIM_OC_DelayElapsedCallback>
        HAL_TIM_PWM_PulseFinishedCallback(htim);
 80024a8:	4620      	mov	r0, r4
 80024aa:	f7ff ff6c 	bl	8002386 <HAL_TIM_PWM_PulseFinishedCallback>
 80024ae:	e79b      	b.n	80023e8 <HAL_TIM_IRQHandler+0x5e>
        HAL_TIM_OC_DelayElapsedCallback(htim);
 80024b0:	4620      	mov	r0, r4
 80024b2:	f7ff ff66 	bl	8002382 <HAL_TIM_OC_DelayElapsedCallback>
        HAL_TIM_PWM_PulseFinishedCallback(htim);
 80024b6:	4620      	mov	r0, r4
 80024b8:	f7ff ff65 	bl	8002386 <HAL_TIM_PWM_PulseFinishedCallback>
 80024bc:	e7ac      	b.n	8002418 <HAL_TIM_IRQHandler+0x8e>
        HAL_TIM_OC_DelayElapsedCallback(htim);
 80024be:	4620      	mov	r0, r4
 80024c0:	f7ff ff5f 	bl	8002382 <HAL_TIM_OC_DelayElapsedCallback>
        HAL_TIM_PWM_PulseFinishedCallback(htim);
 80024c4:	4620      	mov	r0, r4
 80024c6:	f7ff ff5e 	bl	8002386 <HAL_TIM_PWM_PulseFinishedCallback>
 80024ca:	e7bd      	b.n	8002448 <HAL_TIM_IRQHandler+0xbe>
      __HAL_TIM_CLEAR_IT(htim, TIM_IT_UPDATE);
 80024cc:	f06f 0201 	mvn.w	r2, #1
 80024d0:	611a      	str	r2, [r3, #16]
      HAL_TIM_PeriodElapsedCallback(htim);
 80024d2:	4620      	mov	r0, r4
 80024d4:	f000 ff16 	bl	8003304 <HAL_TIM_PeriodElapsedCallback>
 80024d8:	e7c1      	b.n	800245e <HAL_TIM_IRQHandler+0xd4>
      __HAL_TIM_CLEAR_IT(htim, TIM_IT_BREAK);
 80024da:	f06f 0280 	mvn.w	r2, #128	; 0x80
 80024de:	611a      	str	r2, [r3, #16]
      HAL_TIMEx_BreakCallback(htim);
 80024e0:	4620      	mov	r0, r4
 80024e2:	f000 fad6 	bl	8002a92 <HAL_TIMEx_BreakCallback>
 80024e6:	e7c3      	b.n	8002470 <HAL_TIM_IRQHandler+0xe6>
      __HAL_TIM_CLEAR_IT(htim, TIM_IT_TRIGGER);
 80024e8:	f06f 0240 	mvn.w	r2, #64	; 0x40
 80024ec:	611a      	str	r2, [r3, #16]
      HAL_TIM_TriggerCallback(htim);
 80024ee:	4620      	mov	r0, r4
 80024f0:	f7ff ff4a 	bl	8002388 <HAL_TIM_TriggerCallback>
 80024f4:	e7c5      	b.n	8002482 <HAL_TIM_IRQHandler+0xf8>
      __HAL_TIM_CLEAR_IT(htim, TIM_FLAG_COM);
 80024f6:	f06f 0220 	mvn.w	r2, #32
 80024fa:	611a      	str	r2, [r3, #16]
      HAL_TIMEx_CommutCallback(htim);
 80024fc:	4620      	mov	r0, r4
 80024fe:	f000 fac7 	bl	8002a90 <HAL_TIMEx_CommutCallback>
}
 8002502:	e7c7      	b.n	8002494 <HAL_TIM_IRQHandler+0x10a>

08002504 <TIM_Base_SetConfig>:
  tmpcr1 = TIMx->CR1;
 8002504:	6803      	ldr	r3, [r0, #0]
  if (IS_TIM_COUNTER_MODE_SELECT_INSTANCE(TIMx))
 8002506:	4a30      	ldr	r2, [pc, #192]	; (80025c8 <TIM_Base_SetConfig+0xc4>)
 8002508:	4290      	cmp	r0, r2
 800250a:	d012      	beq.n	8002532 <TIM_Base_SetConfig+0x2e>
 800250c:	f1b0 4f80 	cmp.w	r0, #1073741824	; 0x40000000
 8002510:	d00f      	beq.n	8002532 <TIM_Base_SetConfig+0x2e>
 8002512:	f5a2 427c 	sub.w	r2, r2, #64512	; 0xfc00
 8002516:	4290      	cmp	r0, r2
 8002518:	d00b      	beq.n	8002532 <TIM_Base_SetConfig+0x2e>
 800251a:	f502 6280 	add.w	r2, r2, #1024	; 0x400
 800251e:	4290      	cmp	r0, r2
 8002520:	d007      	beq.n	8002532 <TIM_Base_SetConfig+0x2e>
 8002522:	f502 6280 	add.w	r2, r2, #1024	; 0x400
 8002526:	4290      	cmp	r0, r2
 8002528:	d003      	beq.n	8002532 <TIM_Base_SetConfig+0x2e>
 800252a:	f502 4278 	add.w	r2, r2, #63488	; 0xf800
 800252e:	4290      	cmp	r0, r2
 8002530:	d103      	bne.n	800253a <TIM_Base_SetConfig+0x36>
    tmpcr1 &= ~(TIM_CR1_DIR | TIM_CR1_CMS);
 8002532:	f023 0370 	bic.w	r3, r3, #112	; 0x70
    tmpcr1 |= Structure->CounterMode;
 8002536:	684a      	ldr	r2, [r1, #4]
 8002538:	4313      	orrs	r3, r2
  if (IS_TIM_CLOCK_DIVISION_INSTANCE(TIMx))
 800253a:	4a23      	ldr	r2, [pc, #140]	; (80025c8 <TIM_Base_SetConfig+0xc4>)
 800253c:	4290      	cmp	r0, r2
 800253e:	d02a      	beq.n	8002596 <TIM_Base_SetConfig+0x92>
 8002540:	f1b0 4f80 	cmp.w	r0, #1073741824	; 0x40000000
 8002544:	d027      	beq.n	8002596 <TIM_Base_SetConfig+0x92>
 8002546:	f5a2 427c 	sub.w	r2, r2, #64512	; 0xfc00
 800254a:	4290      	cmp	r0, r2
 800254c:	d023      	beq.n	8002596 <TIM_Base_SetConfig+0x92>
 800254e:	f502 6280 	add.w	r2, r2, #1024	; 0x400
 8002552:	4290      	cmp	r0, r2
 8002554:	d01f      	beq.n	8002596 <TIM_Base_SetConfig+0x92>
 8002556:	f502 6280 	add.w	r2, r2, #1024	; 0x400
 800255a:	4290      	cmp	r0, r2
 800255c:	d01b      	beq.n	8002596 <TIM_Base_SetConfig+0x92>
 800255e:	f502 4278 	add.w	r2, r2, #63488	; 0xf800
 8002562:	4290      	cmp	r0, r2
 8002564:	d017      	beq.n	8002596 <TIM_Base_SetConfig+0x92>
 8002566:	f502 5270 	add.w	r2, r2, #15360	; 0x3c00
 800256a:	4290      	cmp	r0, r2
 800256c:	d013      	beq.n	8002596 <TIM_Base_SetConfig+0x92>
 800256e:	f502 6280 	add.w	r2, r2, #1024	; 0x400
 8002572:	4290      	cmp	r0, r2
 8002574:	d00f      	beq.n	8002596 <TIM_Base_SetConfig+0x92>
 8002576:	f502 6280 	add.w	r2, r2, #1024	; 0x400
 800257a:	4290      	cmp	r0, r2
 800257c:	d00b      	beq.n	8002596 <TIM_Base_SetConfig+0x92>
 800257e:	f5a2 3298 	sub.w	r2, r2, #77824	; 0x13000
 8002582:	4290      	cmp	r0, r2
 8002584:	d007      	beq.n	8002596 <TIM_Base_SetConfig+0x92>
 8002586:	f502 6280 	add.w	r2, r2, #1024	; 0x400
 800258a:	4290      	cmp	r0, r2
 800258c:	d003      	beq.n	8002596 <TIM_Base_SetConfig+0x92>
 800258e:	f502 6280 	add.w	r2, r2, #1024	; 0x400
 8002592:	4290      	cmp	r0, r2
 8002594:	d103      	bne.n	800259e <TIM_Base_SetConfig+0x9a>
    tmpcr1 &= ~TIM_CR1_CKD;
 8002596:	f423 7340 	bic.w	r3, r3, #768	; 0x300
    tmpcr1 |= (uint32_t)Structure->ClockDivision;
 800259a:	68ca      	ldr	r2, [r1, #12]
 800259c:	4313      	orrs	r3, r2
  MODIFY_REG(tmpcr1, TIM_CR1_ARPE, Structure->AutoReloadPreload);
 800259e:	f023 0380 	bic.w	r3, r3, #128	; 0x80
 80025a2:	694a      	ldr	r2, [r1, #20]
 80025a4:	4313      	orrs	r3, r2
  TIMx->CR1 = tmpcr1;
 80025a6:	6003      	str	r3, [r0, #0]
  TIMx->ARR = (uint32_t)Structure->Period ;
 80025a8:	688b      	ldr	r3, [r1, #8]
 80025aa:	62c3      	str	r3, [r0, #44]	; 0x2c
  TIMx->PSC = Structure->Prescaler;
 80025ac:	680b      	ldr	r3, [r1, #0]
 80025ae:	6283      	str	r3, [r0, #40]	; 0x28
  if (IS_TIM_REPETITION_COUNTER_INSTANCE(TIMx))
 80025b0:	4b05      	ldr	r3, [pc, #20]	; (80025c8 <TIM_Base_SetConfig+0xc4>)
 80025b2:	4298      	cmp	r0, r3
 80025b4:	d003      	beq.n	80025be <TIM_Base_SetConfig+0xba>
 80025b6:	f503 6380 	add.w	r3, r3, #1024	; 0x400
 80025ba:	4298      	cmp	r0, r3
 80025bc:	d101      	bne.n	80025c2 <TIM_Base_SetConfig+0xbe>
    TIMx->RCR = Structure->RepetitionCounter;
 80025be:	690b      	ldr	r3, [r1, #16]
 80025c0:	6303      	str	r3, [r0, #48]	; 0x30
  TIMx->EGR = TIM_EGR_UG;
 80025c2:	2301      	movs	r3, #1
 80025c4:	6143      	str	r3, [r0, #20]
}
 80025c6:	4770      	bx	lr
 80025c8:	40010000 	.word	0x40010000

080025cc <HAL_TIM_Base_Init>:
  if (htim == NULL)
 80025cc:	b340      	cbz	r0, 8002620 <HAL_TIM_Base_Init+0x54>
{
 80025ce:	b510      	push	{r4, lr}
 80025d0:	4604      	mov	r4, r0
  if (htim->State == HAL_TIM_STATE_RESET)
 80025d2:	f890 303d 	ldrb.w	r3, [r0, #61]	; 0x3d
 80025d6:	b1f3      	cbz	r3, 8002616 <HAL_TIM_Base_Init+0x4a>
  htim->State = HAL_TIM_STATE_BUSY;
 80025d8:	2302      	movs	r3, #2
 80025da:	f884 303d 	strb.w	r3, [r4, #61]	; 0x3d
  TIM_Base_SetConfig(htim->Instance, &htim->Init);
 80025de:	4621      	mov	r1, r4
 80025e0:	f851 0b04 	ldr.w	r0, [r1], #4
 80025e4:	f7ff ff8e 	bl	8002504 <TIM_Base_SetConfig>
  htim->DMABurstState = HAL_DMA_BURST_STATE_READY;
 80025e8:	2301      	movs	r3, #1
 80025ea:	f884 3046 	strb.w	r3, [r4, #70]	; 0x46
  TIM_CHANNEL_STATE_SET_ALL(htim, HAL_TIM_CHANNEL_STATE_READY);
 80025ee:	f884 303e 	strb.w	r3, [r4, #62]	; 0x3e
 80025f2:	f884 303f 	strb.w	r3, [r4, #63]	; 0x3f
 80025f6:	f884 3040 	strb.w	r3, [r4, #64]	; 0x40
 80025fa:	f884 3041 	strb.w	r3, [r4, #65]	; 0x41
  TIM_CHANNEL_N_STATE_SET_ALL(htim, HAL_TIM_CHANNEL_STATE_READY);
 80025fe:	f884 3042 	strb.w	r3, [r4, #66]	; 0x42
 8002602:	f884 3043 	strb.w	r3, [r4, #67]	; 0x43
 8002606:	f884 3044 	strb.w	r3, [r4, #68]	; 0x44
 800260a:	f884 3045 	strb.w	r3, [r4, #69]	; 0x45
  htim->State = HAL_TIM_STATE_READY;
 800260e:	f884 303d 	strb.w	r3, [r4, #61]	; 0x3d
  return HAL_OK;
 8002612:	2000      	movs	r0, #0
}
 8002614:	bd10      	pop	{r4, pc}
    htim->Lock = HAL_UNLOCKED;
 8002616:	f880 303c 	strb.w	r3, [r0, #60]	; 0x3c
    HAL_TIM_Base_MspInit(htim);
 800261a:	f001 fd6b 	bl	80040f4 <HAL_TIM_Base_MspInit>
 800261e:	e7db      	b.n	80025d8 <HAL_TIM_Base_Init+0xc>
    return HAL_ERROR;
 8002620:	2001      	movs	r0, #1
}
 8002622:	4770      	bx	lr

08002624 <HAL_TIM_PWM_Init>:
  if (htim == NULL)
 8002624:	b340      	cbz	r0, 8002678 <HAL_TIM_PWM_Init+0x54>
{
 8002626:	b510      	push	{r4, lr}
 8002628:	4604      	mov	r4, r0
  if (htim->State == HAL_TIM_STATE_RESET)
 800262a:	f890 303d 	ldrb.w	r3, [r0, #61]	; 0x3d
 800262e:	b1f3      	cbz	r3, 800266e <HAL_TIM_PWM_Init+0x4a>
  htim->State = HAL_TIM_STATE_BUSY;
 8002630:	2302      	movs	r3, #2
 8002632:	f884 303d 	strb.w	r3, [r4, #61]	; 0x3d
  TIM_Base_SetConfig(htim->Instance, &htim->Init);
 8002636:	4621      	mov	r1, r4
 8002638:	f851 0b04 	ldr.w	r0, [r1], #4
 800263c:	f7ff ff62 	bl	8002504 <TIM_Base_SetConfig>
  htim->DMABurstState = HAL_DMA_BURST_STATE_READY;
 8002640:	2301      	movs	r3, #1
 8002642:	f884 3046 	strb.w	r3, [r4, #70]	; 0x46
  TIM_CHANNEL_STATE_SET_ALL(htim, HAL_TIM_CHANNEL_STATE_READY);
 8002646:	f884 303e 	strb.w	r3, [r4, #62]	; 0x3e
 800264a:	f884 303f 	strb.w	r3, [r4, #63]	; 0x3f
 800264e:	f884 3040 	strb.w	r3, [r4, #64]	; 0x40
 8002652:	f884 3041 	strb.w	r3, [r4, #65]	; 0x41
  TIM_CHANNEL_N_STATE_SET_ALL(htim, HAL_TIM_CHANNEL_STATE_READY);
 8002656:	f884 3042 	strb.w	r3, [r4, #66]	; 0x42
 800265a:	f884 3043 	strb.w	r3, [r4, #67]	; 0x43
 800265e:	f884 3044 	strb.w	r3, [r4, #68]	; 0x44
 8002662:	f884 3045 	strb.w	r3, [r4, #69]	; 0x45
  htim->State = HAL_TIM_STATE_READY;
 8002666:	f884 303d 	strb.w	r3, [r4, #61]	; 0x3d
  return HAL_OK;
 800266a:	2000      	movs	r0, #0
}
 800266c:	bd10      	pop	{r4, pc}
    htim->Lock = HAL_UNLOCKED;
 800266e:	f880 303c 	strb.w	r3, [r0, #60]	; 0x3c
    HAL_TIM_PWM_MspInit(htim);
 8002672:	f7ff fe85 	bl	8002380 <HAL_TIM_PWM_MspInit>
 8002676:	e7db      	b.n	8002630 <HAL_TIM_PWM_Init+0xc>
    return HAL_ERROR;
 8002678:	2001      	movs	r0, #1
}
 800267a:	4770      	bx	lr

0800267c <TIM_OC2_SetConfig>:
{
 800267c:	b430      	push	{r4, r5}
  TIMx->CCER &= ~TIM_CCER_CC2E;
 800267e:	6a03      	ldr	r3, [r0, #32]
 8002680:	f023 0310 	bic.w	r3, r3, #16
 8002684:	6203      	str	r3, [r0, #32]
  tmpccer = TIMx->CCER;
 8002686:	6a03      	ldr	r3, [r0, #32]
  tmpcr2 =  TIMx->CR2;
 8002688:	6844      	ldr	r4, [r0, #4]
  tmpccmrx = TIMx->CCMR1;
 800268a:	6982      	ldr	r2, [r0, #24]
  tmpccmrx &= ~TIM_CCMR1_CC2S;
 800268c:	f422 42e6 	bic.w	r2, r2, #29440	; 0x7300
  tmpccmrx |= (OC_Config->OCMode << 8U);
 8002690:	680d      	ldr	r5, [r1, #0]
 8002692:	ea42 2205 	orr.w	r2, r2, r5, lsl #8
  tmpccer &= ~TIM_CCER_CC2P;
 8002696:	f023 0320 	bic.w	r3, r3, #32
  tmpccer |= (OC_Config->OCPolarity << 4U);
 800269a:	688d      	ldr	r5, [r1, #8]
 800269c:	ea43 1305 	orr.w	r3, r3, r5, lsl #4
  if (IS_TIM_CCXN_INSTANCE(TIMx, TIM_CHANNEL_2))
 80026a0:	4d11      	ldr	r5, [pc, #68]	; (80026e8 <TIM_OC2_SetConfig+0x6c>)
 80026a2:	42a8      	cmp	r0, r5
 80026a4:	d003      	beq.n	80026ae <TIM_OC2_SetConfig+0x32>
 80026a6:	f505 6580 	add.w	r5, r5, #1024	; 0x400
 80026aa:	42a8      	cmp	r0, r5
 80026ac:	d106      	bne.n	80026bc <TIM_OC2_SetConfig+0x40>
    tmpccer &= ~TIM_CCER_CC2NP;
 80026ae:	f023 0380 	bic.w	r3, r3, #128	; 0x80
    tmpccer |= (OC_Config->OCNPolarity << 4U);
 80026b2:	68cd      	ldr	r5, [r1, #12]
 80026b4:	ea43 1305 	orr.w	r3, r3, r5, lsl #4
    tmpccer &= ~TIM_CCER_CC2NE;
 80026b8:	f023 0340 	bic.w	r3, r3, #64	; 0x40
  if (IS_TIM_BREAK_INSTANCE(TIMx))
 80026bc:	4d0a      	ldr	r5, [pc, #40]	; (80026e8 <TIM_OC2_SetConfig+0x6c>)
 80026be:	42a8      	cmp	r0, r5
 80026c0:	d003      	beq.n	80026ca <TIM_OC2_SetConfig+0x4e>
 80026c2:	f505 6580 	add.w	r5, r5, #1024	; 0x400
 80026c6:	42a8      	cmp	r0, r5
 80026c8:	d107      	bne.n	80026da <TIM_OC2_SetConfig+0x5e>
    tmpcr2 &= ~TIM_CR2_OIS2N;
 80026ca:	f424 6440 	bic.w	r4, r4, #3072	; 0xc00
    tmpcr2 |= (OC_Config->OCIdleState << 2U);
 80026ce:	694d      	ldr	r5, [r1, #20]
 80026d0:	ea44 0485 	orr.w	r4, r4, r5, lsl #2
    tmpcr2 |= (OC_Config->OCNIdleState << 2U);
 80026d4:	698d      	ldr	r5, [r1, #24]
 80026d6:	ea44 0485 	orr.w	r4, r4, r5, lsl #2
  TIMx->CR2 = tmpcr2;
 80026da:	6044      	str	r4, [r0, #4]
  TIMx->CCMR1 = tmpccmrx;
 80026dc:	6182      	str	r2, [r0, #24]
  TIMx->CCR2 = OC_Config->Pulse;
 80026de:	684a      	ldr	r2, [r1, #4]
 80026e0:	6382      	str	r2, [r0, #56]	; 0x38
  TIMx->CCER = tmpccer;
 80026e2:	6203      	str	r3, [r0, #32]
}
 80026e4:	bc30      	pop	{r4, r5}
 80026e6:	4770      	bx	lr
 80026e8:	40010000 	.word	0x40010000

080026ec <HAL_TIM_PWM_ConfigChannel>:
{
 80026ec:	b538      	push	{r3, r4, r5, lr}
  __HAL_LOCK(htim);
 80026ee:	f890 303c 	ldrb.w	r3, [r0, #60]	; 0x3c
 80026f2:	2b01      	cmp	r3, #1
 80026f4:	d066      	beq.n	80027c4 <HAL_TIM_PWM_ConfigChannel+0xd8>
 80026f6:	4604      	mov	r4, r0
 80026f8:	460d      	mov	r5, r1
 80026fa:	2301      	movs	r3, #1
 80026fc:	f880 303c 	strb.w	r3, [r0, #60]	; 0x3c
  switch (Channel)
 8002700:	2a0c      	cmp	r2, #12
 8002702:	d85a      	bhi.n	80027ba <HAL_TIM_PWM_ConfigChannel+0xce>
 8002704:	e8df f002 	tbb	[pc, r2]
 8002708:	59595907 	.word	0x59595907
 800270c:	5959591b 	.word	0x5959591b
 8002710:	59595930 	.word	0x59595930
 8002714:	44          	.byte	0x44
 8002715:	00          	.byte	0x00
      TIM_OC1_SetConfig(htim->Instance, sConfig);
 8002716:	6800      	ldr	r0, [r0, #0]
 8002718:	f7ff fd2c 	bl	8002174 <TIM_OC1_SetConfig>
      htim->Instance->CCMR1 |= TIM_CCMR1_OC1PE;
 800271c:	6822      	ldr	r2, [r4, #0]
 800271e:	6993      	ldr	r3, [r2, #24]
 8002720:	f043 0308 	orr.w	r3, r3, #8
 8002724:	6193      	str	r3, [r2, #24]
      htim->Instance->CCMR1 &= ~TIM_CCMR1_OC1FE;
 8002726:	6822      	ldr	r2, [r4, #0]
 8002728:	6993      	ldr	r3, [r2, #24]
 800272a:	f023 0304 	bic.w	r3, r3, #4
 800272e:	6193      	str	r3, [r2, #24]
      htim->Instance->CCMR1 |= sConfig->OCFastMode;
 8002730:	6822      	ldr	r2, [r4, #0]
 8002732:	6993      	ldr	r3, [r2, #24]
 8002734:	6929      	ldr	r1, [r5, #16]
 8002736:	430b      	orrs	r3, r1
 8002738:	6193      	str	r3, [r2, #24]
  HAL_StatusTypeDef status = HAL_OK;
 800273a:	2000      	movs	r0, #0
      break;
 800273c:	e03e      	b.n	80027bc <HAL_TIM_PWM_ConfigChannel+0xd0>
      TIM_OC2_SetConfig(htim->Instance, sConfig);
 800273e:	6800      	ldr	r0, [r0, #0]
 8002740:	f7ff ff9c 	bl	800267c <TIM_OC2_SetConfig>
      htim->Instance->CCMR1 |= TIM_CCMR1_OC2PE;
 8002744:	6822      	ldr	r2, [r4, #0]
 8002746:	6993      	ldr	r3, [r2, #24]
 8002748:	f443 6300 	orr.w	r3, r3, #2048	; 0x800
 800274c:	6193      	str	r3, [r2, #24]
      htim->Instance->CCMR1 &= ~TIM_CCMR1_OC2FE;
 800274e:	6822      	ldr	r2, [r4, #0]
 8002750:	6993      	ldr	r3, [r2, #24]
 8002752:	f423 6380 	bic.w	r3, r3, #1024	; 0x400
 8002756:	6193      	str	r3, [r2, #24]
      htim->Instance->CCMR1 |= sConfig->OCFastMode << 8U;
 8002758:	6822      	ldr	r2, [r4, #0]
 800275a:	6993      	ldr	r3, [r2, #24]
 800275c:	6929      	ldr	r1, [r5, #16]
 800275e:	ea43 2301 	orr.w	r3, r3, r1, lsl #8
 8002762:	6193      	str	r3, [r2, #24]
  HAL_StatusTypeDef status = HAL_OK;
 8002764:	2000      	movs	r0, #0
      break;
 8002766:	e029      	b.n	80027bc <HAL_TIM_PWM_ConfigChannel+0xd0>
      TIM_OC3_SetConfig(htim->Instance, sConfig);
 8002768:	6800      	ldr	r0, [r0, #0]
 800276a:	f7ff fd37 	bl	80021dc <TIM_OC3_SetConfig>
      htim->Instance->CCMR2 |= TIM_CCMR2_OC3PE;
 800276e:	6822      	ldr	r2, [r4, #0]
 8002770:	69d3      	ldr	r3, [r2, #28]
 8002772:	f043 0308 	orr.w	r3, r3, #8
 8002776:	61d3      	str	r3, [r2, #28]
      htim->Instance->CCMR2 &= ~TIM_CCMR2_OC3FE;
 8002778:	6822      	ldr	r2, [r4, #0]
 800277a:	69d3      	ldr	r3, [r2, #28]
 800277c:	f023 0304 	bic.w	r3, r3, #4
 8002780:	61d3      	str	r3, [r2, #28]
      htim->Instance->CCMR2 |= sConfig->OCFastMode;
 8002782:	6822      	ldr	r2, [r4, #0]
 8002784:	69d3      	ldr	r3, [r2, #28]
 8002786:	6929      	ldr	r1, [r5, #16]
 8002788:	430b      	orrs	r3, r1
 800278a:	61d3      	str	r3, [r2, #28]
  HAL_StatusTypeDef status = HAL_OK;
 800278c:	2000      	movs	r0, #0
      break;
 800278e:	e015      	b.n	80027bc <HAL_TIM_PWM_ConfigChannel+0xd0>
      TIM_OC4_SetConfig(htim->Instance, sConfig);
 8002790:	6800      	ldr	r0, [r0, #0]
 8002792:	f7ff fd5b 	bl	800224c <TIM_OC4_SetConfig>
      htim->Instance->CCMR2 |= TIM_CCMR2_OC4PE;
 8002796:	6822      	ldr	r2, [r4, #0]
 8002798:	69d3      	ldr	r3, [r2, #28]
 800279a:	f443 6300 	orr.w	r3, r3, #2048	; 0x800
 800279e:	61d3      	str	r3, [r2, #28]
      htim->Instance->CCMR2 &= ~TIM_CCMR2_OC4FE;
 80027a0:	6822      	ldr	r2, [r4, #0]
 80027a2:	69d3      	ldr	r3, [r2, #28]
 80027a4:	f423 6380 	bic.w	r3, r3, #1024	; 0x400
 80027a8:	61d3      	str	r3, [r2, #28]
      htim->Instance->CCMR2 |= sConfig->OCFastMode << 8U;
 80027aa:	6822      	ldr	r2, [r4, #0]
 80027ac:	69d3      	ldr	r3, [r2, #28]
 80027ae:	6929      	ldr	r1, [r5, #16]
 80027b0:	ea43 2301 	orr.w	r3, r3, r1, lsl #8
 80027b4:	61d3      	str	r3, [r2, #28]
  HAL_StatusTypeDef status = HAL_OK;
 80027b6:	2000      	movs	r0, #0
      break;
 80027b8:	e000      	b.n	80027bc <HAL_TIM_PWM_ConfigChannel+0xd0>
  __HAL_LOCK(htim);
 80027ba:	2001      	movs	r0, #1
  __HAL_UNLOCK(htim);
 80027bc:	2300      	movs	r3, #0
 80027be:	f884 303c 	strb.w	r3, [r4, #60]	; 0x3c
}
 80027c2:	bd38      	pop	{r3, r4, r5, pc}
  __HAL_LOCK(htim);
 80027c4:	2002      	movs	r0, #2
 80027c6:	e7fc      	b.n	80027c2 <HAL_TIM_PWM_ConfigChannel+0xd6>

080027c8 <TIM_ETR_SetConfig>:
  *          This parameter must be a value between 0x00 and 0x0F
  * @retval None
  */
void TIM_ETR_SetConfig(TIM_TypeDef *TIMx, uint32_t TIM_ExtTRGPrescaler,
                       uint32_t TIM_ExtTRGPolarity, uint32_t ExtTRGFilter)
{
 80027c8:	b410      	push	{r4}
  uint32_t tmpsmcr;

  tmpsmcr = TIMx->SMCR;
 80027ca:	6884      	ldr	r4, [r0, #8]

  /* Reset the ETR Bits */
  tmpsmcr &= ~(TIM_SMCR_ETF | TIM_SMCR_ETPS | TIM_SMCR_ECE | TIM_SMCR_ETP);
 80027cc:	f424 447f 	bic.w	r4, r4, #65280	; 0xff00

  /* Set the Prescaler, the Filter value and the Polarity */
  tmpsmcr |= (uint32_t)(TIM_ExtTRGPrescaler | (TIM_ExtTRGPolarity | (ExtTRGFilter << 8U)));
 80027d0:	ea42 2203 	orr.w	r2, r2, r3, lsl #8
 80027d4:	430a      	orrs	r2, r1
 80027d6:	4322      	orrs	r2, r4

  /* Write to TIMx SMCR */
  TIMx->SMCR = tmpsmcr;
 80027d8:	6082      	str	r2, [r0, #8]
}
 80027da:	f85d 4b04 	ldr.w	r4, [sp], #4
 80027de:	4770      	bx	lr

080027e0 <HAL_TIM_ConfigClockSource>:
  __HAL_LOCK(htim);
 80027e0:	f890 303c 	ldrb.w	r3, [r0, #60]	; 0x3c
 80027e4:	2b01      	cmp	r3, #1
 80027e6:	d078      	beq.n	80028da <HAL_TIM_ConfigClockSource+0xfa>
{
 80027e8:	b510      	push	{r4, lr}
 80027ea:	4604      	mov	r4, r0
  __HAL_LOCK(htim);
 80027ec:	2301      	movs	r3, #1
 80027ee:	f880 303c 	strb.w	r3, [r0, #60]	; 0x3c
  htim->State = HAL_TIM_STATE_BUSY;
 80027f2:	2302      	movs	r3, #2
 80027f4:	f880 303d 	strb.w	r3, [r0, #61]	; 0x3d
  tmpsmcr = htim->Instance->SMCR;
 80027f8:	6802      	ldr	r2, [r0, #0]
 80027fa:	6893      	ldr	r3, [r2, #8]
  tmpsmcr &= ~(TIM_SMCR_ETF | TIM_SMCR_ETPS | TIM_SMCR_ECE | TIM_SMCR_ETP);
 80027fc:	f423 437f 	bic.w	r3, r3, #65280	; 0xff00
 8002800:	f023 0377 	bic.w	r3, r3, #119	; 0x77
  htim->Instance->SMCR = tmpsmcr;
 8002804:	6093      	str	r3, [r2, #8]
  switch (sClockSourceConfig->ClockSource)
 8002806:	680b      	ldr	r3, [r1, #0]
 8002808:	2b60      	cmp	r3, #96	; 0x60
 800280a:	d04c      	beq.n	80028a6 <HAL_TIM_ConfigClockSource+0xc6>
 800280c:	d829      	bhi.n	8002862 <HAL_TIM_ConfigClockSource+0x82>
 800280e:	2b40      	cmp	r3, #64	; 0x40
 8002810:	d054      	beq.n	80028bc <HAL_TIM_ConfigClockSource+0xdc>
 8002812:	d90c      	bls.n	800282e <HAL_TIM_ConfigClockSource+0x4e>
 8002814:	2b50      	cmp	r3, #80	; 0x50
 8002816:	d122      	bne.n	800285e <HAL_TIM_ConfigClockSource+0x7e>
      TIM_TI1_ConfigInputStage(htim->Instance,
 8002818:	68ca      	ldr	r2, [r1, #12]
 800281a:	6849      	ldr	r1, [r1, #4]
 800281c:	6800      	ldr	r0, [r0, #0]
 800281e:	f7ff fd3d 	bl	800229c <TIM_TI1_ConfigInputStage>
      TIM_ITRx_SetConfig(htim->Instance, TIM_CLOCKSOURCE_TI1);
 8002822:	2150      	movs	r1, #80	; 0x50
 8002824:	6820      	ldr	r0, [r4, #0]
 8002826:	f7ff fd5e 	bl	80022e6 <TIM_ITRx_SetConfig>
  HAL_StatusTypeDef status = HAL_OK;
 800282a:	2000      	movs	r0, #0
      break;
 800282c:	e005      	b.n	800283a <HAL_TIM_ConfigClockSource+0x5a>
  switch (sClockSourceConfig->ClockSource)
 800282e:	2b20      	cmp	r3, #32
 8002830:	d00d      	beq.n	800284e <HAL_TIM_ConfigClockSource+0x6e>
 8002832:	d909      	bls.n	8002848 <HAL_TIM_ConfigClockSource+0x68>
 8002834:	2b30      	cmp	r3, #48	; 0x30
 8002836:	d00a      	beq.n	800284e <HAL_TIM_ConfigClockSource+0x6e>
      status = HAL_ERROR;
 8002838:	2001      	movs	r0, #1
  htim->State = HAL_TIM_STATE_READY;
 800283a:	2301      	movs	r3, #1
 800283c:	f884 303d 	strb.w	r3, [r4, #61]	; 0x3d
  __HAL_UNLOCK(htim);
 8002840:	2300      	movs	r3, #0
 8002842:	f884 303c 	strb.w	r3, [r4, #60]	; 0x3c
}
 8002846:	bd10      	pop	{r4, pc}
  switch (sClockSourceConfig->ClockSource)
 8002848:	b10b      	cbz	r3, 800284e <HAL_TIM_ConfigClockSource+0x6e>
 800284a:	2b10      	cmp	r3, #16
 800284c:	d105      	bne.n	800285a <HAL_TIM_ConfigClockSource+0x7a>
      TIM_ITRx_SetConfig(htim->Instance, sClockSourceConfig->ClockSource);
 800284e:	4619      	mov	r1, r3
 8002850:	6820      	ldr	r0, [r4, #0]
 8002852:	f7ff fd48 	bl	80022e6 <TIM_ITRx_SetConfig>
  HAL_StatusTypeDef status = HAL_OK;
 8002856:	2000      	movs	r0, #0
      break;
 8002858:	e7ef      	b.n	800283a <HAL_TIM_ConfigClockSource+0x5a>
      status = HAL_ERROR;
 800285a:	2001      	movs	r0, #1
 800285c:	e7ed      	b.n	800283a <HAL_TIM_ConfigClockSource+0x5a>
 800285e:	2001      	movs	r0, #1
 8002860:	e7eb      	b.n	800283a <HAL_TIM_ConfigClockSource+0x5a>
  switch (sClockSourceConfig->ClockSource)
 8002862:	f5b3 5f80 	cmp.w	r3, #4096	; 0x1000
 8002866:	d034      	beq.n	80028d2 <HAL_TIM_ConfigClockSource+0xf2>
 8002868:	f5b3 5f00 	cmp.w	r3, #8192	; 0x2000
 800286c:	d10c      	bne.n	8002888 <HAL_TIM_ConfigClockSource+0xa8>
      TIM_ETR_SetConfig(htim->Instance,
 800286e:	68cb      	ldr	r3, [r1, #12]
 8002870:	684a      	ldr	r2, [r1, #4]
 8002872:	6889      	ldr	r1, [r1, #8]
 8002874:	6800      	ldr	r0, [r0, #0]
 8002876:	f7ff ffa7 	bl	80027c8 <TIM_ETR_SetConfig>
      htim->Instance->SMCR |= TIM_SMCR_ECE;
 800287a:	6822      	ldr	r2, [r4, #0]
 800287c:	6893      	ldr	r3, [r2, #8]
 800287e:	f443 4380 	orr.w	r3, r3, #16384	; 0x4000
 8002882:	6093      	str	r3, [r2, #8]
  HAL_StatusTypeDef status = HAL_OK;
 8002884:	2000      	movs	r0, #0
      break;
 8002886:	e7d8      	b.n	800283a <HAL_TIM_ConfigClockSource+0x5a>
  switch (sClockSourceConfig->ClockSource)
 8002888:	2b70      	cmp	r3, #112	; 0x70
 800288a:	d124      	bne.n	80028d6 <HAL_TIM_ConfigClockSource+0xf6>
      TIM_ETR_SetConfig(htim->Instance,
 800288c:	68cb      	ldr	r3, [r1, #12]
 800288e:	684a      	ldr	r2, [r1, #4]
 8002890:	6889      	ldr	r1, [r1, #8]
 8002892:	6800      	ldr	r0, [r0, #0]
 8002894:	f7ff ff98 	bl	80027c8 <TIM_ETR_SetConfig>
      tmpsmcr = htim->Instance->SMCR;
 8002898:	6822      	ldr	r2, [r4, #0]
 800289a:	6893      	ldr	r3, [r2, #8]
      tmpsmcr |= (TIM_SLAVEMODE_EXTERNAL1 | TIM_CLOCKSOURCE_ETRMODE1);
 800289c:	f043 0377 	orr.w	r3, r3, #119	; 0x77
      htim->Instance->SMCR = tmpsmcr;
 80028a0:	6093      	str	r3, [r2, #8]
  HAL_StatusTypeDef status = HAL_OK;
 80028a2:	2000      	movs	r0, #0
      break;
 80028a4:	e7c9      	b.n	800283a <HAL_TIM_ConfigClockSource+0x5a>
      TIM_TI2_ConfigInputStage(htim->Instance,
 80028a6:	68ca      	ldr	r2, [r1, #12]
 80028a8:	6849      	ldr	r1, [r1, #4]
 80028aa:	6800      	ldr	r0, [r0, #0]
 80028ac:	f7ff fd08 	bl	80022c0 <TIM_TI2_ConfigInputStage>
      TIM_ITRx_SetConfig(htim->Instance, TIM_CLOCKSOURCE_TI2);
 80028b0:	2160      	movs	r1, #96	; 0x60
 80028b2:	6820      	ldr	r0, [r4, #0]
 80028b4:	f7ff fd17 	bl	80022e6 <TIM_ITRx_SetConfig>
  HAL_StatusTypeDef status = HAL_OK;
 80028b8:	2000      	movs	r0, #0
      break;
 80028ba:	e7be      	b.n	800283a <HAL_TIM_ConfigClockSource+0x5a>
      TIM_TI1_ConfigInputStage(htim->Instance,
 80028bc:	68ca      	ldr	r2, [r1, #12]
 80028be:	6849      	ldr	r1, [r1, #4]
 80028c0:	6800      	ldr	r0, [r0, #0]
 80028c2:	f7ff fceb 	bl	800229c <TIM_TI1_ConfigInputStage>
      TIM_ITRx_SetConfig(htim->Instance, TIM_CLOCKSOURCE_TI1ED);
 80028c6:	2140      	movs	r1, #64	; 0x40
 80028c8:	6820      	ldr	r0, [r4, #0]
 80028ca:	f7ff fd0c 	bl	80022e6 <TIM_ITRx_SetConfig>
  HAL_StatusTypeDef status = HAL_OK;
 80028ce:	2000      	movs	r0, #0
      break;
 80028d0:	e7b3      	b.n	800283a <HAL_TIM_ConfigClockSource+0x5a>
  switch (sClockSourceConfig->ClockSource)
 80028d2:	2000      	movs	r0, #0
 80028d4:	e7b1      	b.n	800283a <HAL_TIM_ConfigClockSource+0x5a>
      status = HAL_ERROR;
 80028d6:	2001      	movs	r0, #1
 80028d8:	e7af      	b.n	800283a <HAL_TIM_ConfigClockSource+0x5a>
  __HAL_LOCK(htim);
 80028da:	2002      	movs	r0, #2
}
 80028dc:	4770      	bx	lr

080028de <TIM_CCxChannelCmd>:
  * @param  ChannelState specifies the TIM Channel CCxE bit new state.
  *          This parameter can be: TIM_CCx_ENABLE or TIM_CCx_DISABLE.
  * @retval None
  */
void TIM_CCxChannelCmd(TIM_TypeDef *TIMx, uint32_t Channel, uint32_t ChannelState)
{
 80028de:	b410      	push	{r4}

  /* Check the parameters */
  assert_param(IS_TIM_CC1_INSTANCE(TIMx));
  assert_param(IS_TIM_CHANNELS(Channel));

  tmp = TIM_CCER_CC1E << (Channel & 0x1FU); /* 0x1FU = 31 bits max shift */
 80028e0:	f001 011f 	and.w	r1, r1, #31
 80028e4:	2301      	movs	r3, #1
 80028e6:	fa03 f401 	lsl.w	r4, r3, r1

  /* Reset the CCxE Bit */
  TIMx->CCER &= ~tmp;
 80028ea:	6a03      	ldr	r3, [r0, #32]
 80028ec:	ea23 0304 	bic.w	r3, r3, r4
 80028f0:	6203      	str	r3, [r0, #32]

  /* Set or reset the CCxE Bit */
  TIMx->CCER |= (uint32_t)(ChannelState << (Channel & 0x1FU)); /* 0x1FU = 31 bits max shift */
 80028f2:	6a03      	ldr	r3, [r0, #32]
 80028f4:	fa02 f101 	lsl.w	r1, r2, r1
 80028f8:	430b      	orrs	r3, r1
 80028fa:	6203      	str	r3, [r0, #32]
}
 80028fc:	f85d 4b04 	ldr.w	r4, [sp], #4
 8002900:	4770      	bx	lr
	...

08002904 <HAL_TIM_PWM_Start>:
{
 8002904:	b510      	push	{r4, lr}
 8002906:	4604      	mov	r4, r0
  if (TIM_CHANNEL_STATE_GET(htim, Channel) != HAL_TIM_CHANNEL_STATE_READY)
 8002908:	4608      	mov	r0, r1
 800290a:	2900      	cmp	r1, #0
 800290c:	d142      	bne.n	8002994 <HAL_TIM_PWM_Start+0x90>
 800290e:	f894 303e 	ldrb.w	r3, [r4, #62]	; 0x3e
 8002912:	b2db      	uxtb	r3, r3
 8002914:	3b01      	subs	r3, #1
 8002916:	bf18      	it	ne
 8002918:	2301      	movne	r3, #1
 800291a:	2b00      	cmp	r3, #0
 800291c:	d16e      	bne.n	80029fc <HAL_TIM_PWM_Start+0xf8>
  TIM_CHANNEL_STATE_SET(htim, Channel, HAL_TIM_CHANNEL_STATE_BUSY);
 800291e:	2800      	cmp	r0, #0
 8002920:	d151      	bne.n	80029c6 <HAL_TIM_PWM_Start+0xc2>
 8002922:	2302      	movs	r3, #2
 8002924:	f884 303e 	strb.w	r3, [r4, #62]	; 0x3e
  TIM_CCxChannelCmd(htim->Instance, Channel, TIM_CCx_ENABLE);
 8002928:	2201      	movs	r2, #1
 800292a:	4601      	mov	r1, r0
 800292c:	6820      	ldr	r0, [r4, #0]
 800292e:	f7ff ffd6 	bl	80028de <TIM_CCxChannelCmd>
  if (IS_TIM_BREAK_INSTANCE(htim->Instance) != RESET)
 8002932:	6823      	ldr	r3, [r4, #0]
 8002934:	4a33      	ldr	r2, [pc, #204]	; (8002a04 <HAL_TIM_PWM_Start+0x100>)
 8002936:	4293      	cmp	r3, r2
 8002938:	d003      	beq.n	8002942 <HAL_TIM_PWM_Start+0x3e>
 800293a:	f502 6280 	add.w	r2, r2, #1024	; 0x400
 800293e:	4293      	cmp	r3, r2
 8002940:	d103      	bne.n	800294a <HAL_TIM_PWM_Start+0x46>
    __HAL_TIM_MOE_ENABLE(htim);
 8002942:	6c5a      	ldr	r2, [r3, #68]	; 0x44
 8002944:	f442 4200 	orr.w	r2, r2, #32768	; 0x8000
 8002948:	645a      	str	r2, [r3, #68]	; 0x44
  if (IS_TIM_SLAVE_INSTANCE(htim->Instance))
 800294a:	6823      	ldr	r3, [r4, #0]
 800294c:	4a2d      	ldr	r2, [pc, #180]	; (8002a04 <HAL_TIM_PWM_Start+0x100>)
 800294e:	4293      	cmp	r3, r2
 8002950:	d049      	beq.n	80029e6 <HAL_TIM_PWM_Start+0xe2>
 8002952:	f1b3 4f80 	cmp.w	r3, #1073741824	; 0x40000000
 8002956:	d046      	beq.n	80029e6 <HAL_TIM_PWM_Start+0xe2>
 8002958:	f5a2 427c 	sub.w	r2, r2, #64512	; 0xfc00
 800295c:	4293      	cmp	r3, r2
 800295e:	d042      	beq.n	80029e6 <HAL_TIM_PWM_Start+0xe2>
 8002960:	f502 6280 	add.w	r2, r2, #1024	; 0x400
 8002964:	4293      	cmp	r3, r2
 8002966:	d03e      	beq.n	80029e6 <HAL_TIM_PWM_Start+0xe2>
 8002968:	f502 6280 	add.w	r2, r2, #1024	; 0x400
 800296c:	4293      	cmp	r3, r2
 800296e:	d03a      	beq.n	80029e6 <HAL_TIM_PWM_Start+0xe2>
 8002970:	f502 4278 	add.w	r2, r2, #63488	; 0xf800
 8002974:	4293      	cmp	r3, r2
 8002976:	d036      	beq.n	80029e6 <HAL_TIM_PWM_Start+0xe2>
 8002978:	f502 5270 	add.w	r2, r2, #15360	; 0x3c00
 800297c:	4293      	cmp	r3, r2
 800297e:	d032      	beq.n	80029e6 <HAL_TIM_PWM_Start+0xe2>
 8002980:	f5a2 3294 	sub.w	r2, r2, #75776	; 0x12800
 8002984:	4293      	cmp	r3, r2
 8002986:	d02e      	beq.n	80029e6 <HAL_TIM_PWM_Start+0xe2>
    __HAL_TIM_ENABLE(htim);
 8002988:	681a      	ldr	r2, [r3, #0]
 800298a:	f042 0201 	orr.w	r2, r2, #1
 800298e:	601a      	str	r2, [r3, #0]
  return HAL_OK;
 8002990:	2000      	movs	r0, #0
 8002992:	e032      	b.n	80029fa <HAL_TIM_PWM_Start+0xf6>
  if (TIM_CHANNEL_STATE_GET(htim, Channel) != HAL_TIM_CHANNEL_STATE_READY)
 8002994:	2904      	cmp	r1, #4
 8002996:	d008      	beq.n	80029aa <HAL_TIM_PWM_Start+0xa6>
 8002998:	2908      	cmp	r1, #8
 800299a:	d00d      	beq.n	80029b8 <HAL_TIM_PWM_Start+0xb4>
 800299c:	f894 3041 	ldrb.w	r3, [r4, #65]	; 0x41
 80029a0:	b2db      	uxtb	r3, r3
 80029a2:	3b01      	subs	r3, #1
 80029a4:	bf18      	it	ne
 80029a6:	2301      	movne	r3, #1
 80029a8:	e7b7      	b.n	800291a <HAL_TIM_PWM_Start+0x16>
 80029aa:	f894 303f 	ldrb.w	r3, [r4, #63]	; 0x3f
 80029ae:	b2db      	uxtb	r3, r3
 80029b0:	3b01      	subs	r3, #1
 80029b2:	bf18      	it	ne
 80029b4:	2301      	movne	r3, #1
 80029b6:	e7b0      	b.n	800291a <HAL_TIM_PWM_Start+0x16>
 80029b8:	f894 3040 	ldrb.w	r3, [r4, #64]	; 0x40
 80029bc:	b2db      	uxtb	r3, r3
 80029be:	3b01      	subs	r3, #1
 80029c0:	bf18      	it	ne
 80029c2:	2301      	movne	r3, #1
 80029c4:	e7a9      	b.n	800291a <HAL_TIM_PWM_Start+0x16>
  TIM_CHANNEL_STATE_SET(htim, Channel, HAL_TIM_CHANNEL_STATE_BUSY);
 80029c6:	2804      	cmp	r0, #4
 80029c8:	d005      	beq.n	80029d6 <HAL_TIM_PWM_Start+0xd2>
 80029ca:	2808      	cmp	r0, #8
 80029cc:	d007      	beq.n	80029de <HAL_TIM_PWM_Start+0xda>
 80029ce:	2302      	movs	r3, #2
 80029d0:	f884 3041 	strb.w	r3, [r4, #65]	; 0x41
 80029d4:	e7a8      	b.n	8002928 <HAL_TIM_PWM_Start+0x24>
 80029d6:	2302      	movs	r3, #2
 80029d8:	f884 303f 	strb.w	r3, [r4, #63]	; 0x3f
 80029dc:	e7a4      	b.n	8002928 <HAL_TIM_PWM_Start+0x24>
 80029de:	2302      	movs	r3, #2
 80029e0:	f884 3040 	strb.w	r3, [r4, #64]	; 0x40
 80029e4:	e7a0      	b.n	8002928 <HAL_TIM_PWM_Start+0x24>
    tmpsmcr = htim->Instance->SMCR & TIM_SMCR_SMS;
 80029e6:	689a      	ldr	r2, [r3, #8]
 80029e8:	f002 0207 	and.w	r2, r2, #7
    if (!IS_TIM_SLAVEMODE_TRIGGER_ENABLED(tmpsmcr))
 80029ec:	2a06      	cmp	r2, #6
 80029ee:	d007      	beq.n	8002a00 <HAL_TIM_PWM_Start+0xfc>
      __HAL_TIM_ENABLE(htim);
 80029f0:	681a      	ldr	r2, [r3, #0]
 80029f2:	f042 0201 	orr.w	r2, r2, #1
 80029f6:	601a      	str	r2, [r3, #0]
  return HAL_OK;
 80029f8:	2000      	movs	r0, #0
}
 80029fa:	bd10      	pop	{r4, pc}
    return HAL_ERROR;
 80029fc:	2001      	movs	r0, #1
 80029fe:	e7fc      	b.n	80029fa <HAL_TIM_PWM_Start+0xf6>
  return HAL_OK;
 8002a00:	2000      	movs	r0, #0
 8002a02:	e7fa      	b.n	80029fa <HAL_TIM_PWM_Start+0xf6>
 8002a04:	40010000 	.word	0x40010000

08002a08 <HAL_TIMEx_MasterConfigSynchronization>:
  assert_param(IS_TIM_MASTER_INSTANCE(htim->Instance));
  assert_param(IS_TIM_TRGO_SOURCE(sMasterConfig->MasterOutputTrigger));
  assert_param(IS_TIM_MSM_STATE(sMasterConfig->MasterSlaveMode));

  /* Check input state */
  __HAL_LOCK(htim);
 8002a08:	f890 303c 	ldrb.w	r3, [r0, #60]	; 0x3c
 8002a0c:	2b01      	cmp	r3, #1
 8002a0e:	d03b      	beq.n	8002a88 <HAL_TIMEx_MasterConfigSynchronization+0x80>
{
 8002a10:	b430      	push	{r4, r5}
  __HAL_LOCK(htim);
 8002a12:	2301      	movs	r3, #1
 8002a14:	f880 303c 	strb.w	r3, [r0, #60]	; 0x3c

  /* Change the handler state */
  htim->State = HAL_TIM_STATE_BUSY;
 8002a18:	2302      	movs	r3, #2
 8002a1a:	f880 303d 	strb.w	r3, [r0, #61]	; 0x3d

  /* Get the TIMx CR2 register value */
  tmpcr2 = htim->Instance->CR2;
 8002a1e:	6803      	ldr	r3, [r0, #0]
 8002a20:	685c      	ldr	r4, [r3, #4]

  /* Get the TIMx SMCR register value */
  tmpsmcr = htim->Instance->SMCR;
 8002a22:	689d      	ldr	r5, [r3, #8]

  /* Reset the MMS Bits */
  tmpcr2 &= ~TIM_CR2_MMS;
 8002a24:	f024 0470 	bic.w	r4, r4, #112	; 0x70
  /* Select the TRGO source */
  tmpcr2 |=  sMasterConfig->MasterOutputTrigger;
 8002a28:	680a      	ldr	r2, [r1, #0]
 8002a2a:	4322      	orrs	r2, r4

  /* Update TIMx CR2 */
  htim->Instance->CR2 = tmpcr2;
 8002a2c:	605a      	str	r2, [r3, #4]

  if (IS_TIM_SLAVE_INSTANCE(htim->Instance))
 8002a2e:	6803      	ldr	r3, [r0, #0]
 8002a30:	4a16      	ldr	r2, [pc, #88]	; (8002a8c <HAL_TIMEx_MasterConfigSynchronization+0x84>)
 8002a32:	4293      	cmp	r3, r2
 8002a34:	d01a      	beq.n	8002a6c <HAL_TIMEx_MasterConfigSynchronization+0x64>
 8002a36:	f1b3 4f80 	cmp.w	r3, #1073741824	; 0x40000000
 8002a3a:	d017      	beq.n	8002a6c <HAL_TIMEx_MasterConfigSynchronization+0x64>
 8002a3c:	f5a2 427c 	sub.w	r2, r2, #64512	; 0xfc00
 8002a40:	4293      	cmp	r3, r2
 8002a42:	d013      	beq.n	8002a6c <HAL_TIMEx_MasterConfigSynchronization+0x64>
 8002a44:	f502 6280 	add.w	r2, r2, #1024	; 0x400
 8002a48:	4293      	cmp	r3, r2
 8002a4a:	d00f      	beq.n	8002a6c <HAL_TIMEx_MasterConfigSynchronization+0x64>
 8002a4c:	f502 6280 	add.w	r2, r2, #1024	; 0x400
 8002a50:	4293      	cmp	r3, r2
 8002a52:	d00b      	beq.n	8002a6c <HAL_TIMEx_MasterConfigSynchronization+0x64>
 8002a54:	f502 4278 	add.w	r2, r2, #63488	; 0xf800
 8002a58:	4293      	cmp	r3, r2
 8002a5a:	d007      	beq.n	8002a6c <HAL_TIMEx_MasterConfigSynchronization+0x64>
 8002a5c:	f502 5270 	add.w	r2, r2, #15360	; 0x3c00
 8002a60:	4293      	cmp	r3, r2
 8002a62:	d003      	beq.n	8002a6c <HAL_TIMEx_MasterConfigSynchronization+0x64>
 8002a64:	f5a2 3294 	sub.w	r2, r2, #75776	; 0x12800
 8002a68:	4293      	cmp	r3, r2
 8002a6a:	d104      	bne.n	8002a76 <HAL_TIMEx_MasterConfigSynchronization+0x6e>
  {
    /* Reset the MSM Bit */
    tmpsmcr &= ~TIM_SMCR_MSM;
 8002a6c:	f025 0580 	bic.w	r5, r5, #128	; 0x80
    /* Set master mode */
    tmpsmcr |= sMasterConfig->MasterSlaveMode;
 8002a70:	684a      	ldr	r2, [r1, #4]
 8002a72:	4315      	orrs	r5, r2

    /* Update TIMx SMCR */
    htim->Instance->SMCR = tmpsmcr;
 8002a74:	609d      	str	r5, [r3, #8]
  }

  /* Change the htim state */
  htim->State = HAL_TIM_STATE_READY;
 8002a76:	2301      	movs	r3, #1
 8002a78:	f880 303d 	strb.w	r3, [r0, #61]	; 0x3d

  __HAL_UNLOCK(htim);
 8002a7c:	2300      	movs	r3, #0
 8002a7e:	f880 303c 	strb.w	r3, [r0, #60]	; 0x3c

  return HAL_OK;
 8002a82:	4618      	mov	r0, r3
}
 8002a84:	bc30      	pop	{r4, r5}
 8002a86:	4770      	bx	lr
  __HAL_LOCK(htim);
 8002a88:	2002      	movs	r0, #2
}
 8002a8a:	4770      	bx	lr
 8002a8c:	40010000 	.word	0x40010000

08002a90 <HAL_TIMEx_CommutCallback>:
  UNUSED(htim);

  /* NOTE : This function should not be modified, when the callback is needed,
            the HAL_TIMEx_CommutCallback could be implemented in the user file
   */
}
 8002a90:	4770      	bx	lr

08002a92 <HAL_TIMEx_BreakCallback>:
  UNUSED(htim);

  /* NOTE : This function should not be modified, when the callback is needed,
            the HAL_TIMEx_BreakCallback could be implemented in the user file
   */
}
 8002a92:	4770      	bx	lr

08002a94 <UART_EndRxTransfer>:
  * @retval None
  */
static void UART_EndRxTransfer(UART_HandleTypeDef *huart)
{
  /* Disable RXNE, PE and ERR (Frame error, noise error, overrun error) interrupts */
  ATOMIC_CLEAR_BIT(huart->Instance->CR1, (USART_CR1_RXNEIE | USART_CR1_PEIE));
 8002a94:	6802      	ldr	r2, [r0, #0]
 */
__STATIC_FORCEINLINE uint32_t __LDREXW(volatile uint32_t *addr)
{
    uint32_t result;

   __ASM volatile ("ldrex %0, %1" : "=r" (result) : "Q" (*addr) );
 8002a96:	f102 030c 	add.w	r3, r2, #12
 8002a9a:	e853 3f00 	ldrex	r3, [r3]
 8002a9e:	f423 7390 	bic.w	r3, r3, #288	; 0x120
 */
__STATIC_FORCEINLINE uint32_t __STREXW(uint32_t value, volatile uint32_t *addr)
{
   uint32_t result;

   __ASM volatile ("strex %0, %2, %1" : "=&r" (result), "=Q" (*addr) : "r" (value) );
 8002aa2:	320c      	adds	r2, #12
 8002aa4:	e842 3100 	strex	r1, r3, [r2]
 8002aa8:	2900      	cmp	r1, #0
 8002aaa:	d1f3      	bne.n	8002a94 <UART_EndRxTransfer>
  ATOMIC_CLEAR_BIT(huart->Instance->CR3, USART_CR3_EIE);
 8002aac:	6802      	ldr	r2, [r0, #0]
   __ASM volatile ("ldrex %0, %1" : "=r" (result) : "Q" (*addr) );
 8002aae:	f102 0314 	add.w	r3, r2, #20
 8002ab2:	e853 3f00 	ldrex	r3, [r3]
 8002ab6:	f023 0301 	bic.w	r3, r3, #1
   __ASM volatile ("strex %0, %2, %1" : "=&r" (result), "=Q" (*addr) : "r" (value) );
 8002aba:	3214      	adds	r2, #20
 8002abc:	e842 3100 	strex	r1, r3, [r2]
 8002ac0:	2900      	cmp	r1, #0
 8002ac2:	d1f3      	bne.n	8002aac <UART_EndRxTransfer+0x18>

  /* In case of reception waiting for IDLE event, disable also the IDLE IE interrupt source */
  if (huart->ReceptionType == HAL_UART_RECEPTION_TOIDLE)
 8002ac4:	6b03      	ldr	r3, [r0, #48]	; 0x30
 8002ac6:	2b01      	cmp	r3, #1
 8002ac8:	d005      	beq.n	8002ad6 <UART_EndRxTransfer+0x42>
  {
    ATOMIC_CLEAR_BIT(huart->Instance->CR1, USART_CR1_IDLEIE);
  }

  /* At end of Rx process, restore huart->RxState to Ready */
  huart->RxState = HAL_UART_STATE_READY;
 8002aca:	2320      	movs	r3, #32
 8002acc:	f880 303e 	strb.w	r3, [r0, #62]	; 0x3e
  huart->ReceptionType = HAL_UART_RECEPTION_STANDARD;
 8002ad0:	2300      	movs	r3, #0
 8002ad2:	6303      	str	r3, [r0, #48]	; 0x30
}
 8002ad4:	4770      	bx	lr
    ATOMIC_CLEAR_BIT(huart->Instance->CR1, USART_CR1_IDLEIE);
 8002ad6:	6802      	ldr	r2, [r0, #0]
   __ASM volatile ("ldrex %0, %1" : "=r" (result) : "Q" (*addr) );
 8002ad8:	f102 030c 	add.w	r3, r2, #12
 8002adc:	e853 3f00 	ldrex	r3, [r3]
 8002ae0:	f023 0310 	bic.w	r3, r3, #16
   __ASM volatile ("strex %0, %2, %1" : "=&r" (result), "=Q" (*addr) : "r" (value) );
 8002ae4:	320c      	adds	r2, #12
 8002ae6:	e842 3100 	strex	r1, r3, [r2]
 8002aea:	2900      	cmp	r1, #0
 8002aec:	d1f3      	bne.n	8002ad6 <UART_EndRxTransfer+0x42>
 8002aee:	e7ec      	b.n	8002aca <UART_EndRxTransfer+0x36>

08002af0 <UART_Transmit_IT>:
static HAL_StatusTypeDef UART_Transmit_IT(UART_HandleTypeDef *huart)
{
  uint16_t *tmp;

  /* Check that a Tx process is ongoing */
  if (huart->gState == HAL_UART_STATE_BUSY_TX)
 8002af0:	f890 303d 	ldrb.w	r3, [r0, #61]	; 0x3d
 8002af4:	b2db      	uxtb	r3, r3
 8002af6:	2b21      	cmp	r3, #33	; 0x21
 8002af8:	d001      	beq.n	8002afe <UART_Transmit_IT+0xe>
    }
    return HAL_OK;
  }
  else
  {
    return HAL_BUSY;
 8002afa:	2002      	movs	r0, #2
  }
}
 8002afc:	4770      	bx	lr
    if ((huart->Init.WordLength == UART_WORDLENGTH_9B) && (huart->Init.Parity == UART_PARITY_NONE))
 8002afe:	6883      	ldr	r3, [r0, #8]
 8002b00:	f5b3 5f80 	cmp.w	r3, #4096	; 0x1000
 8002b04:	d017      	beq.n	8002b36 <UART_Transmit_IT+0x46>
      huart->Instance->DR = (uint8_t)(*huart->pTxBuffPtr++ & (uint8_t)0x00FF);
 8002b06:	6a03      	ldr	r3, [r0, #32]
 8002b08:	1c5a      	adds	r2, r3, #1
 8002b0a:	6202      	str	r2, [r0, #32]
 8002b0c:	781a      	ldrb	r2, [r3, #0]
 8002b0e:	6803      	ldr	r3, [r0, #0]
 8002b10:	605a      	str	r2, [r3, #4]
    if (--huart->TxXferCount == 0U)
 8002b12:	8cc3      	ldrh	r3, [r0, #38]	; 0x26
 8002b14:	b29b      	uxth	r3, r3
 8002b16:	3b01      	subs	r3, #1
 8002b18:	b29b      	uxth	r3, r3
 8002b1a:	84c3      	strh	r3, [r0, #38]	; 0x26
 8002b1c:	b94b      	cbnz	r3, 8002b32 <UART_Transmit_IT+0x42>
      __HAL_UART_DISABLE_IT(huart, UART_IT_TXE);
 8002b1e:	6802      	ldr	r2, [r0, #0]
 8002b20:	68d3      	ldr	r3, [r2, #12]
 8002b22:	f023 0380 	bic.w	r3, r3, #128	; 0x80
 8002b26:	60d3      	str	r3, [r2, #12]
      __HAL_UART_ENABLE_IT(huart, UART_IT_TC);
 8002b28:	6802      	ldr	r2, [r0, #0]
 8002b2a:	68d3      	ldr	r3, [r2, #12]
 8002b2c:	f043 0340 	orr.w	r3, r3, #64	; 0x40
 8002b30:	60d3      	str	r3, [r2, #12]
    return HAL_OK;
 8002b32:	2000      	movs	r0, #0
 8002b34:	4770      	bx	lr
    if ((huart->Init.WordLength == UART_WORDLENGTH_9B) && (huart->Init.Parity == UART_PARITY_NONE))
 8002b36:	6903      	ldr	r3, [r0, #16]
 8002b38:	2b00      	cmp	r3, #0
 8002b3a:	d1e4      	bne.n	8002b06 <UART_Transmit_IT+0x16>
      tmp = (uint16_t *) huart->pTxBuffPtr;
 8002b3c:	6a03      	ldr	r3, [r0, #32]
      huart->Instance->DR = (uint16_t)(*tmp & (uint16_t)0x01FF);
 8002b3e:	881b      	ldrh	r3, [r3, #0]
 8002b40:	6802      	ldr	r2, [r0, #0]
 8002b42:	f3c3 0308 	ubfx	r3, r3, #0, #9
 8002b46:	6053      	str	r3, [r2, #4]
      huart->pTxBuffPtr += 2U;
 8002b48:	6a03      	ldr	r3, [r0, #32]
 8002b4a:	3302      	adds	r3, #2
 8002b4c:	6203      	str	r3, [r0, #32]
 8002b4e:	e7e0      	b.n	8002b12 <UART_Transmit_IT+0x22>

08002b50 <UART_SetConfig>:
  * @param  huart  Pointer to a UART_HandleTypeDef structure that contains
  *                the configuration information for the specified UART module.
  * @retval None
  */
static void UART_SetConfig(UART_HandleTypeDef *huart)
{
 8002b50:	b570      	push	{r4, r5, r6, lr}
 8002b52:	4604      	mov	r4, r0
  assert_param(IS_UART_MODE(huart->Init.Mode));

  /*-------------------------- USART CR2 Configuration -----------------------*/
  /* Configure the UART Stop Bits: Set STOP[13:12] bits
     according to huart->Init.StopBits value */
  MODIFY_REG(huart->Instance->CR2, USART_CR2_STOP, huart->Init.StopBits);
 8002b54:	6802      	ldr	r2, [r0, #0]
 8002b56:	6913      	ldr	r3, [r2, #16]
 8002b58:	f423 5340 	bic.w	r3, r3, #12288	; 0x3000
 8002b5c:	68c1      	ldr	r1, [r0, #12]
 8002b5e:	430b      	orrs	r3, r1
 8002b60:	6113      	str	r3, [r2, #16]
     Set the M bits according to huart->Init.WordLength value
     Set PCE and PS bits according to huart->Init.Parity value
     Set TE and RE bits according to huart->Init.Mode value
     Set OVER8 bit according to huart->Init.OverSampling value */

  tmpreg = (uint32_t)huart->Init.WordLength | huart->Init.Parity | huart->Init.Mode | huart->Init.OverSampling;
 8002b62:	6883      	ldr	r3, [r0, #8]
 8002b64:	6902      	ldr	r2, [r0, #16]
 8002b66:	4313      	orrs	r3, r2
 8002b68:	6942      	ldr	r2, [r0, #20]
 8002b6a:	4313      	orrs	r3, r2
 8002b6c:	69c2      	ldr	r2, [r0, #28]
 8002b6e:	431a      	orrs	r2, r3
  MODIFY_REG(huart->Instance->CR1,
 8002b70:	6801      	ldr	r1, [r0, #0]
 8002b72:	68cb      	ldr	r3, [r1, #12]
 8002b74:	f423 4316 	bic.w	r3, r3, #38400	; 0x9600
 8002b78:	f023 030c 	bic.w	r3, r3, #12
 8002b7c:	4313      	orrs	r3, r2
 8002b7e:	60cb      	str	r3, [r1, #12]
             (uint32_t)(USART_CR1_M | USART_CR1_PCE | USART_CR1_PS | USART_CR1_TE | USART_CR1_RE | USART_CR1_OVER8),
             tmpreg);

  /*-------------------------- USART CR3 Configuration -----------------------*/
  /* Configure the UART HFC: Set CTSE and RTSE bits according to huart->Init.HwFlowCtl value */
  MODIFY_REG(huart->Instance->CR3, (USART_CR3_RTSE | USART_CR3_CTSE), huart->Init.HwFlowCtl);
 8002b80:	6802      	ldr	r2, [r0, #0]
 8002b82:	6953      	ldr	r3, [r2, #20]
 8002b84:	f423 7340 	bic.w	r3, r3, #768	; 0x300
 8002b88:	6981      	ldr	r1, [r0, #24]
 8002b8a:	430b      	orrs	r3, r1
 8002b8c:	6153      	str	r3, [r2, #20]
    if ((huart->Instance == USART1) || (huart->Instance == USART6) || (huart->Instance == UART9) || (huart->Instance == UART10))
    {
      pclk = HAL_RCC_GetPCLK2Freq();
    }
#elif defined(USART6)
    if ((huart->Instance == USART1) || (huart->Instance == USART6))
 8002b8e:	6803      	ldr	r3, [r0, #0]
 8002b90:	4a34      	ldr	r2, [pc, #208]	; (8002c64 <UART_SetConfig+0x114>)
 8002b92:	4293      	cmp	r3, r2
 8002b94:	d006      	beq.n	8002ba4 <UART_SetConfig+0x54>
 8002b96:	f502 6280 	add.w	r2, r2, #1024	; 0x400
 8002b9a:	4293      	cmp	r3, r2
 8002b9c:	d002      	beq.n	8002ba4 <UART_SetConfig+0x54>
      pclk = HAL_RCC_GetPCLK2Freq();
    }
#endif /* USART6 */
    else
    {
      pclk = HAL_RCC_GetPCLK1Freq();
 8002b9e:	f7fe ffed 	bl	8001b7c <HAL_RCC_GetPCLK1Freq>
 8002ba2:	e001      	b.n	8002ba8 <UART_SetConfig+0x58>
      pclk = HAL_RCC_GetPCLK2Freq();
 8002ba4:	f7fe fffa 	bl	8001b9c <HAL_RCC_GetPCLK2Freq>
    }
  /*-------------------------- USART BRR Configuration ---------------------*/
  if (huart->Init.OverSampling == UART_OVERSAMPLING_8)
 8002ba8:	69e3      	ldr	r3, [r4, #28]
 8002baa:	f5b3 4f00 	cmp.w	r3, #32768	; 0x8000
 8002bae:	d02a      	beq.n	8002c06 <UART_SetConfig+0xb6>
  {
    huart->Instance->BRR = UART_BRR_SAMPLING8(pclk, huart->Init.BaudRate);
  }
  else
  {
    huart->Instance->BRR = UART_BRR_SAMPLING16(pclk, huart->Init.BaudRate);
 8002bb0:	2600      	movs	r6, #0
 8002bb2:	1805      	adds	r5, r0, r0
 8002bb4:	eb46 0106 	adc.w	r1, r6, r6
 8002bb8:	182d      	adds	r5, r5, r0
 8002bba:	eb46 0101 	adc.w	r1, r6, r1
 8002bbe:	00cb      	lsls	r3, r1, #3
 8002bc0:	ea43 7355 	orr.w	r3, r3, r5, lsr #29
 8002bc4:	00ea      	lsls	r2, r5, #3
 8002bc6:	4615      	mov	r5, r2
 8002bc8:	4619      	mov	r1, r3
 8002bca:	6863      	ldr	r3, [r4, #4]
 8002bcc:	009a      	lsls	r2, r3, #2
 8002bce:	0f9b      	lsrs	r3, r3, #30
 8002bd0:	1828      	adds	r0, r5, r0
 8002bd2:	eb46 0101 	adc.w	r1, r6, r1
 8002bd6:	f7fd fb73 	bl	80002c0 <__aeabi_uldivmod>
 8002bda:	4d23      	ldr	r5, [pc, #140]	; (8002c68 <UART_SetConfig+0x118>)
 8002bdc:	fba5 3200 	umull	r3, r2, r5, r0
 8002be0:	0951      	lsrs	r1, r2, #5
 8002be2:	2364      	movs	r3, #100	; 0x64
 8002be4:	fb03 0311 	mls	r3, r3, r1, r0
 8002be8:	011b      	lsls	r3, r3, #4
 8002bea:	3332      	adds	r3, #50	; 0x32
 8002bec:	fba5 2303 	umull	r2, r3, r5, r3
 8002bf0:	095b      	lsrs	r3, r3, #5
 8002bf2:	f003 02f0 	and.w	r2, r3, #240	; 0xf0
 8002bf6:	eb02 1201 	add.w	r2, r2, r1, lsl #4
 8002bfa:	f003 030f 	and.w	r3, r3, #15
 8002bfe:	6821      	ldr	r1, [r4, #0]
 8002c00:	4413      	add	r3, r2
 8002c02:	608b      	str	r3, [r1, #8]
  }
}
 8002c04:	bd70      	pop	{r4, r5, r6, pc}
    huart->Instance->BRR = UART_BRR_SAMPLING8(pclk, huart->Init.BaudRate);
 8002c06:	2600      	movs	r6, #0
 8002c08:	1805      	adds	r5, r0, r0
 8002c0a:	eb46 0106 	adc.w	r1, r6, r6
 8002c0e:	182d      	adds	r5, r5, r0
 8002c10:	eb46 0101 	adc.w	r1, r6, r1
 8002c14:	00cb      	lsls	r3, r1, #3
 8002c16:	ea43 7355 	orr.w	r3, r3, r5, lsr #29
 8002c1a:	00ea      	lsls	r2, r5, #3
 8002c1c:	4615      	mov	r5, r2
 8002c1e:	4619      	mov	r1, r3
 8002c20:	6862      	ldr	r2, [r4, #4]
 8002c22:	4633      	mov	r3, r6
 8002c24:	1892      	adds	r2, r2, r2
 8002c26:	eb46 0303 	adc.w	r3, r6, r3
 8002c2a:	1828      	adds	r0, r5, r0
 8002c2c:	eb46 0101 	adc.w	r1, r6, r1
 8002c30:	f7fd fb46 	bl	80002c0 <__aeabi_uldivmod>
 8002c34:	4d0c      	ldr	r5, [pc, #48]	; (8002c68 <UART_SetConfig+0x118>)
 8002c36:	fba5 3200 	umull	r3, r2, r5, r0
 8002c3a:	0951      	lsrs	r1, r2, #5
 8002c3c:	2364      	movs	r3, #100	; 0x64
 8002c3e:	fb03 0311 	mls	r3, r3, r1, r0
 8002c42:	00db      	lsls	r3, r3, #3
 8002c44:	3332      	adds	r3, #50	; 0x32
 8002c46:	fba5 2303 	umull	r2, r3, r5, r3
 8002c4a:	095b      	lsrs	r3, r3, #5
 8002c4c:	005a      	lsls	r2, r3, #1
 8002c4e:	f402 72f8 	and.w	r2, r2, #496	; 0x1f0
 8002c52:	eb02 1201 	add.w	r2, r2, r1, lsl #4
 8002c56:	f003 0307 	and.w	r3, r3, #7
 8002c5a:	6821      	ldr	r1, [r4, #0]
 8002c5c:	4413      	add	r3, r2
 8002c5e:	608b      	str	r3, [r1, #8]
 8002c60:	e7d0      	b.n	8002c04 <UART_SetConfig+0xb4>
 8002c62:	bf00      	nop
 8002c64:	40011000 	.word	0x40011000
 8002c68:	51eb851f 	.word	0x51eb851f

08002c6c <HAL_UART_Init>:
  if (huart == NULL)
 8002c6c:	b358      	cbz	r0, 8002cc6 <HAL_UART_Init+0x5a>
{
 8002c6e:	b510      	push	{r4, lr}
 8002c70:	4604      	mov	r4, r0
  if (huart->gState == HAL_UART_STATE_RESET)
 8002c72:	f890 303d 	ldrb.w	r3, [r0, #61]	; 0x3d
 8002c76:	b30b      	cbz	r3, 8002cbc <HAL_UART_Init+0x50>
  huart->gState = HAL_UART_STATE_BUSY;
 8002c78:	2324      	movs	r3, #36	; 0x24
 8002c7a:	f884 303d 	strb.w	r3, [r4, #61]	; 0x3d
  __HAL_UART_DISABLE(huart);
 8002c7e:	6822      	ldr	r2, [r4, #0]
 8002c80:	68d3      	ldr	r3, [r2, #12]
 8002c82:	f423 5300 	bic.w	r3, r3, #8192	; 0x2000
 8002c86:	60d3      	str	r3, [r2, #12]
  UART_SetConfig(huart);
 8002c88:	4620      	mov	r0, r4
 8002c8a:	f7ff ff61 	bl	8002b50 <UART_SetConfig>
  CLEAR_BIT(huart->Instance->CR2, (USART_CR2_LINEN | USART_CR2_CLKEN));
 8002c8e:	6822      	ldr	r2, [r4, #0]
 8002c90:	6913      	ldr	r3, [r2, #16]
 8002c92:	f423 4390 	bic.w	r3, r3, #18432	; 0x4800
 8002c96:	6113      	str	r3, [r2, #16]
  CLEAR_BIT(huart->Instance->CR3, (USART_CR3_SCEN | USART_CR3_HDSEL | USART_CR3_IREN));
 8002c98:	6822      	ldr	r2, [r4, #0]
 8002c9a:	6953      	ldr	r3, [r2, #20]
 8002c9c:	f023 032a 	bic.w	r3, r3, #42	; 0x2a
 8002ca0:	6153      	str	r3, [r2, #20]
  __HAL_UART_ENABLE(huart);
 8002ca2:	6822      	ldr	r2, [r4, #0]
 8002ca4:	68d3      	ldr	r3, [r2, #12]
 8002ca6:	f443 5300 	orr.w	r3, r3, #8192	; 0x2000
 8002caa:	60d3      	str	r3, [r2, #12]
  huart->ErrorCode = HAL_UART_ERROR_NONE;
 8002cac:	2000      	movs	r0, #0
 8002cae:	6420      	str	r0, [r4, #64]	; 0x40
  huart->gState = HAL_UART_STATE_READY;
 8002cb0:	2320      	movs	r3, #32
 8002cb2:	f884 303d 	strb.w	r3, [r4, #61]	; 0x3d
  huart->RxState = HAL_UART_STATE_READY;
 8002cb6:	f884 303e 	strb.w	r3, [r4, #62]	; 0x3e
}
 8002cba:	bd10      	pop	{r4, pc}
    huart->Lock = HAL_UNLOCKED;
 8002cbc:	f880 303c 	strb.w	r3, [r0, #60]	; 0x3c
    HAL_UART_MspInit(huart);
 8002cc0:	f001 fa7a 	bl	80041b8 <HAL_UART_MspInit>
 8002cc4:	e7d8      	b.n	8002c78 <HAL_UART_Init+0xc>
    return HAL_ERROR;
 8002cc6:	2001      	movs	r0, #1
}
 8002cc8:	4770      	bx	lr

08002cca <HAL_UART_Transmit_IT>:
  if (huart->gState == HAL_UART_STATE_READY)
 8002cca:	f890 303d 	ldrb.w	r3, [r0, #61]	; 0x3d
 8002cce:	b2db      	uxtb	r3, r3
 8002cd0:	2b20      	cmp	r3, #32
 8002cd2:	d116      	bne.n	8002d02 <HAL_UART_Transmit_IT+0x38>
    if ((pData == NULL) || (Size == 0U))
 8002cd4:	b1b9      	cbz	r1, 8002d06 <HAL_UART_Transmit_IT+0x3c>
 8002cd6:	b1c2      	cbz	r2, 8002d0a <HAL_UART_Transmit_IT+0x40>
    __HAL_LOCK(huart);
 8002cd8:	f890 303c 	ldrb.w	r3, [r0, #60]	; 0x3c
 8002cdc:	2b01      	cmp	r3, #1
 8002cde:	d016      	beq.n	8002d0e <HAL_UART_Transmit_IT+0x44>
    huart->pTxBuffPtr = pData;
 8002ce0:	6201      	str	r1, [r0, #32]
    huart->TxXferSize = Size;
 8002ce2:	8482      	strh	r2, [r0, #36]	; 0x24
    huart->TxXferCount = Size;
 8002ce4:	84c2      	strh	r2, [r0, #38]	; 0x26
    huart->ErrorCode = HAL_UART_ERROR_NONE;
 8002ce6:	2300      	movs	r3, #0
 8002ce8:	6403      	str	r3, [r0, #64]	; 0x40
    huart->gState = HAL_UART_STATE_BUSY_TX;
 8002cea:	2221      	movs	r2, #33	; 0x21
 8002cec:	f880 203d 	strb.w	r2, [r0, #61]	; 0x3d
    __HAL_UNLOCK(huart);
 8002cf0:	f880 303c 	strb.w	r3, [r0, #60]	; 0x3c
    __HAL_UART_ENABLE_IT(huart, UART_IT_TXE);
 8002cf4:	6801      	ldr	r1, [r0, #0]
 8002cf6:	68ca      	ldr	r2, [r1, #12]
 8002cf8:	f042 0280 	orr.w	r2, r2, #128	; 0x80
 8002cfc:	60ca      	str	r2, [r1, #12]
    return HAL_OK;
 8002cfe:	4618      	mov	r0, r3
 8002d00:	4770      	bx	lr
    return HAL_BUSY;
 8002d02:	2002      	movs	r0, #2
 8002d04:	4770      	bx	lr
      return HAL_ERROR;
 8002d06:	2001      	movs	r0, #1
 8002d08:	4770      	bx	lr
 8002d0a:	2001      	movs	r0, #1
 8002d0c:	4770      	bx	lr
    __HAL_LOCK(huart);
 8002d0e:	2002      	movs	r0, #2
}
 8002d10:	4770      	bx	lr

08002d12 <UART_EndTransmit_IT>:
{
 8002d12:	b508      	push	{r3, lr}
  __HAL_UART_DISABLE_IT(huart, UART_IT_TC);
 8002d14:	6801      	ldr	r1, [r0, #0]
 8002d16:	68ca      	ldr	r2, [r1, #12]
 8002d18:	f022 0240 	bic.w	r2, r2, #64	; 0x40
 8002d1c:	60ca      	str	r2, [r1, #12]
  huart->gState = HAL_UART_STATE_READY;
 8002d1e:	2220      	movs	r2, #32
 8002d20:	f880 203d 	strb.w	r2, [r0, #61]	; 0x3d
  HAL_UART_TxCpltCallback(huart);
 8002d24:	f001 fb72 	bl	800440c <HAL_UART_TxCpltCallback>
}
 8002d28:	2000      	movs	r0, #0
 8002d2a:	bd08      	pop	{r3, pc}

08002d2c <UART_DMAAbortOnError>:
{
 8002d2c:	b508      	push	{r3, lr}
  UART_HandleTypeDef *huart = (UART_HandleTypeDef *)((DMA_HandleTypeDef *)hdma)->Parent;
 8002d2e:	6b80      	ldr	r0, [r0, #56]	; 0x38
  huart->RxXferCount = 0x00U;
 8002d30:	2300      	movs	r3, #0
 8002d32:	85c3      	strh	r3, [r0, #46]	; 0x2e
  huart->TxXferCount = 0x00U;
 8002d34:	84c3      	strh	r3, [r0, #38]	; 0x26
  HAL_UART_ErrorCallback(huart);
 8002d36:	f001 fb65 	bl	8004404 <HAL_UART_ErrorCallback>
}
 8002d3a:	bd08      	pop	{r3, pc}

08002d3c <HAL_UARTEx_RxEventCallback>:
}
 8002d3c:	4770      	bx	lr

08002d3e <UART_Receive_IT>:
  if (huart->RxState == HAL_UART_STATE_BUSY_RX)
 8002d3e:	f890 303e 	ldrb.w	r3, [r0, #62]	; 0x3e
 8002d42:	b2db      	uxtb	r3, r3
 8002d44:	2b22      	cmp	r3, #34	; 0x22
 8002d46:	d167      	bne.n	8002e18 <UART_Receive_IT+0xda>
    if ((huart->Init.WordLength == UART_WORDLENGTH_9B) && (huart->Init.Parity == UART_PARITY_NONE))
 8002d48:	6883      	ldr	r3, [r0, #8]
 8002d4a:	f5b3 5f80 	cmp.w	r3, #4096	; 0x1000
 8002d4e:	d04d      	beq.n	8002dec <UART_Receive_IT+0xae>
      pdata8bits = (uint8_t *) huart->pRxBuffPtr;
 8002d50:	6a82      	ldr	r2, [r0, #40]	; 0x28
      if ((huart->Init.WordLength == UART_WORDLENGTH_9B) || ((huart->Init.WordLength == UART_WORDLENGTH_8B) && (huart->Init.Parity == UART_PARITY_NONE)))
 8002d52:	f5b3 5f80 	cmp.w	r3, #4096	; 0x1000
 8002d56:	d004      	beq.n	8002d62 <UART_Receive_IT+0x24>
 8002d58:	2b00      	cmp	r3, #0
 8002d5a:	d154      	bne.n	8002e06 <UART_Receive_IT+0xc8>
 8002d5c:	6903      	ldr	r3, [r0, #16]
 8002d5e:	2b00      	cmp	r3, #0
 8002d60:	d151      	bne.n	8002e06 <UART_Receive_IT+0xc8>
        *pdata8bits = (uint8_t)(huart->Instance->DR & (uint8_t)0x00FF);
 8002d62:	6803      	ldr	r3, [r0, #0]
 8002d64:	685b      	ldr	r3, [r3, #4]
 8002d66:	7013      	strb	r3, [r2, #0]
      huart->pRxBuffPtr += 1U;
 8002d68:	6a83      	ldr	r3, [r0, #40]	; 0x28
 8002d6a:	3301      	adds	r3, #1
 8002d6c:	6283      	str	r3, [r0, #40]	; 0x28
    if (--huart->RxXferCount == 0U)
 8002d6e:	8dc3      	ldrh	r3, [r0, #46]	; 0x2e
 8002d70:	b29b      	uxth	r3, r3
 8002d72:	3b01      	subs	r3, #1
 8002d74:	b29b      	uxth	r3, r3
 8002d76:	85c3      	strh	r3, [r0, #46]	; 0x2e
 8002d78:	2b00      	cmp	r3, #0
 8002d7a:	d14f      	bne.n	8002e1c <UART_Receive_IT+0xde>
{
 8002d7c:	b500      	push	{lr}
 8002d7e:	b083      	sub	sp, #12
      __HAL_UART_DISABLE_IT(huart, UART_IT_RXNE);
 8002d80:	6802      	ldr	r2, [r0, #0]
 8002d82:	68d3      	ldr	r3, [r2, #12]
 8002d84:	f023 0320 	bic.w	r3, r3, #32
 8002d88:	60d3      	str	r3, [r2, #12]
      __HAL_UART_DISABLE_IT(huart, UART_IT_PE);
 8002d8a:	6802      	ldr	r2, [r0, #0]
 8002d8c:	68d3      	ldr	r3, [r2, #12]
 8002d8e:	f423 7380 	bic.w	r3, r3, #256	; 0x100
 8002d92:	60d3      	str	r3, [r2, #12]
      __HAL_UART_DISABLE_IT(huart, UART_IT_ERR);
 8002d94:	6802      	ldr	r2, [r0, #0]
 8002d96:	6953      	ldr	r3, [r2, #20]
 8002d98:	f023 0301 	bic.w	r3, r3, #1
 8002d9c:	6153      	str	r3, [r2, #20]
      huart->RxState = HAL_UART_STATE_READY;
 8002d9e:	2320      	movs	r3, #32
 8002da0:	f880 303e 	strb.w	r3, [r0, #62]	; 0x3e
      if (huart->ReceptionType == HAL_UART_RECEPTION_TOIDLE)
 8002da4:	6b03      	ldr	r3, [r0, #48]	; 0x30
 8002da6:	2b01      	cmp	r3, #1
 8002da8:	d133      	bne.n	8002e12 <UART_Receive_IT+0xd4>
        huart->ReceptionType = HAL_UART_RECEPTION_STANDARD;
 8002daa:	2300      	movs	r3, #0
 8002dac:	6303      	str	r3, [r0, #48]	; 0x30
        ATOMIC_CLEAR_BIT(huart->Instance->CR1, USART_CR1_IDLEIE);
 8002dae:	6802      	ldr	r2, [r0, #0]
   __ASM volatile ("ldrex %0, %1" : "=r" (result) : "Q" (*addr) );
 8002db0:	f102 030c 	add.w	r3, r2, #12
 8002db4:	e853 3f00 	ldrex	r3, [r3]
 8002db8:	f023 0310 	bic.w	r3, r3, #16
   __ASM volatile ("strex %0, %2, %1" : "=&r" (result), "=Q" (*addr) : "r" (value) );
 8002dbc:	320c      	adds	r2, #12
 8002dbe:	e842 3100 	strex	r1, r3, [r2]
 8002dc2:	2900      	cmp	r1, #0
 8002dc4:	d1f3      	bne.n	8002dae <UART_Receive_IT+0x70>
        if (__HAL_UART_GET_FLAG(huart, UART_FLAG_IDLE))
 8002dc6:	6803      	ldr	r3, [r0, #0]
 8002dc8:	681a      	ldr	r2, [r3, #0]
 8002dca:	f012 0f10 	tst.w	r2, #16
 8002dce:	d006      	beq.n	8002dde <UART_Receive_IT+0xa0>
          __HAL_UART_CLEAR_IDLEFLAG(huart);
 8002dd0:	2200      	movs	r2, #0
 8002dd2:	9201      	str	r2, [sp, #4]
 8002dd4:	681a      	ldr	r2, [r3, #0]
 8002dd6:	9201      	str	r2, [sp, #4]
 8002dd8:	685b      	ldr	r3, [r3, #4]
 8002dda:	9301      	str	r3, [sp, #4]
 8002ddc:	9b01      	ldr	r3, [sp, #4]
        HAL_UARTEx_RxEventCallback(huart, huart->RxXferSize);
 8002dde:	8d81      	ldrh	r1, [r0, #44]	; 0x2c
 8002de0:	f7ff ffac 	bl	8002d3c <HAL_UARTEx_RxEventCallback>
      return HAL_OK;
 8002de4:	2000      	movs	r0, #0
}
 8002de6:	b003      	add	sp, #12
 8002de8:	f85d fb04 	ldr.w	pc, [sp], #4
    if ((huart->Init.WordLength == UART_WORDLENGTH_9B) && (huart->Init.Parity == UART_PARITY_NONE))
 8002dec:	6902      	ldr	r2, [r0, #16]
 8002dee:	2a00      	cmp	r2, #0
 8002df0:	d1ae      	bne.n	8002d50 <UART_Receive_IT+0x12>
      pdata16bits = (uint16_t *) huart->pRxBuffPtr;
 8002df2:	6a82      	ldr	r2, [r0, #40]	; 0x28
      *pdata16bits = (uint16_t)(huart->Instance->DR & (uint16_t)0x01FF);
 8002df4:	6803      	ldr	r3, [r0, #0]
 8002df6:	685b      	ldr	r3, [r3, #4]
 8002df8:	f3c3 0308 	ubfx	r3, r3, #0, #9
 8002dfc:	8013      	strh	r3, [r2, #0]
      huart->pRxBuffPtr += 2U;
 8002dfe:	6a83      	ldr	r3, [r0, #40]	; 0x28
 8002e00:	3302      	adds	r3, #2
 8002e02:	6283      	str	r3, [r0, #40]	; 0x28
 8002e04:	e7b3      	b.n	8002d6e <UART_Receive_IT+0x30>
        *pdata8bits = (uint8_t)(huart->Instance->DR & (uint8_t)0x007F);
 8002e06:	6803      	ldr	r3, [r0, #0]
 8002e08:	685b      	ldr	r3, [r3, #4]
 8002e0a:	f003 037f 	and.w	r3, r3, #127	; 0x7f
 8002e0e:	7013      	strb	r3, [r2, #0]
 8002e10:	e7aa      	b.n	8002d68 <UART_Receive_IT+0x2a>
        HAL_UART_RxCpltCallback(huart);
 8002e12:	f001 fad1 	bl	80043b8 <HAL_UART_RxCpltCallback>
 8002e16:	e7e5      	b.n	8002de4 <UART_Receive_IT+0xa6>
    return HAL_BUSY;
 8002e18:	2002      	movs	r0, #2
 8002e1a:	4770      	bx	lr
    return HAL_OK;
 8002e1c:	2000      	movs	r0, #0
}
 8002e1e:	4770      	bx	lr

08002e20 <HAL_UART_IRQHandler>:
{
 8002e20:	b530      	push	{r4, r5, lr}
 8002e22:	b083      	sub	sp, #12
 8002e24:	4604      	mov	r4, r0
  uint32_t isrflags   = READ_REG(huart->Instance->SR);
 8002e26:	6802      	ldr	r2, [r0, #0]
 8002e28:	6813      	ldr	r3, [r2, #0]
  uint32_t cr1its     = READ_REG(huart->Instance->CR1);
 8002e2a:	68d0      	ldr	r0, [r2, #12]
  uint32_t cr3its     = READ_REG(huart->Instance->CR3);
 8002e2c:	6951      	ldr	r1, [r2, #20]
  if (errorflags == RESET)
 8002e2e:	f013 050f 	ands.w	r5, r3, #15
 8002e32:	d105      	bne.n	8002e40 <HAL_UART_IRQHandler+0x20>
    if (((isrflags & USART_SR_RXNE) != RESET) && ((cr1its & USART_CR1_RXNEIE) != RESET))
 8002e34:	f013 0f20 	tst.w	r3, #32
 8002e38:	d002      	beq.n	8002e40 <HAL_UART_IRQHandler+0x20>
 8002e3a:	f010 0f20 	tst.w	r0, #32
 8002e3e:	d119      	bne.n	8002e74 <HAL_UART_IRQHandler+0x54>
  if ((errorflags != RESET) && (((cr3its & USART_CR3_EIE) != RESET)
 8002e40:	b12d      	cbz	r5, 8002e4e <HAL_UART_IRQHandler+0x2e>
 8002e42:	f011 0101 	ands.w	r1, r1, #1
 8002e46:	d119      	bne.n	8002e7c <HAL_UART_IRQHandler+0x5c>
                                || ((cr1its & (USART_CR1_RXNEIE | USART_CR1_PEIE)) != RESET)))
 8002e48:	f410 7f90 	tst.w	r0, #288	; 0x120
 8002e4c:	d116      	bne.n	8002e7c <HAL_UART_IRQHandler+0x5c>
  if ((huart->ReceptionType == HAL_UART_RECEPTION_TOIDLE)
 8002e4e:	6b21      	ldr	r1, [r4, #48]	; 0x30
 8002e50:	2901      	cmp	r1, #1
 8002e52:	d07d      	beq.n	8002f50 <HAL_UART_IRQHandler+0x130>
  if (((isrflags & USART_SR_TXE) != RESET) && ((cr1its & USART_CR1_TXEIE) != RESET))
 8002e54:	f013 0f80 	tst.w	r3, #128	; 0x80
 8002e58:	d003      	beq.n	8002e62 <HAL_UART_IRQHandler+0x42>
 8002e5a:	f010 0f80 	tst.w	r0, #128	; 0x80
 8002e5e:	f040 8115 	bne.w	800308c <HAL_UART_IRQHandler+0x26c>
  if (((isrflags & USART_SR_TC) != RESET) && ((cr1its & USART_CR1_TCIE) != RESET))
 8002e62:	f013 0f40 	tst.w	r3, #64	; 0x40
 8002e66:	d003      	beq.n	8002e70 <HAL_UART_IRQHandler+0x50>
 8002e68:	f010 0f40 	tst.w	r0, #64	; 0x40
 8002e6c:	f040 8112 	bne.w	8003094 <HAL_UART_IRQHandler+0x274>
}
 8002e70:	b003      	add	sp, #12
 8002e72:	bd30      	pop	{r4, r5, pc}
      UART_Receive_IT(huart);
 8002e74:	4620      	mov	r0, r4
 8002e76:	f7ff ff62 	bl	8002d3e <UART_Receive_IT>
      return;
 8002e7a:	e7f9      	b.n	8002e70 <HAL_UART_IRQHandler+0x50>
    if (((isrflags & USART_SR_PE) != RESET) && ((cr1its & USART_CR1_PEIE) != RESET))
 8002e7c:	f013 0f01 	tst.w	r3, #1
 8002e80:	d006      	beq.n	8002e90 <HAL_UART_IRQHandler+0x70>
 8002e82:	f410 7f80 	tst.w	r0, #256	; 0x100
 8002e86:	d003      	beq.n	8002e90 <HAL_UART_IRQHandler+0x70>
      huart->ErrorCode |= HAL_UART_ERROR_PE;
 8002e88:	6c22      	ldr	r2, [r4, #64]	; 0x40
 8002e8a:	f042 0201 	orr.w	r2, r2, #1
 8002e8e:	6422      	str	r2, [r4, #64]	; 0x40
    if (((isrflags & USART_SR_NE) != RESET) && ((cr3its & USART_CR3_EIE) != RESET))
 8002e90:	f013 0f04 	tst.w	r3, #4
 8002e94:	d004      	beq.n	8002ea0 <HAL_UART_IRQHandler+0x80>
 8002e96:	b119      	cbz	r1, 8002ea0 <HAL_UART_IRQHandler+0x80>
      huart->ErrorCode |= HAL_UART_ERROR_NE;
 8002e98:	6c22      	ldr	r2, [r4, #64]	; 0x40
 8002e9a:	f042 0202 	orr.w	r2, r2, #2
 8002e9e:	6422      	str	r2, [r4, #64]	; 0x40
    if (((isrflags & USART_SR_FE) != RESET) && ((cr3its & USART_CR3_EIE) != RESET))
 8002ea0:	f013 0f02 	tst.w	r3, #2
 8002ea4:	d004      	beq.n	8002eb0 <HAL_UART_IRQHandler+0x90>
 8002ea6:	b119      	cbz	r1, 8002eb0 <HAL_UART_IRQHandler+0x90>
      huart->ErrorCode |= HAL_UART_ERROR_FE;
 8002ea8:	6c22      	ldr	r2, [r4, #64]	; 0x40
 8002eaa:	f042 0204 	orr.w	r2, r2, #4
 8002eae:	6422      	str	r2, [r4, #64]	; 0x40
    if (((isrflags & USART_SR_ORE) != RESET) && (((cr1its & USART_CR1_RXNEIE) != RESET)
 8002eb0:	f013 0f08 	tst.w	r3, #8
 8002eb4:	d007      	beq.n	8002ec6 <HAL_UART_IRQHandler+0xa6>
 8002eb6:	f010 0f20 	tst.w	r0, #32
 8002eba:	d100      	bne.n	8002ebe <HAL_UART_IRQHandler+0x9e>
                                                 || ((cr3its & USART_CR3_EIE) != RESET)))
 8002ebc:	b119      	cbz	r1, 8002ec6 <HAL_UART_IRQHandler+0xa6>
      huart->ErrorCode |= HAL_UART_ERROR_ORE;
 8002ebe:	6c22      	ldr	r2, [r4, #64]	; 0x40
 8002ec0:	f042 0208 	orr.w	r2, r2, #8
 8002ec4:	6422      	str	r2, [r4, #64]	; 0x40
    if (huart->ErrorCode != HAL_UART_ERROR_NONE)
 8002ec6:	6c22      	ldr	r2, [r4, #64]	; 0x40
 8002ec8:	2a00      	cmp	r2, #0
 8002eca:	d0d1      	beq.n	8002e70 <HAL_UART_IRQHandler+0x50>
      if (((isrflags & USART_SR_RXNE) != RESET) && ((cr1its & USART_CR1_RXNEIE) != RESET))
 8002ecc:	f013 0f20 	tst.w	r3, #32
 8002ed0:	d002      	beq.n	8002ed8 <HAL_UART_IRQHandler+0xb8>
 8002ed2:	f010 0f20 	tst.w	r0, #32
 8002ed6:	d129      	bne.n	8002f2c <HAL_UART_IRQHandler+0x10c>
      dmarequest = HAL_IS_BIT_SET(huart->Instance->CR3, USART_CR3_DMAR);
 8002ed8:	6823      	ldr	r3, [r4, #0]
 8002eda:	695b      	ldr	r3, [r3, #20]
 8002edc:	f003 0340 	and.w	r3, r3, #64	; 0x40
      if (((huart->ErrorCode & HAL_UART_ERROR_ORE) != RESET) || dmarequest)
 8002ee0:	6c22      	ldr	r2, [r4, #64]	; 0x40
 8002ee2:	f012 0f08 	tst.w	r2, #8
 8002ee6:	d100      	bne.n	8002eea <HAL_UART_IRQHandler+0xca>
 8002ee8:	b363      	cbz	r3, 8002f44 <HAL_UART_IRQHandler+0x124>
        UART_EndRxTransfer(huart);
 8002eea:	4620      	mov	r0, r4
 8002eec:	f7ff fdd2 	bl	8002a94 <UART_EndRxTransfer>
        if (HAL_IS_BIT_SET(huart->Instance->CR3, USART_CR3_DMAR))
 8002ef0:	6823      	ldr	r3, [r4, #0]
 8002ef2:	695b      	ldr	r3, [r3, #20]
 8002ef4:	f013 0f40 	tst.w	r3, #64	; 0x40
 8002ef8:	d020      	beq.n	8002f3c <HAL_UART_IRQHandler+0x11c>
          ATOMIC_CLEAR_BIT(huart->Instance->CR3, USART_CR3_DMAR);
 8002efa:	6822      	ldr	r2, [r4, #0]
   __ASM volatile ("ldrex %0, %1" : "=r" (result) : "Q" (*addr) );
 8002efc:	f102 0314 	add.w	r3, r2, #20
 8002f00:	e853 3f00 	ldrex	r3, [r3]
 8002f04:	f023 0340 	bic.w	r3, r3, #64	; 0x40
   __ASM volatile ("strex %0, %2, %1" : "=&r" (result), "=Q" (*addr) : "r" (value) );
 8002f08:	3214      	adds	r2, #20
 8002f0a:	e842 3100 	strex	r1, r3, [r2]
 8002f0e:	2900      	cmp	r1, #0
 8002f10:	d1f3      	bne.n	8002efa <HAL_UART_IRQHandler+0xda>
          if (huart->hdmarx != NULL)
 8002f12:	6ba3      	ldr	r3, [r4, #56]	; 0x38
 8002f14:	b173      	cbz	r3, 8002f34 <HAL_UART_IRQHandler+0x114>
            huart->hdmarx->XferAbortCallback = UART_DMAAbortOnError;
 8002f16:	4a61      	ldr	r2, [pc, #388]	; (800309c <HAL_UART_IRQHandler+0x27c>)
 8002f18:	651a      	str	r2, [r3, #80]	; 0x50
            if (HAL_DMA_Abort_IT(huart->hdmarx) != HAL_OK)
 8002f1a:	6ba0      	ldr	r0, [r4, #56]	; 0x38
 8002f1c:	f7fe fc24 	bl	8001768 <HAL_DMA_Abort_IT>
 8002f20:	2800      	cmp	r0, #0
 8002f22:	d0a5      	beq.n	8002e70 <HAL_UART_IRQHandler+0x50>
              huart->hdmarx->XferAbortCallback(huart->hdmarx);
 8002f24:	6ba0      	ldr	r0, [r4, #56]	; 0x38
 8002f26:	6d03      	ldr	r3, [r0, #80]	; 0x50
 8002f28:	4798      	blx	r3
 8002f2a:	e7a1      	b.n	8002e70 <HAL_UART_IRQHandler+0x50>
        UART_Receive_IT(huart);
 8002f2c:	4620      	mov	r0, r4
 8002f2e:	f7ff ff06 	bl	8002d3e <UART_Receive_IT>
 8002f32:	e7d1      	b.n	8002ed8 <HAL_UART_IRQHandler+0xb8>
            HAL_UART_ErrorCallback(huart);
 8002f34:	4620      	mov	r0, r4
 8002f36:	f001 fa65 	bl	8004404 <HAL_UART_ErrorCallback>
 8002f3a:	e799      	b.n	8002e70 <HAL_UART_IRQHandler+0x50>
          HAL_UART_ErrorCallback(huart);
 8002f3c:	4620      	mov	r0, r4
 8002f3e:	f001 fa61 	bl	8004404 <HAL_UART_ErrorCallback>
 8002f42:	e795      	b.n	8002e70 <HAL_UART_IRQHandler+0x50>
        HAL_UART_ErrorCallback(huart);
 8002f44:	4620      	mov	r0, r4
 8002f46:	f001 fa5d 	bl	8004404 <HAL_UART_ErrorCallback>
        huart->ErrorCode = HAL_UART_ERROR_NONE;
 8002f4a:	2300      	movs	r3, #0
 8002f4c:	6423      	str	r3, [r4, #64]	; 0x40
    return;
 8002f4e:	e78f      	b.n	8002e70 <HAL_UART_IRQHandler+0x50>
      && ((isrflags & USART_SR_IDLE) != 0U)
 8002f50:	f013 0f10 	tst.w	r3, #16
 8002f54:	f43f af7e 	beq.w	8002e54 <HAL_UART_IRQHandler+0x34>
      && ((cr1its & USART_SR_IDLE) != 0U))
 8002f58:	f010 0f10 	tst.w	r0, #16
 8002f5c:	f43f af7a 	beq.w	8002e54 <HAL_UART_IRQHandler+0x34>
    __HAL_UART_CLEAR_IDLEFLAG(huart);
 8002f60:	2300      	movs	r3, #0
 8002f62:	9301      	str	r3, [sp, #4]
 8002f64:	6813      	ldr	r3, [r2, #0]
 8002f66:	9301      	str	r3, [sp, #4]
 8002f68:	6853      	ldr	r3, [r2, #4]
 8002f6a:	9301      	str	r3, [sp, #4]
 8002f6c:	9b01      	ldr	r3, [sp, #4]
    if (HAL_IS_BIT_SET(huart->Instance->CR3, USART_CR3_DMAR))
 8002f6e:	6953      	ldr	r3, [r2, #20]
 8002f70:	f013 0f40 	tst.w	r3, #64	; 0x40
 8002f74:	d050      	beq.n	8003018 <HAL_UART_IRQHandler+0x1f8>
      uint16_t nb_remaining_rx_data = (uint16_t) __HAL_DMA_GET_COUNTER(huart->hdmarx);
 8002f76:	6ba2      	ldr	r2, [r4, #56]	; 0x38
 8002f78:	6813      	ldr	r3, [r2, #0]
 8002f7a:	685b      	ldr	r3, [r3, #4]
 8002f7c:	b29b      	uxth	r3, r3
      if ((nb_remaining_rx_data > 0U)
 8002f7e:	2b00      	cmp	r3, #0
 8002f80:	f43f af76 	beq.w	8002e70 <HAL_UART_IRQHandler+0x50>
          && (nb_remaining_rx_data < huart->RxXferSize))
 8002f84:	8da1      	ldrh	r1, [r4, #44]	; 0x2c
 8002f86:	4299      	cmp	r1, r3
 8002f88:	f67f af72 	bls.w	8002e70 <HAL_UART_IRQHandler+0x50>
        huart->RxXferCount = nb_remaining_rx_data;
 8002f8c:	85e3      	strh	r3, [r4, #46]	; 0x2e
        if (huart->hdmarx->Init.Mode != DMA_CIRCULAR)
 8002f8e:	69d3      	ldr	r3, [r2, #28]
 8002f90:	f5b3 7f80 	cmp.w	r3, #256	; 0x100
 8002f94:	d037      	beq.n	8003006 <HAL_UART_IRQHandler+0x1e6>
          ATOMIC_CLEAR_BIT(huart->Instance->CR1, USART_CR1_PEIE);
 8002f96:	6822      	ldr	r2, [r4, #0]
   __ASM volatile ("ldrex %0, %1" : "=r" (result) : "Q" (*addr) );
 8002f98:	f102 030c 	add.w	r3, r2, #12
 8002f9c:	e853 3f00 	ldrex	r3, [r3]
 8002fa0:	f423 7380 	bic.w	r3, r3, #256	; 0x100
   __ASM volatile ("strex %0, %2, %1" : "=&r" (result), "=Q" (*addr) : "r" (value) );
 8002fa4:	320c      	adds	r2, #12
 8002fa6:	e842 3100 	strex	r1, r3, [r2]
 8002faa:	2900      	cmp	r1, #0
 8002fac:	d1f3      	bne.n	8002f96 <HAL_UART_IRQHandler+0x176>
          ATOMIC_CLEAR_BIT(huart->Instance->CR3, USART_CR3_EIE);
 8002fae:	6822      	ldr	r2, [r4, #0]
   __ASM volatile ("ldrex %0, %1" : "=r" (result) : "Q" (*addr) );
 8002fb0:	f102 0314 	add.w	r3, r2, #20
 8002fb4:	e853 3f00 	ldrex	r3, [r3]
 8002fb8:	f023 0301 	bic.w	r3, r3, #1
   __ASM volatile ("strex %0, %2, %1" : "=&r" (result), "=Q" (*addr) : "r" (value) );
 8002fbc:	3214      	adds	r2, #20
 8002fbe:	e842 3100 	strex	r1, r3, [r2]
 8002fc2:	2900      	cmp	r1, #0
 8002fc4:	d1f3      	bne.n	8002fae <HAL_UART_IRQHandler+0x18e>
          ATOMIC_CLEAR_BIT(huart->Instance->CR3, USART_CR3_DMAR);
 8002fc6:	6822      	ldr	r2, [r4, #0]
   __ASM volatile ("ldrex %0, %1" : "=r" (result) : "Q" (*addr) );
 8002fc8:	f102 0314 	add.w	r3, r2, #20
 8002fcc:	e853 3f00 	ldrex	r3, [r3]
 8002fd0:	f023 0340 	bic.w	r3, r3, #64	; 0x40
   __ASM volatile ("strex %0, %2, %1" : "=&r" (result), "=Q" (*addr) : "r" (value) );
 8002fd4:	3214      	adds	r2, #20
 8002fd6:	e842 3100 	strex	r1, r3, [r2]
 8002fda:	2900      	cmp	r1, #0
 8002fdc:	d1f3      	bne.n	8002fc6 <HAL_UART_IRQHandler+0x1a6>
          huart->RxState = HAL_UART_STATE_READY;
 8002fde:	2320      	movs	r3, #32
 8002fe0:	f884 303e 	strb.w	r3, [r4, #62]	; 0x3e
          huart->ReceptionType = HAL_UART_RECEPTION_STANDARD;
 8002fe4:	2300      	movs	r3, #0
 8002fe6:	6323      	str	r3, [r4, #48]	; 0x30
          ATOMIC_CLEAR_BIT(huart->Instance->CR1, USART_CR1_IDLEIE);
 8002fe8:	6822      	ldr	r2, [r4, #0]
   __ASM volatile ("ldrex %0, %1" : "=r" (result) : "Q" (*addr) );
 8002fea:	f102 030c 	add.w	r3, r2, #12
 8002fee:	e853 3f00 	ldrex	r3, [r3]
 8002ff2:	f023 0310 	bic.w	r3, r3, #16
   __ASM volatile ("strex %0, %2, %1" : "=&r" (result), "=Q" (*addr) : "r" (value) );
 8002ff6:	320c      	adds	r2, #12
 8002ff8:	e842 3100 	strex	r1, r3, [r2]
 8002ffc:	2900      	cmp	r1, #0
 8002ffe:	d1f3      	bne.n	8002fe8 <HAL_UART_IRQHandler+0x1c8>
          (void)HAL_DMA_Abort(huart->hdmarx);
 8003000:	6ba0      	ldr	r0, [r4, #56]	; 0x38
 8003002:	f7fe fb67 	bl	80016d4 <HAL_DMA_Abort>
        HAL_UARTEx_RxEventCallback(huart, (huart->RxXferSize - huart->RxXferCount));
 8003006:	8da1      	ldrh	r1, [r4, #44]	; 0x2c
 8003008:	8de3      	ldrh	r3, [r4, #46]	; 0x2e
 800300a:	b29b      	uxth	r3, r3
 800300c:	1ac9      	subs	r1, r1, r3
 800300e:	b289      	uxth	r1, r1
 8003010:	4620      	mov	r0, r4
 8003012:	f7ff fe93 	bl	8002d3c <HAL_UARTEx_RxEventCallback>
      return;
 8003016:	e72b      	b.n	8002e70 <HAL_UART_IRQHandler+0x50>
      uint16_t nb_rx_data = huart->RxXferSize - huart->RxXferCount;
 8003018:	8da1      	ldrh	r1, [r4, #44]	; 0x2c
 800301a:	8de3      	ldrh	r3, [r4, #46]	; 0x2e
 800301c:	b29b      	uxth	r3, r3
 800301e:	1ac9      	subs	r1, r1, r3
 8003020:	b289      	uxth	r1, r1
      if ((huart->RxXferCount > 0U)
 8003022:	8de3      	ldrh	r3, [r4, #46]	; 0x2e
 8003024:	b29b      	uxth	r3, r3
 8003026:	2b00      	cmp	r3, #0
 8003028:	f43f af22 	beq.w	8002e70 <HAL_UART_IRQHandler+0x50>
          && (nb_rx_data > 0U))
 800302c:	2900      	cmp	r1, #0
 800302e:	f43f af1f 	beq.w	8002e70 <HAL_UART_IRQHandler+0x50>
        ATOMIC_CLEAR_BIT(huart->Instance->CR1, (USART_CR1_RXNEIE | USART_CR1_PEIE));
 8003032:	6822      	ldr	r2, [r4, #0]
   __ASM volatile ("ldrex %0, %1" : "=r" (result) : "Q" (*addr) );
 8003034:	f102 030c 	add.w	r3, r2, #12
 8003038:	e853 3f00 	ldrex	r3, [r3]
 800303c:	f423 7390 	bic.w	r3, r3, #288	; 0x120
   __ASM volatile ("strex %0, %2, %1" : "=&r" (result), "=Q" (*addr) : "r" (value) );
 8003040:	320c      	adds	r2, #12
 8003042:	e842 3000 	strex	r0, r3, [r2]
 8003046:	2800      	cmp	r0, #0
 8003048:	d1f3      	bne.n	8003032 <HAL_UART_IRQHandler+0x212>
        ATOMIC_CLEAR_BIT(huart->Instance->CR3, USART_CR3_EIE);
 800304a:	6822      	ldr	r2, [r4, #0]
   __ASM volatile ("ldrex %0, %1" : "=r" (result) : "Q" (*addr) );
 800304c:	f102 0314 	add.w	r3, r2, #20
 8003050:	e853 3f00 	ldrex	r3, [r3]
 8003054:	f023 0301 	bic.w	r3, r3, #1
   __ASM volatile ("strex %0, %2, %1" : "=&r" (result), "=Q" (*addr) : "r" (value) );
 8003058:	3214      	adds	r2, #20
 800305a:	e842 3000 	strex	r0, r3, [r2]
 800305e:	2800      	cmp	r0, #0
 8003060:	d1f3      	bne.n	800304a <HAL_UART_IRQHandler+0x22a>
        huart->RxState = HAL_UART_STATE_READY;
 8003062:	2320      	movs	r3, #32
 8003064:	f884 303e 	strb.w	r3, [r4, #62]	; 0x3e
        huart->ReceptionType = HAL_UART_RECEPTION_STANDARD;
 8003068:	2300      	movs	r3, #0
 800306a:	6323      	str	r3, [r4, #48]	; 0x30
        ATOMIC_CLEAR_BIT(huart->Instance->CR1, USART_CR1_IDLEIE);
 800306c:	6822      	ldr	r2, [r4, #0]
   __ASM volatile ("ldrex %0, %1" : "=r" (result) : "Q" (*addr) );
 800306e:	f102 030c 	add.w	r3, r2, #12
 8003072:	e853 3f00 	ldrex	r3, [r3]
 8003076:	f023 0310 	bic.w	r3, r3, #16
   __ASM volatile ("strex %0, %2, %1" : "=&r" (result), "=Q" (*addr) : "r" (value) );
 800307a:	320c      	adds	r2, #12
 800307c:	e842 3000 	strex	r0, r3, [r2]
 8003080:	2800      	cmp	r0, #0
 8003082:	d1f3      	bne.n	800306c <HAL_UART_IRQHandler+0x24c>
        HAL_UARTEx_RxEventCallback(huart, nb_rx_data);
 8003084:	4620      	mov	r0, r4
 8003086:	f7ff fe59 	bl	8002d3c <HAL_UARTEx_RxEventCallback>
      return;
 800308a:	e6f1      	b.n	8002e70 <HAL_UART_IRQHandler+0x50>
    UART_Transmit_IT(huart);
 800308c:	4620      	mov	r0, r4
 800308e:	f7ff fd2f 	bl	8002af0 <UART_Transmit_IT>
    return;
 8003092:	e6ed      	b.n	8002e70 <HAL_UART_IRQHandler+0x50>
    UART_EndTransmit_IT(huart);
 8003094:	4620      	mov	r0, r4
 8003096:	f7ff fe3c 	bl	8002d12 <UART_EndTransmit_IT>
    return;
 800309a:	e6e9      	b.n	8002e70 <HAL_UART_IRQHandler+0x50>
 800309c:	08002d2d 	.word	0x08002d2d

080030a0 <UART_Start_Receive_IT>:
{
 80030a0:	4603      	mov	r3, r0
  huart->pRxBuffPtr = pData;
 80030a2:	6281      	str	r1, [r0, #40]	; 0x28
  huart->RxXferSize = Size;
 80030a4:	8582      	strh	r2, [r0, #44]	; 0x2c
  huart->RxXferCount = Size;
 80030a6:	85c2      	strh	r2, [r0, #46]	; 0x2e
  huart->ErrorCode = HAL_UART_ERROR_NONE;
 80030a8:	2000      	movs	r0, #0
 80030aa:	6418      	str	r0, [r3, #64]	; 0x40
  huart->RxState = HAL_UART_STATE_BUSY_RX;
 80030ac:	2222      	movs	r2, #34	; 0x22
 80030ae:	f883 203e 	strb.w	r2, [r3, #62]	; 0x3e
  __HAL_UNLOCK(huart);
 80030b2:	f883 003c 	strb.w	r0, [r3, #60]	; 0x3c
  __HAL_UART_ENABLE_IT(huart, UART_IT_PE);
 80030b6:	6819      	ldr	r1, [r3, #0]
 80030b8:	68ca      	ldr	r2, [r1, #12]
 80030ba:	f442 7280 	orr.w	r2, r2, #256	; 0x100
 80030be:	60ca      	str	r2, [r1, #12]
  __HAL_UART_ENABLE_IT(huart, UART_IT_ERR);
 80030c0:	6819      	ldr	r1, [r3, #0]
 80030c2:	694a      	ldr	r2, [r1, #20]
 80030c4:	f042 0201 	orr.w	r2, r2, #1
 80030c8:	614a      	str	r2, [r1, #20]
  __HAL_UART_ENABLE_IT(huart, UART_IT_RXNE);
 80030ca:	681a      	ldr	r2, [r3, #0]
 80030cc:	68d3      	ldr	r3, [r2, #12]
 80030ce:	f043 0320 	orr.w	r3, r3, #32
 80030d2:	60d3      	str	r3, [r2, #12]
}
 80030d4:	4770      	bx	lr

080030d6 <HAL_UART_Receive_IT>:
{
 80030d6:	b508      	push	{r3, lr}
  if (huart->RxState == HAL_UART_STATE_READY)
 80030d8:	f890 303e 	ldrb.w	r3, [r0, #62]	; 0x3e
 80030dc:	b2db      	uxtb	r3, r3
 80030de:	2b20      	cmp	r3, #32
 80030e0:	d10d      	bne.n	80030fe <HAL_UART_Receive_IT+0x28>
    if ((pData == NULL) || (Size == 0U))
 80030e2:	b171      	cbz	r1, 8003102 <HAL_UART_Receive_IT+0x2c>
 80030e4:	b17a      	cbz	r2, 8003106 <HAL_UART_Receive_IT+0x30>
    __HAL_LOCK(huart);
 80030e6:	f890 303c 	ldrb.w	r3, [r0, #60]	; 0x3c
 80030ea:	2b01      	cmp	r3, #1
 80030ec:	d00d      	beq.n	800310a <HAL_UART_Receive_IT+0x34>
 80030ee:	2301      	movs	r3, #1
 80030f0:	f880 303c 	strb.w	r3, [r0, #60]	; 0x3c
    huart->ReceptionType = HAL_UART_RECEPTION_STANDARD;
 80030f4:	2300      	movs	r3, #0
 80030f6:	6303      	str	r3, [r0, #48]	; 0x30
    return (UART_Start_Receive_IT(huart, pData, Size));
 80030f8:	f7ff ffd2 	bl	80030a0 <UART_Start_Receive_IT>
 80030fc:	e000      	b.n	8003100 <HAL_UART_Receive_IT+0x2a>
    return HAL_BUSY;
 80030fe:	2002      	movs	r0, #2
}
 8003100:	bd08      	pop	{r3, pc}
      return HAL_ERROR;
 8003102:	2001      	movs	r0, #1
 8003104:	e7fc      	b.n	8003100 <HAL_UART_Receive_IT+0x2a>
 8003106:	2001      	movs	r0, #1
 8003108:	e7fa      	b.n	8003100 <HAL_UART_Receive_IT+0x2a>
    __HAL_LOCK(huart);
 800310a:	2002      	movs	r0, #2
 800310c:	e7f8      	b.n	8003100 <HAL_UART_Receive_IT+0x2a>
	...

08003110 <HAL_ADCEx_InjectedConvCpltCallback>:
  * @param  hadc: pointer to a ADC_HandleTypeDef structure that contains
  *         the configuration information for the specified ADC.
  * @retval None
  */
void HAL_ADCEx_InjectedConvCpltCallback (ADC_HandleTypeDef* hadc)
{
 8003110:	b538      	push	{r3, r4, r5, lr}
 8003112:	4605      	mov	r5, r0
	pot1ADCacc += HAL_ADCEx_InjectedGetValue(hadc,ADC_INJECTED_RANK_1);
 8003114:	2101      	movs	r1, #1
 8003116:	f7fd fd67 	bl	8000be8 <HAL_ADCEx_InjectedGetValue>
 800311a:	4c17      	ldr	r4, [pc, #92]	; (8003178 <HAL_ADCEx_InjectedConvCpltCallback+0x68>)
 800311c:	6823      	ldr	r3, [r4, #0]
 800311e:	4403      	add	r3, r0
 8003120:	6023      	str	r3, [r4, #0]
	pot2ADCacc += HAL_ADCEx_InjectedGetValue(hadc,ADC_INJECTED_RANK_2);
 8003122:	2102      	movs	r1, #2
 8003124:	4628      	mov	r0, r5
 8003126:	f7fd fd5f 	bl	8000be8 <HAL_ADCEx_InjectedGetValue>
 800312a:	6863      	ldr	r3, [r4, #4]
 800312c:	4403      	add	r3, r0
 800312e:	6063      	str	r3, [r4, #4]
	pot1ADCcnt++;
 8003130:	68a3      	ldr	r3, [r4, #8]
 8003132:	3301      	adds	r3, #1
 8003134:	60a3      	str	r3, [r4, #8]
	if (pot1ADCcnt >= POT1_AVN)
 8003136:	68a3      	ldr	r3, [r4, #8]
 8003138:	2b3f      	cmp	r3, #63	; 0x3f
 800313a:	d909      	bls.n	8003150 <HAL_ADCEx_InjectedConvCpltCallback+0x40>
	  {
		pot1ADCval = pot1ADCacc / POT1_AVN;
 800313c:	6822      	ldr	r2, [r4, #0]
 800313e:	f3c2 128f 	ubfx	r2, r2, #6, #16
 8003142:	81a2      	strh	r2, [r4, #12]
		pot1ADCacc = 0;
 8003144:	2200      	movs	r2, #0
 8003146:	6022      	str	r2, [r4, #0]
		pot1ADCcnt = 0;
 8003148:	60a2      	str	r2, [r4, #8]
		pot1ADCrdy++;
 800314a:	6922      	ldr	r2, [r4, #16]
 800314c:	3201      	adds	r2, #1
 800314e:	6122      	str	r2, [r4, #16]
	  }
	pot2ADCcnt++;
 8003150:	4b09      	ldr	r3, [pc, #36]	; (8003178 <HAL_ADCEx_InjectedConvCpltCallback+0x68>)
 8003152:	695a      	ldr	r2, [r3, #20]
 8003154:	3201      	adds	r2, #1
 8003156:	615a      	str	r2, [r3, #20]
	if (pot2ADCcnt >= POT2_AVN)
 8003158:	695b      	ldr	r3, [r3, #20]
 800315a:	2b3f      	cmp	r3, #63	; 0x3f
 800315c:	d90a      	bls.n	8003174 <HAL_ADCEx_InjectedConvCpltCallback+0x64>
	  {
		pot2ADCval = pot2ADCacc / POT2_AVN;
 800315e:	4b06      	ldr	r3, [pc, #24]	; (8003178 <HAL_ADCEx_InjectedConvCpltCallback+0x68>)
 8003160:	685a      	ldr	r2, [r3, #4]
 8003162:	f3c2 128f 	ubfx	r2, r2, #6, #16
 8003166:	831a      	strh	r2, [r3, #24]
		pot2ADCacc = 0;
 8003168:	2200      	movs	r2, #0
 800316a:	605a      	str	r2, [r3, #4]
		pot2ADCcnt = 0;
 800316c:	615a      	str	r2, [r3, #20]
		pot2ADCrdy++;
 800316e:	69da      	ldr	r2, [r3, #28]
 8003170:	3201      	adds	r2, #1
 8003172:	61da      	str	r2, [r3, #28]
	  }
}
 8003174:	bd38      	pop	{r3, r4, r5, pc}
 8003176:	bf00      	nop
 8003178:	20000094 	.word	0x20000094

0800317c <InitADCmodule>:
  * @param  none
  * @retval none
  */

void InitADCmodule ()
{
 800317c:	b508      	push	{r3, lr}
   pot1ADCval = 0;
 800317e:	4b07      	ldr	r3, [pc, #28]	; (800319c <InitADCmodule+0x20>)
 8003180:	2200      	movs	r2, #0
 8003182:	819a      	strh	r2, [r3, #12]
   pot1ADCacc = 0;
 8003184:	601a      	str	r2, [r3, #0]
   pot1ADCcnt = 0;
 8003186:	609a      	str	r2, [r3, #8]
   pot1ADCrdy = 0;
 8003188:	611a      	str	r2, [r3, #16]
   pot2ADCval = 0;
 800318a:	831a      	strh	r2, [r3, #24]
   pot2ADCacc = 0;
 800318c:	605a      	str	r2, [r3, #4]
   pot2ADCcnt = 0;
 800318e:	615a      	str	r2, [r3, #20]
   pot2ADCrdy = 0;
 8003190:	61da      	str	r2, [r3, #28]
   HAL_ADCEx_InjectedStart_IT(&hadc1);
 8003192:	4803      	ldr	r0, [pc, #12]	; (80031a0 <InitADCmodule+0x24>)
 8003194:	f7fd fca2 	bl	8000adc <HAL_ADCEx_InjectedStart_IT>
}
 8003198:	bd08      	pop	{r3, pc}
 800319a:	bf00      	nop
 800319c:	20000094 	.word	0x20000094
 80031a0:	20000a4c 	.word	0x20000a4c

080031a4 <GetADCChannelValue>:

int GetADCChannelValue(uint8_t ch, uint16_t *value)
{
  int status = 0;

	switch (ch)
 80031a4:	2801      	cmp	r0, #1
 80031a6:	d003      	beq.n	80031b0 <GetADCChannelValue+0xc>
 80031a8:	2802      	cmp	r0, #2
 80031aa:	d012      	beq.n	80031d2 <GetADCChannelValue+0x2e>
 80031ac:	2000      	movs	r0, #0
 80031ae:	4770      	bx	lr
	  {
		case POT1_CH:
			if (pot1ADCrdy != 0)
 80031b0:	4b12      	ldr	r3, [pc, #72]	; (80031fc <GetADCChannelValue+0x58>)
 80031b2:	691b      	ldr	r3, [r3, #16]
 80031b4:	b1f3      	cbz	r3, 80031f4 <GetADCChannelValue+0x50>
			  {
				*value = pot1ADCval;
 80031b6:	4b11      	ldr	r3, [pc, #68]	; (80031fc <GetADCChannelValue+0x58>)
 80031b8:	899a      	ldrh	r2, [r3, #12]
 80031ba:	800a      	strh	r2, [r1, #0]
				status = -1;
				if (pot1ADCrdy == 1) status = 1;
 80031bc:	691b      	ldr	r3, [r3, #16]
 80031be:	2b01      	cmp	r3, #1
 80031c0:	d005      	beq.n	80031ce <GetADCChannelValue+0x2a>
				status = -1;
 80031c2:	f04f 30ff 	mov.w	r0, #4294967295
				pot1ADCrdy = 0;
 80031c6:	4b0d      	ldr	r3, [pc, #52]	; (80031fc <GetADCChannelValue+0x58>)
 80031c8:	2200      	movs	r2, #0
 80031ca:	611a      	str	r2, [r3, #16]
 80031cc:	4770      	bx	lr
				if (pot1ADCrdy == 1) status = 1;
 80031ce:	2001      	movs	r0, #1
 80031d0:	e7f9      	b.n	80031c6 <GetADCChannelValue+0x22>
			  }
			break;
		case POT2_CH:
			if (pot2ADCrdy != 0)
 80031d2:	4b0a      	ldr	r3, [pc, #40]	; (80031fc <GetADCChannelValue+0x58>)
 80031d4:	69db      	ldr	r3, [r3, #28]
 80031d6:	b17b      	cbz	r3, 80031f8 <GetADCChannelValue+0x54>
			  {
				*value = pot2ADCval;
 80031d8:	4b08      	ldr	r3, [pc, #32]	; (80031fc <GetADCChannelValue+0x58>)
 80031da:	8b1a      	ldrh	r2, [r3, #24]
 80031dc:	800a      	strh	r2, [r1, #0]
				status = -1;
				if (pot2ADCrdy == 1) status = 1;
 80031de:	69db      	ldr	r3, [r3, #28]
 80031e0:	2b01      	cmp	r3, #1
 80031e2:	d005      	beq.n	80031f0 <GetADCChannelValue+0x4c>
				status = -1;
 80031e4:	f04f 30ff 	mov.w	r0, #4294967295
				pot2ADCrdy = 0;
 80031e8:	4b04      	ldr	r3, [pc, #16]	; (80031fc <GetADCChannelValue+0x58>)
 80031ea:	2200      	movs	r2, #0
 80031ec:	61da      	str	r2, [r3, #28]
 80031ee:	4770      	bx	lr
				if (pot2ADCrdy == 1) status = 1;
 80031f0:	2001      	movs	r0, #1
 80031f2:	e7f9      	b.n	80031e8 <GetADCChannelValue+0x44>
  int status = 0;
 80031f4:	2000      	movs	r0, #0
 80031f6:	4770      	bx	lr
 80031f8:	2000      	movs	r0, #0
			  }
			break;
		default:;
	  }
	return(status);
}
 80031fa:	4770      	bx	lr
 80031fc:	20000094 	.word	0x20000094

08003200 <MX_GPIO_Init>:
  * @brief GPIO Initialization Function
  * @param None
  * @retval None
  */
static void MX_GPIO_Init(void)
{
 8003200:	e92d 41f0 	stmdb	sp!, {r4, r5, r6, r7, r8, lr}
 8003204:	b08a      	sub	sp, #40	; 0x28
  GPIO_InitTypeDef GPIO_InitStruct = {0};
 8003206:	2400      	movs	r4, #0
 8003208:	9405      	str	r4, [sp, #20]
 800320a:	9406      	str	r4, [sp, #24]
 800320c:	9407      	str	r4, [sp, #28]
 800320e:	9408      	str	r4, [sp, #32]
 8003210:	9409      	str	r4, [sp, #36]	; 0x24

  /* GPIO Ports Clock Enable */
  __HAL_RCC_GPIOC_CLK_ENABLE();
 8003212:	9401      	str	r4, [sp, #4]
 8003214:	4b37      	ldr	r3, [pc, #220]	; (80032f4 <MX_GPIO_Init+0xf4>)
 8003216:	6b1a      	ldr	r2, [r3, #48]	; 0x30
 8003218:	f042 0204 	orr.w	r2, r2, #4
 800321c:	631a      	str	r2, [r3, #48]	; 0x30
 800321e:	6b1a      	ldr	r2, [r3, #48]	; 0x30
 8003220:	f002 0204 	and.w	r2, r2, #4
 8003224:	9201      	str	r2, [sp, #4]
 8003226:	9a01      	ldr	r2, [sp, #4]
  __HAL_RCC_GPIOH_CLK_ENABLE();
 8003228:	9402      	str	r4, [sp, #8]
 800322a:	6b1a      	ldr	r2, [r3, #48]	; 0x30
 800322c:	f042 0280 	orr.w	r2, r2, #128	; 0x80
 8003230:	631a      	str	r2, [r3, #48]	; 0x30
 8003232:	6b1a      	ldr	r2, [r3, #48]	; 0x30
 8003234:	f002 0280 	and.w	r2, r2, #128	; 0x80
 8003238:	9202      	str	r2, [sp, #8]
 800323a:	9a02      	ldr	r2, [sp, #8]
  __HAL_RCC_GPIOA_CLK_ENABLE();
 800323c:	9403      	str	r4, [sp, #12]
 800323e:	6b1a      	ldr	r2, [r3, #48]	; 0x30
 8003240:	f042 0201 	orr.w	r2, r2, #1
 8003244:	631a      	str	r2, [r3, #48]	; 0x30
 8003246:	6b1a      	ldr	r2, [r3, #48]	; 0x30
 8003248:	f002 0201 	and.w	r2, r2, #1
 800324c:	9203      	str	r2, [sp, #12]
 800324e:	9a03      	ldr	r2, [sp, #12]
  __HAL_RCC_GPIOB_CLK_ENABLE();
 8003250:	9404      	str	r4, [sp, #16]
 8003252:	6b1a      	ldr	r2, [r3, #48]	; 0x30
 8003254:	f042 0202 	orr.w	r2, r2, #2
 8003258:	631a      	str	r2, [r3, #48]	; 0x30
 800325a:	6b1b      	ldr	r3, [r3, #48]	; 0x30
 800325c:	f003 0302 	and.w	r3, r3, #2
 8003260:	9304      	str	r3, [sp, #16]
 8003262:	9b04      	ldr	r3, [sp, #16]

  /*Configure GPIO pin Output Level */
  HAL_GPIO_WritePin(GREEN_LED_GPIO_Port, GREEN_LED_Pin, GPIO_PIN_RESET);
 8003264:	f8df 8098 	ldr.w	r8, [pc, #152]	; 8003300 <MX_GPIO_Init+0x100>
 8003268:	4622      	mov	r2, r4
 800326a:	2120      	movs	r1, #32
 800326c:	4640      	mov	r0, r8
 800326e:	f7fe fb7a 	bl	8001966 <HAL_GPIO_WritePin>

  /*Configure GPIO pin Output Level */
  HAL_GPIO_WritePin(GPIOB, USR_LED2_Pin|USR_LED1_Pin, GPIO_PIN_RESET);
 8003272:	4e21      	ldr	r6, [pc, #132]	; (80032f8 <MX_GPIO_Init+0xf8>)
 8003274:	4622      	mov	r2, r4
 8003276:	2106      	movs	r1, #6
 8003278:	4630      	mov	r0, r6
 800327a:	f7fe fb74 	bl	8001966 <HAL_GPIO_WritePin>

  /*Configure GPIO pin Output Level */
  HAL_GPIO_WritePin(GPIOC, USR_LED5_Pin|USR_LED3_Pin|USR_LED6_Pin|USR_LED4_Pin, GPIO_PIN_RESET);
 800327e:	4f1f      	ldr	r7, [pc, #124]	; (80032fc <MX_GPIO_Init+0xfc>)
 8003280:	4622      	mov	r2, r4
 8003282:	f44f 7170 	mov.w	r1, #960	; 0x3c0
 8003286:	4638      	mov	r0, r7
 8003288:	f7fe fb6d 	bl	8001966 <HAL_GPIO_WritePin>

  /*Configure GPIO pin : GREEN_LED_Pin */
  GPIO_InitStruct.Pin = GREEN_LED_Pin;
 800328c:	2320      	movs	r3, #32
 800328e:	9305      	str	r3, [sp, #20]
  GPIO_InitStruct.Mode = GPIO_MODE_OUTPUT_PP;
 8003290:	2501      	movs	r5, #1
 8003292:	9506      	str	r5, [sp, #24]
  GPIO_InitStruct.Pull = GPIO_NOPULL;
 8003294:	9407      	str	r4, [sp, #28]
  GPIO_InitStruct.Speed = GPIO_SPEED_FREQ_MEDIUM;
 8003296:	9508      	str	r5, [sp, #32]
  HAL_GPIO_Init(GREEN_LED_GPIO_Port, &GPIO_InitStruct);
 8003298:	a905      	add	r1, sp, #20
 800329a:	4640      	mov	r0, r8
 800329c:	f7fe fa78 	bl	8001790 <HAL_GPIO_Init>

  /*Configure GPIO pins : USR_LED2_Pin USR_LED1_Pin */
  GPIO_InitStruct.Pin = USR_LED2_Pin|USR_LED1_Pin;
 80032a0:	2306      	movs	r3, #6
 80032a2:	9305      	str	r3, [sp, #20]
  GPIO_InitStruct.Mode = GPIO_MODE_OUTPUT_PP;
 80032a4:	9506      	str	r5, [sp, #24]
  GPIO_InitStruct.Pull = GPIO_NOPULL;
 80032a6:	9407      	str	r4, [sp, #28]
  GPIO_InitStruct.Speed = GPIO_SPEED_FREQ_MEDIUM;
 80032a8:	9508      	str	r5, [sp, #32]
  HAL_GPIO_Init(GPIOB, &GPIO_InitStruct);
 80032aa:	a905      	add	r1, sp, #20
 80032ac:	4630      	mov	r0, r6
 80032ae:	f7fe fa6f 	bl	8001790 <HAL_GPIO_Init>

  /*Configure GPIO pins : USR_SW1_Pin USR_SW4_Pin USR_SW3_Pin USR_SW2_Pin */
  GPIO_InitStruct.Pin = USR_SW1_Pin|USR_SW4_Pin|USR_SW3_Pin|USR_SW2_Pin;
 80032b2:	f44f 4370 	mov.w	r3, #61440	; 0xf000
 80032b6:	9305      	str	r3, [sp, #20]
  GPIO_InitStruct.Mode = GPIO_MODE_IT_RISING_FALLING;
 80032b8:	f44f 1344 	mov.w	r3, #3211264	; 0x310000
 80032bc:	9306      	str	r3, [sp, #24]
  GPIO_InitStruct.Pull = GPIO_NOPULL;
 80032be:	9407      	str	r4, [sp, #28]
  HAL_GPIO_Init(GPIOB, &GPIO_InitStruct);
 80032c0:	a905      	add	r1, sp, #20
 80032c2:	4630      	mov	r0, r6
 80032c4:	f7fe fa64 	bl	8001790 <HAL_GPIO_Init>

  /*Configure GPIO pins : USR_LED5_Pin USR_LED3_Pin USR_LED6_Pin USR_LED4_Pin */
  GPIO_InitStruct.Pin = USR_LED5_Pin|USR_LED3_Pin|USR_LED6_Pin|USR_LED4_Pin;
 80032c8:	f44f 7370 	mov.w	r3, #960	; 0x3c0
 80032cc:	9305      	str	r3, [sp, #20]
  GPIO_InitStruct.Mode = GPIO_MODE_OUTPUT_PP;
 80032ce:	9506      	str	r5, [sp, #24]
  GPIO_InitStruct.Pull = GPIO_NOPULL;
 80032d0:	9407      	str	r4, [sp, #28]
  GPIO_InitStruct.Speed = GPIO_SPEED_FREQ_MEDIUM;
 80032d2:	9508      	str	r5, [sp, #32]
  HAL_GPIO_Init(GPIOC, &GPIO_InitStruct);
 80032d4:	a905      	add	r1, sp, #20
 80032d6:	4638      	mov	r0, r7
 80032d8:	f7fe fa5a 	bl	8001790 <HAL_GPIO_Init>

  /* EXTI interrupt init*/
  HAL_NVIC_SetPriority(EXTI15_10_IRQn, 8, 0);
 80032dc:	4622      	mov	r2, r4
 80032de:	2108      	movs	r1, #8
 80032e0:	2028      	movs	r0, #40	; 0x28
 80032e2:	f7fe f99b 	bl	800161c <HAL_NVIC_SetPriority>
  HAL_NVIC_EnableIRQ(EXTI15_10_IRQn);
 80032e6:	2028      	movs	r0, #40	; 0x28
 80032e8:	f7fe f9cc 	bl	8001684 <HAL_NVIC_EnableIRQ>

}
 80032ec:	b00a      	add	sp, #40	; 0x28
 80032ee:	e8bd 81f0 	ldmia.w	sp!, {r4, r5, r6, r7, r8, pc}
 80032f2:	bf00      	nop
 80032f4:	40023800 	.word	0x40023800
 80032f8:	40020400 	.word	0x40020400
 80032fc:	40020800 	.word	0x40020800
 8003300:	40020000 	.word	0x40020000

08003304 <HAL_TIM_PeriodElapsedCallback>:
  *                the configuration information for TIM module.
  * @retval None
  */
void HAL_TIM_PeriodElapsedCallback(TIM_HandleTypeDef *htim)
{
	  if (htim->Instance == TIM1)
 8003304:	6802      	ldr	r2, [r0, #0]
 8003306:	4b0b      	ldr	r3, [pc, #44]	; (8003334 <HAL_TIM_PeriodElapsedCallback+0x30>)
 8003308:	429a      	cmp	r2, r3
 800330a:	d000      	beq.n	800330e <HAL_TIM_PeriodElapsedCallback+0xa>
		 {
			ctrlTick++;
			ctrlCnt = 0;
		 }
	  }
}
 800330c:	4770      	bx	lr
		ctrlCnt++;
 800330e:	4a0a      	ldr	r2, [pc, #40]	; (8003338 <HAL_TIM_PeriodElapsedCallback+0x34>)
 8003310:	8813      	ldrh	r3, [r2, #0]
 8003312:	b29b      	uxth	r3, r3
 8003314:	3301      	adds	r3, #1
 8003316:	b29b      	uxth	r3, r3
 8003318:	8013      	strh	r3, [r2, #0]
		if (ctrlCnt >= CTRLLOOP_PER)
 800331a:	8813      	ldrh	r3, [r2, #0]
 800331c:	b29b      	uxth	r3, r3
 800331e:	2b03      	cmp	r3, #3
 8003320:	d9f4      	bls.n	800330c <HAL_TIM_PeriodElapsedCallback+0x8>
			ctrlTick++;
 8003322:	8853      	ldrh	r3, [r2, #2]
 8003324:	b29b      	uxth	r3, r3
 8003326:	3301      	adds	r3, #1
 8003328:	b29b      	uxth	r3, r3
 800332a:	8053      	strh	r3, [r2, #2]
			ctrlCnt = 0;
 800332c:	2300      	movs	r3, #0
 800332e:	8013      	strh	r3, [r2, #0]
}
 8003330:	e7ec      	b.n	800330c <HAL_TIM_PeriodElapsedCallback+0x8>
 8003332:	bf00      	nop
 8003334:	40010000 	.word	0x40010000
 8003338:	200000b4 	.word	0x200000b4

0800333c <HAL_GPIO_EXTI_Callback>:
  * @param  GPIO_Pin Specifies the port pin connected to corresponding EXTI line.
  * @retval None
  */
void HAL_GPIO_EXTI_Callback(uint16_t GPIO_Pin)
{
	switch(GPIO_Pin)
 800333c:	f5b0 4f80 	cmp.w	r0, #16384	; 0x4000
 8003340:	d017      	beq.n	8003372 <HAL_GPIO_EXTI_Callback+0x36>
 8003342:	d80a      	bhi.n	800335a <HAL_GPIO_EXTI_Callback+0x1e>
 8003344:	f5b0 5f80 	cmp.w	r0, #4096	; 0x1000
 8003348:	d00f      	beq.n	800336a <HAL_GPIO_EXTI_Callback+0x2e>
 800334a:	f5b0 5f00 	cmp.w	r0, #8192	; 0x2000
 800334e:	d103      	bne.n	8003358 <HAL_GPIO_EXTI_Callback+0x1c>
			break;
		case USR_SW3_Pin:
			sw3Block = SWBLOCK_PER;
			break;
		case USR_SW4_Pin:
			sw4Block = SWBLOCK_PER;
 8003350:	4b0a      	ldr	r3, [pc, #40]	; (800337c <HAL_GPIO_EXTI_Callback+0x40>)
 8003352:	2232      	movs	r2, #50	; 0x32
 8003354:	71da      	strb	r2, [r3, #7]
			break;
		default:;
	  }
}
 8003356:	4770      	bx	lr
 8003358:	4770      	bx	lr
	switch(GPIO_Pin)
 800335a:	f5b0 4f00 	cmp.w	r0, #32768	; 0x8000
 800335e:	d103      	bne.n	8003368 <HAL_GPIO_EXTI_Callback+0x2c>
			sw2Block = SWBLOCK_PER;
 8003360:	4b06      	ldr	r3, [pc, #24]	; (800337c <HAL_GPIO_EXTI_Callback+0x40>)
 8003362:	2232      	movs	r2, #50	; 0x32
 8003364:	715a      	strb	r2, [r3, #5]
			break;
 8003366:	4770      	bx	lr
 8003368:	4770      	bx	lr
			sw1Block = SWBLOCK_PER;
 800336a:	4b04      	ldr	r3, [pc, #16]	; (800337c <HAL_GPIO_EXTI_Callback+0x40>)
 800336c:	2232      	movs	r2, #50	; 0x32
 800336e:	711a      	strb	r2, [r3, #4]
			break;
 8003370:	4770      	bx	lr
			sw3Block = SWBLOCK_PER;
 8003372:	4b02      	ldr	r3, [pc, #8]	; (800337c <HAL_GPIO_EXTI_Callback+0x40>)
 8003374:	2232      	movs	r2, #50	; 0x32
 8003376:	719a      	strb	r2, [r3, #6]
			break;
 8003378:	4770      	bx	lr
 800337a:	bf00      	nop
 800337c:	200000b4 	.word	0x200000b4

08003380 <COMerrorSignal>:
  * @brief  Generating USART Communication Error Message.
  *
  * @retval None
  */
void COMerrorSignal()
{
 8003380:	b508      	push	{r3, lr}
	HAL_GPIO_WritePin(USR_LED5_GPIO_Port,USR_LED5_Pin,GPIO_PIN_SET);
 8003382:	2201      	movs	r2, #1
 8003384:	2140      	movs	r1, #64	; 0x40
 8003386:	4803      	ldr	r0, [pc, #12]	; (8003394 <COMerrorSignal+0x14>)
 8003388:	f7fe faed 	bl	8001966 <HAL_GPIO_WritePin>
	led5signCnt = ERRSIGN_PER;
 800338c:	4b02      	ldr	r3, [pc, #8]	; (8003398 <COMerrorSignal+0x18>)
 800338e:	2264      	movs	r2, #100	; 0x64
 8003390:	811a      	strh	r2, [r3, #8]
}
 8003392:	bd08      	pop	{r3, pc}
 8003394:	40020800 	.word	0x40020800
 8003398:	200000b4 	.word	0x200000b4

0800339c <CMDerrorSignal>:
  * @brief  Generating Command Error Message.
  *
  * @retval None
  */
void CMDerrorSignal()
{
 800339c:	b508      	push	{r3, lr}
	HAL_GPIO_WritePin(USR_LED6_GPIO_Port,USR_LED6_Pin,GPIO_PIN_SET);
 800339e:	2201      	movs	r2, #1
 80033a0:	f44f 7180 	mov.w	r1, #256	; 0x100
 80033a4:	4803      	ldr	r0, [pc, #12]	; (80033b4 <CMDerrorSignal+0x18>)
 80033a6:	f7fe fade 	bl	8001966 <HAL_GPIO_WritePin>
	led6signCnt = ERRSIGN_PER;
 80033aa:	4b03      	ldr	r3, [pc, #12]	; (80033b8 <CMDerrorSignal+0x1c>)
 80033ac:	2264      	movs	r2, #100	; 0x64
 80033ae:	815a      	strh	r2, [r3, #10]
}
 80033b0:	bd08      	pop	{r3, pc}
 80033b2:	bf00      	nop
 80033b4:	40020800 	.word	0x40020800
 80033b8:	200000b4 	.word	0x200000b4

080033bc <UpdateOperModeLEDs>:
  * @brief  Updating Operation Mode LEDs.
  * @param  none
  * @retval None
  */
void UpdateOperModeLEDs()
{
 80033bc:	b508      	push	{r3, lr}
	if ((operMode & OPMODE_S1) != 0)
 80033be:	4b21      	ldr	r3, [pc, #132]	; (8003444 <UpdateOperModeLEDs+0x88>)
 80033c0:	7b1b      	ldrb	r3, [r3, #12]
 80033c2:	f013 0f01 	tst.w	r3, #1
 80033c6:	d024      	beq.n	8003412 <UpdateOperModeLEDs+0x56>
		HAL_GPIO_WritePin(USR_LED1_GPIO_Port,USR_LED1_Pin,GPIO_PIN_SET);
 80033c8:	2201      	movs	r2, #1
 80033ca:	2104      	movs	r1, #4
 80033cc:	481e      	ldr	r0, [pc, #120]	; (8003448 <UpdateOperModeLEDs+0x8c>)
 80033ce:	f7fe faca 	bl	8001966 <HAL_GPIO_WritePin>
	else
		HAL_GPIO_WritePin(USR_LED1_GPIO_Port,USR_LED1_Pin,GPIO_PIN_RESET);
	if ((operMode & OPMODE_S2) != 0)
 80033d2:	4b1c      	ldr	r3, [pc, #112]	; (8003444 <UpdateOperModeLEDs+0x88>)
 80033d4:	7b1b      	ldrb	r3, [r3, #12]
 80033d6:	f013 0f02 	tst.w	r3, #2
 80033da:	d020      	beq.n	800341e <UpdateOperModeLEDs+0x62>
		HAL_GPIO_WritePin(USR_LED2_GPIO_Port,USR_LED2_Pin,GPIO_PIN_SET);
 80033dc:	2201      	movs	r2, #1
 80033de:	2102      	movs	r1, #2
 80033e0:	4819      	ldr	r0, [pc, #100]	; (8003448 <UpdateOperModeLEDs+0x8c>)
 80033e2:	f7fe fac0 	bl	8001966 <HAL_GPIO_WritePin>
	else
		HAL_GPIO_WritePin(USR_LED2_GPIO_Port,USR_LED2_Pin,GPIO_PIN_RESET);
	if ((operMode & OPMODE_S3) != 0)
 80033e6:	4b17      	ldr	r3, [pc, #92]	; (8003444 <UpdateOperModeLEDs+0x88>)
 80033e8:	7b1b      	ldrb	r3, [r3, #12]
 80033ea:	f013 0f04 	tst.w	r3, #4
 80033ee:	d01c      	beq.n	800342a <UpdateOperModeLEDs+0x6e>
		HAL_GPIO_WritePin(USR_LED3_GPIO_Port,USR_LED3_Pin,GPIO_PIN_SET);
 80033f0:	2201      	movs	r2, #1
 80033f2:	2180      	movs	r1, #128	; 0x80
 80033f4:	4815      	ldr	r0, [pc, #84]	; (800344c <UpdateOperModeLEDs+0x90>)
 80033f6:	f7fe fab6 	bl	8001966 <HAL_GPIO_WritePin>
	else
		HAL_GPIO_WritePin(USR_LED3_GPIO_Port,USR_LED3_Pin,GPIO_PIN_RESET);
	if ((operMode & OPMODE_REMOTE) != 0)
 80033fa:	4b12      	ldr	r3, [pc, #72]	; (8003444 <UpdateOperModeLEDs+0x88>)
 80033fc:	7b1b      	ldrb	r3, [r3, #12]
 80033fe:	f013 0f08 	tst.w	r3, #8
 8003402:	d018      	beq.n	8003436 <UpdateOperModeLEDs+0x7a>
		HAL_GPIO_WritePin(USR_LED4_GPIO_Port,USR_LED4_Pin,GPIO_PIN_SET);
 8003404:	2201      	movs	r2, #1
 8003406:	f44f 7100 	mov.w	r1, #512	; 0x200
 800340a:	4810      	ldr	r0, [pc, #64]	; (800344c <UpdateOperModeLEDs+0x90>)
 800340c:	f7fe faab 	bl	8001966 <HAL_GPIO_WritePin>
	else
		HAL_GPIO_WritePin(USR_LED4_GPIO_Port,USR_LED4_Pin,GPIO_PIN_RESET);
}
 8003410:	bd08      	pop	{r3, pc}
		HAL_GPIO_WritePin(USR_LED1_GPIO_Port,USR_LED1_Pin,GPIO_PIN_RESET);
 8003412:	2200      	movs	r2, #0
 8003414:	2104      	movs	r1, #4
 8003416:	480c      	ldr	r0, [pc, #48]	; (8003448 <UpdateOperModeLEDs+0x8c>)
 8003418:	f7fe faa5 	bl	8001966 <HAL_GPIO_WritePin>
 800341c:	e7d9      	b.n	80033d2 <UpdateOperModeLEDs+0x16>
		HAL_GPIO_WritePin(USR_LED2_GPIO_Port,USR_LED2_Pin,GPIO_PIN_RESET);
 800341e:	2200      	movs	r2, #0
 8003420:	2102      	movs	r1, #2
 8003422:	4809      	ldr	r0, [pc, #36]	; (8003448 <UpdateOperModeLEDs+0x8c>)
 8003424:	f7fe fa9f 	bl	8001966 <HAL_GPIO_WritePin>
 8003428:	e7dd      	b.n	80033e6 <UpdateOperModeLEDs+0x2a>
		HAL_GPIO_WritePin(USR_LED3_GPIO_Port,USR_LED3_Pin,GPIO_PIN_RESET);
 800342a:	2200      	movs	r2, #0
 800342c:	2180      	movs	r1, #128	; 0x80
 800342e:	4807      	ldr	r0, [pc, #28]	; (800344c <UpdateOperModeLEDs+0x90>)
 8003430:	f7fe fa99 	bl	8001966 <HAL_GPIO_WritePin>
 8003434:	e7e1      	b.n	80033fa <UpdateOperModeLEDs+0x3e>
		HAL_GPIO_WritePin(USR_LED4_GPIO_Port,USR_LED4_Pin,GPIO_PIN_RESET);
 8003436:	2200      	movs	r2, #0
 8003438:	f44f 7100 	mov.w	r1, #512	; 0x200
 800343c:	4803      	ldr	r0, [pc, #12]	; (800344c <UpdateOperModeLEDs+0x90>)
 800343e:	f7fe fa92 	bl	8001966 <HAL_GPIO_WritePin>
}
 8003442:	e7e5      	b.n	8003410 <UpdateOperModeLEDs+0x54>
 8003444:	200000b4 	.word	0x200000b4
 8003448:	40020400 	.word	0x40020400
 800344c:	40020800 	.word	0x40020800

08003450 <Operate3colorLED>:
  * @param  led		3-color LED identifier RED or GREEN
  * @param  intens	3-color LED intensity 0 <= intens < 4096
  * @retval None
  */
void Operate3colorLED(int led, uint16_t intens)
{
 8003450:	b510      	push	{r4, lr}
	sConfigOC.Pulse = intens;
 8003452:	4b0e      	ldr	r3, [pc, #56]	; (800348c <Operate3colorLED+0x3c>)
 8003454:	6059      	str	r1, [r3, #4]
	switch (led)
 8003456:	2801      	cmp	r0, #1
 8003458:	d002      	beq.n	8003460 <Operate3colorLED+0x10>
 800345a:	2802      	cmp	r0, #2
 800345c:	d00b      	beq.n	8003476 <Operate3colorLED+0x26>
			HAL_TIM_PWM_ConfigChannel(&htim3, &sConfigOC, TIM_CHANNEL_2);
			HAL_TIM_PWM_Start(&htim3, TIM_CHANNEL_2);
			break;
		default:;
	  }
}
 800345e:	bd10      	pop	{r4, pc}
			HAL_TIM_PWM_ConfigChannel(&htim3, &sConfigOC, TIM_CHANNEL_1);
 8003460:	4c0b      	ldr	r4, [pc, #44]	; (8003490 <Operate3colorLED+0x40>)
 8003462:	2200      	movs	r2, #0
 8003464:	4909      	ldr	r1, [pc, #36]	; (800348c <Operate3colorLED+0x3c>)
 8003466:	4620      	mov	r0, r4
 8003468:	f7ff f940 	bl	80026ec <HAL_TIM_PWM_ConfigChannel>
			HAL_TIM_PWM_Start(&htim3, TIM_CHANNEL_1);
 800346c:	2100      	movs	r1, #0
 800346e:	4620      	mov	r0, r4
 8003470:	f7ff fa48 	bl	8002904 <HAL_TIM_PWM_Start>
			break;
 8003474:	e7f3      	b.n	800345e <Operate3colorLED+0xe>
			HAL_TIM_PWM_ConfigChannel(&htim3, &sConfigOC, TIM_CHANNEL_2);
 8003476:	4c06      	ldr	r4, [pc, #24]	; (8003490 <Operate3colorLED+0x40>)
 8003478:	2204      	movs	r2, #4
 800347a:	4904      	ldr	r1, [pc, #16]	; (800348c <Operate3colorLED+0x3c>)
 800347c:	4620      	mov	r0, r4
 800347e:	f7ff f935 	bl	80026ec <HAL_TIM_PWM_ConfigChannel>
			HAL_TIM_PWM_Start(&htim3, TIM_CHANNEL_2);
 8003482:	2104      	movs	r1, #4
 8003484:	4620      	mov	r0, r4
 8003486:	f7ff fa3d 	bl	8002904 <HAL_TIM_PWM_Start>
}
 800348a:	e7e8      	b.n	800345e <Operate3colorLED+0xe>
 800348c:	20000a94 	.word	0x20000a94
 8003490:	20000a04 	.word	0x20000a04

08003494 <Error_Handler>:
/**
  * @brief  This function is executed in case of error occurrence.
  * @retval None
  */
void Error_Handler(void)
{
 8003494:	b508      	push	{r3, lr}
  /* USER CODE BEGIN Error_Handler_Debug */
  /* User can add his own implementation to report the HAL error return state */
	HAL_GPIO_WritePin(USR_LED6_GPIO_Port,USR_LED6_Pin,GPIO_PIN_SET);
 8003496:	2201      	movs	r2, #1
 8003498:	f44f 7180 	mov.w	r1, #256	; 0x100
 800349c:	4803      	ldr	r0, [pc, #12]	; (80034ac <Error_Handler+0x18>)
 800349e:	f7fe fa62 	bl	8001966 <HAL_GPIO_WritePin>
	led6signCnt = ERRSIGN_PER;
 80034a2:	4b03      	ldr	r3, [pc, #12]	; (80034b0 <Error_Handler+0x1c>)
 80034a4:	2264      	movs	r2, #100	; 0x64
 80034a6:	815a      	strh	r2, [r3, #10]

  /* USER CODE END Error_Handler_Debug */
}
 80034a8:	bd08      	pop	{r3, pc}
 80034aa:	bf00      	nop
 80034ac:	40020800 	.word	0x40020800
 80034b0:	200000b4 	.word	0x200000b4

080034b4 <MX_ADC1_Init>:
{
 80034b4:	b510      	push	{r4, lr}
 80034b6:	b08c      	sub	sp, #48	; 0x30
  ADC_ChannelConfTypeDef sConfig = {0};
 80034b8:	2400      	movs	r4, #0
 80034ba:	9408      	str	r4, [sp, #32]
 80034bc:	9409      	str	r4, [sp, #36]	; 0x24
 80034be:	940a      	str	r4, [sp, #40]	; 0x28
 80034c0:	940b      	str	r4, [sp, #44]	; 0x2c
  ADC_InjectionConfTypeDef sConfigInjected = {0};
 80034c2:	2220      	movs	r2, #32
 80034c4:	4621      	mov	r1, r4
 80034c6:	4668      	mov	r0, sp
 80034c8:	f001 f8d2 	bl	8004670 <memset>
  hadc1.Instance = ADC1;
 80034cc:	4828      	ldr	r0, [pc, #160]	; (8003570 <MX_ADC1_Init+0xbc>)
 80034ce:	4b29      	ldr	r3, [pc, #164]	; (8003574 <MX_ADC1_Init+0xc0>)
 80034d0:	6003      	str	r3, [r0, #0]
  hadc1.Init.ClockPrescaler = ADC_CLOCK_SYNC_PCLK_DIV8;
 80034d2:	f44f 3340 	mov.w	r3, #196608	; 0x30000
 80034d6:	6043      	str	r3, [r0, #4]
  hadc1.Init.Resolution = ADC_RESOLUTION_12B;
 80034d8:	6084      	str	r4, [r0, #8]
  hadc1.Init.ScanConvMode = ENABLE;
 80034da:	2301      	movs	r3, #1
 80034dc:	6103      	str	r3, [r0, #16]
  hadc1.Init.ContinuousConvMode = DISABLE;
 80034de:	7604      	strb	r4, [r0, #24]
  hadc1.Init.DiscontinuousConvMode = DISABLE;
 80034e0:	f880 4020 	strb.w	r4, [r0, #32]
  hadc1.Init.ExternalTrigConvEdge = ADC_EXTERNALTRIGCONVEDGE_NONE;
 80034e4:	62c4      	str	r4, [r0, #44]	; 0x2c
  hadc1.Init.ExternalTrigConv = ADC_SOFTWARE_START;
 80034e6:	4a24      	ldr	r2, [pc, #144]	; (8003578 <MX_ADC1_Init+0xc4>)
 80034e8:	6282      	str	r2, [r0, #40]	; 0x28
  hadc1.Init.DataAlign = ADC_DATAALIGN_RIGHT;
 80034ea:	60c4      	str	r4, [r0, #12]
  hadc1.Init.NbrOfConversion = 1;
 80034ec:	61c3      	str	r3, [r0, #28]
  hadc1.Init.DMAContinuousRequests = DISABLE;
 80034ee:	f880 4030 	strb.w	r4, [r0, #48]	; 0x30
  hadc1.Init.EOCSelection = ADC_EOC_SEQ_CONV;
 80034f2:	6144      	str	r4, [r0, #20]
  if (HAL_ADC_Init(&hadc1) != HAL_OK)
 80034f4:	f7fd f94a 	bl	800078c <HAL_ADC_Init>
 80034f8:	bb68      	cbnz	r0, 8003556 <MX_ADC1_Init+0xa2>
  sConfig.Channel = ADC_CHANNEL_14;
 80034fa:	230e      	movs	r3, #14
 80034fc:	9308      	str	r3, [sp, #32]
  sConfig.Rank = 1;
 80034fe:	2301      	movs	r3, #1
 8003500:	9309      	str	r3, [sp, #36]	; 0x24
  sConfig.SamplingTime = ADC_SAMPLETIME_3CYCLES;
 8003502:	2300      	movs	r3, #0
 8003504:	930a      	str	r3, [sp, #40]	; 0x28
  if (HAL_ADC_ConfigChannel(&hadc1, &sConfig) != HAL_OK)
 8003506:	a908      	add	r1, sp, #32
 8003508:	4819      	ldr	r0, [pc, #100]	; (8003570 <MX_ADC1_Init+0xbc>)
 800350a:	f7fd fa15 	bl	8000938 <HAL_ADC_ConfigChannel>
 800350e:	bb28      	cbnz	r0, 800355c <MX_ADC1_Init+0xa8>
  sConfigInjected.InjectedChannel = ADC_CHANNEL_15;
 8003510:	230f      	movs	r3, #15
 8003512:	9300      	str	r3, [sp, #0]
  sConfigInjected.InjectedRank = 1;
 8003514:	2301      	movs	r3, #1
 8003516:	9301      	str	r3, [sp, #4]
  sConfigInjected.InjectedNbrOfConversion = 2;
 8003518:	2202      	movs	r2, #2
 800351a:	9204      	str	r2, [sp, #16]
  sConfigInjected.InjectedSamplingTime = ADC_SAMPLETIME_15CYCLES;
 800351c:	9302      	str	r3, [sp, #8]
  sConfigInjected.ExternalTrigInjecConvEdge = ADC_EXTERNALTRIGINJECCONVEDGE_RISING;
 800351e:	f44f 1380 	mov.w	r3, #1048576	; 0x100000
 8003522:	9307      	str	r3, [sp, #28]
  sConfigInjected.ExternalTrigInjecConv = ADC_EXTERNALTRIGINJECCONV_T1_TRGO;
 8003524:	f44f 3380 	mov.w	r3, #65536	; 0x10000
 8003528:	9306      	str	r3, [sp, #24]
  sConfigInjected.AutoInjectedConv = DISABLE;
 800352a:	2300      	movs	r3, #0
 800352c:	f88d 3015 	strb.w	r3, [sp, #21]
  sConfigInjected.InjectedDiscontinuousConvMode = DISABLE;
 8003530:	f88d 3014 	strb.w	r3, [sp, #20]
  sConfigInjected.InjectedOffset = 0;
 8003534:	9303      	str	r3, [sp, #12]
  if (HAL_ADCEx_InjectedConfigChannel(&hadc1, &sConfigInjected) != HAL_OK)
 8003536:	4669      	mov	r1, sp
 8003538:	480d      	ldr	r0, [pc, #52]	; (8003570 <MX_ADC1_Init+0xbc>)
 800353a:	f7fd fb75 	bl	8000c28 <HAL_ADCEx_InjectedConfigChannel>
 800353e:	b980      	cbnz	r0, 8003562 <MX_ADC1_Init+0xae>
  sConfigInjected.InjectedChannel = ADC_CHANNEL_14;
 8003540:	230e      	movs	r3, #14
 8003542:	9300      	str	r3, [sp, #0]
  sConfigInjected.InjectedRank = 2;
 8003544:	2302      	movs	r3, #2
 8003546:	9301      	str	r3, [sp, #4]
  if (HAL_ADCEx_InjectedConfigChannel(&hadc1, &sConfigInjected) != HAL_OK)
 8003548:	4669      	mov	r1, sp
 800354a:	4809      	ldr	r0, [pc, #36]	; (8003570 <MX_ADC1_Init+0xbc>)
 800354c:	f7fd fb6c 	bl	8000c28 <HAL_ADCEx_InjectedConfigChannel>
 8003550:	b950      	cbnz	r0, 8003568 <MX_ADC1_Init+0xb4>
}
 8003552:	b00c      	add	sp, #48	; 0x30
 8003554:	bd10      	pop	{r4, pc}
    Error_Handler();
 8003556:	f7ff ff9d 	bl	8003494 <Error_Handler>
 800355a:	e7ce      	b.n	80034fa <MX_ADC1_Init+0x46>
    Error_Handler();
 800355c:	f7ff ff9a 	bl	8003494 <Error_Handler>
 8003560:	e7d6      	b.n	8003510 <MX_ADC1_Init+0x5c>
    Error_Handler();
 8003562:	f7ff ff97 	bl	8003494 <Error_Handler>
 8003566:	e7eb      	b.n	8003540 <MX_ADC1_Init+0x8c>
    Error_Handler();
 8003568:	f7ff ff94 	bl	8003494 <Error_Handler>
}
 800356c:	e7f1      	b.n	8003552 <MX_ADC1_Init+0x9e>
 800356e:	bf00      	nop
 8003570:	20000a4c 	.word	0x20000a4c
 8003574:	40012000 	.word	0x40012000
 8003578:	0f000001 	.word	0x0f000001

0800357c <MX_CAN1_Init>:
{
 800357c:	b500      	push	{lr}
 800357e:	b08b      	sub	sp, #44	; 0x2c
  hcan1.Instance = CAN1;
 8003580:	4823      	ldr	r0, [pc, #140]	; (8003610 <MX_CAN1_Init+0x94>)
 8003582:	4b24      	ldr	r3, [pc, #144]	; (8003614 <MX_CAN1_Init+0x98>)
 8003584:	6003      	str	r3, [r0, #0]
  hcan1.Init.Prescaler = 6;
 8003586:	2306      	movs	r3, #6
 8003588:	6043      	str	r3, [r0, #4]
  hcan1.Init.Mode = CAN_MODE_NORMAL;
 800358a:	2300      	movs	r3, #0
 800358c:	6083      	str	r3, [r0, #8]
  hcan1.Init.SyncJumpWidth = CAN_SJW_1TQ;
 800358e:	60c3      	str	r3, [r0, #12]
  hcan1.Init.TimeSeg1 = CAN_BS1_12TQ;
 8003590:	f44f 2230 	mov.w	r2, #720896	; 0xb0000
 8003594:	6102      	str	r2, [r0, #16]
  hcan1.Init.TimeSeg2 = CAN_BS2_2TQ;
 8003596:	f44f 1280 	mov.w	r2, #1048576	; 0x100000
 800359a:	6142      	str	r2, [r0, #20]
  hcan1.Init.TimeTriggeredMode = DISABLE;
 800359c:	7603      	strb	r3, [r0, #24]
  hcan1.Init.AutoBusOff = DISABLE;
 800359e:	7643      	strb	r3, [r0, #25]
  hcan1.Init.AutoWakeUp = DISABLE;
 80035a0:	7683      	strb	r3, [r0, #26]
  hcan1.Init.AutoRetransmission = ENABLE;
 80035a2:	2201      	movs	r2, #1
 80035a4:	76c2      	strb	r2, [r0, #27]
  hcan1.Init.ReceiveFifoLocked = DISABLE;
 80035a6:	7703      	strb	r3, [r0, #28]
  hcan1.Init.TransmitFifoPriority = DISABLE;
 80035a8:	7743      	strb	r3, [r0, #29]
  if (HAL_CAN_Init(&hcan1) != HAL_OK)
 80035aa:	f7fd fc47 	bl	8000e3c <HAL_CAN_Init>
 80035ae:	bb18      	cbnz	r0, 80035f8 <MX_CAN1_Init+0x7c>
  sFilterConfig.FilterBank = 0;
 80035b0:	2300      	movs	r3, #0
 80035b2:	9305      	str	r3, [sp, #20]
  sFilterConfig.FilterMode = CAN_FILTERMODE_IDMASK;
 80035b4:	9306      	str	r3, [sp, #24]
  sFilterConfig.FilterScale = CAN_FILTERSCALE_32BIT;
 80035b6:	2201      	movs	r2, #1
 80035b8:	9207      	str	r2, [sp, #28]
  sFilterConfig.FilterIdHigh = 0x0000;
 80035ba:	9300      	str	r3, [sp, #0]
  sFilterConfig.FilterIdLow = 0x0000;
 80035bc:	9301      	str	r3, [sp, #4]
  sFilterConfig.FilterMaskIdHigh = 0x0000;
 80035be:	9302      	str	r3, [sp, #8]
  sFilterConfig.FilterMaskIdLow = 0x0000;
 80035c0:	9303      	str	r3, [sp, #12]
  sFilterConfig.FilterFIFOAssignment = CAN_RX_FIFO0;
 80035c2:	9304      	str	r3, [sp, #16]
  sFilterConfig.FilterActivation = ENABLE;
 80035c4:	9208      	str	r2, [sp, #32]
  sFilterConfig.SlaveStartFilterBank = 14;
 80035c6:	230e      	movs	r3, #14
 80035c8:	9309      	str	r3, [sp, #36]	; 0x24
  if (HAL_CAN_ConfigFilter(&hcan1, &sFilterConfig) != HAL_OK)
 80035ca:	4669      	mov	r1, sp
 80035cc:	4810      	ldr	r0, [pc, #64]	; (8003610 <MX_CAN1_Init+0x94>)
 80035ce:	f7fd fcdb 	bl	8000f88 <HAL_CAN_ConfigFilter>
 80035d2:	b9a0      	cbnz	r0, 80035fe <MX_CAN1_Init+0x82>
  if (HAL_CAN_Start(&hcan1) != HAL_OK)
 80035d4:	480e      	ldr	r0, [pc, #56]	; (8003610 <MX_CAN1_Init+0x94>)
 80035d6:	f7fd fd6f 	bl	80010b8 <HAL_CAN_Start>
 80035da:	b998      	cbnz	r0, 8003604 <MX_CAN1_Init+0x88>
  if (HAL_CAN_ActivateNotification(&hcan1, CAN_IT_RX_FIFO0_MSG_PENDING) != HAL_OK)
 80035dc:	2102      	movs	r1, #2
 80035de:	480c      	ldr	r0, [pc, #48]	; (8003610 <MX_CAN1_Init+0x94>)
 80035e0:	f7fd fec7 	bl	8001372 <HAL_CAN_ActivateNotification>
 80035e4:	b988      	cbnz	r0, 800360a <MX_CAN1_Init+0x8e>
  TxHeader.RTR = CAN_RTR_DATA;
 80035e6:	4b0c      	ldr	r3, [pc, #48]	; (8003618 <MX_CAN1_Init+0x9c>)
 80035e8:	2200      	movs	r2, #0
 80035ea:	60da      	str	r2, [r3, #12]
  TxHeader.IDE = CAN_ID_STD;
 80035ec:	609a      	str	r2, [r3, #8]
  TxHeader.DLC = 0;
 80035ee:	611a      	str	r2, [r3, #16]
  TxHeader.TransmitGlobalTime = DISABLE;
 80035f0:	751a      	strb	r2, [r3, #20]
}
 80035f2:	b00b      	add	sp, #44	; 0x2c
 80035f4:	f85d fb04 	ldr.w	pc, [sp], #4
    Error_Handler();
 80035f8:	f7ff ff4c 	bl	8003494 <Error_Handler>
 80035fc:	e7d8      	b.n	80035b0 <MX_CAN1_Init+0x34>
	  Error_Handler();
 80035fe:	f7ff ff49 	bl	8003494 <Error_Handler>
 8003602:	e7e7      	b.n	80035d4 <MX_CAN1_Init+0x58>
      Error_Handler();
 8003604:	f7ff ff46 	bl	8003494 <Error_Handler>
 8003608:	e7e8      	b.n	80035dc <MX_CAN1_Init+0x60>
	  Error_Handler();
 800360a:	f7ff ff43 	bl	8003494 <Error_Handler>
 800360e:	e7ea      	b.n	80035e6 <MX_CAN1_Init+0x6a>
 8003610:	20000b50 	.word	0x20000b50
 8003614:	40006400 	.word	0x40006400
 8003618:	20000b78 	.word	0x20000b78

0800361c <MX_USART2_UART_Init>:
{
 800361c:	b508      	push	{r3, lr}
  huart2.Instance = USART2;
 800361e:	480a      	ldr	r0, [pc, #40]	; (8003648 <MX_USART2_UART_Init+0x2c>)
 8003620:	4b0a      	ldr	r3, [pc, #40]	; (800364c <MX_USART2_UART_Init+0x30>)
 8003622:	6003      	str	r3, [r0, #0]
  huart2.Init.BaudRate = 460800;
 8003624:	f44f 23e1 	mov.w	r3, #460800	; 0x70800
 8003628:	6043      	str	r3, [r0, #4]
  huart2.Init.WordLength = UART_WORDLENGTH_8B;
 800362a:	2300      	movs	r3, #0
 800362c:	6083      	str	r3, [r0, #8]
  huart2.Init.StopBits = UART_STOPBITS_1;
 800362e:	60c3      	str	r3, [r0, #12]
  huart2.Init.Parity = UART_PARITY_NONE;
 8003630:	6103      	str	r3, [r0, #16]
  huart2.Init.Mode = UART_MODE_TX_RX;
 8003632:	220c      	movs	r2, #12
 8003634:	6142      	str	r2, [r0, #20]
  huart2.Init.HwFlowCtl = UART_HWCONTROL_NONE;
 8003636:	6183      	str	r3, [r0, #24]
  huart2.Init.OverSampling = UART_OVERSAMPLING_16;
 8003638:	61c3      	str	r3, [r0, #28]
  if (HAL_UART_Init(&huart2) != HAL_OK)
 800363a:	f7ff fb17 	bl	8002c6c <HAL_UART_Init>
 800363e:	b900      	cbnz	r0, 8003642 <MX_USART2_UART_Init+0x26>
}
 8003640:	bd08      	pop	{r3, pc}
    Error_Handler();
 8003642:	f7ff ff27 	bl	8003494 <Error_Handler>
}
 8003646:	e7fb      	b.n	8003640 <MX_USART2_UART_Init+0x24>
 8003648:	20000b0c 	.word	0x20000b0c
 800364c:	40004400 	.word	0x40004400

08003650 <MX_TIM1_Init>:
{
 8003650:	b500      	push	{lr}
 8003652:	b087      	sub	sp, #28
  TIM_ClockConfigTypeDef sClockSourceConfig = {0};
 8003654:	2300      	movs	r3, #0
 8003656:	9302      	str	r3, [sp, #8]
 8003658:	9303      	str	r3, [sp, #12]
 800365a:	9304      	str	r3, [sp, #16]
 800365c:	9305      	str	r3, [sp, #20]
  TIM_MasterConfigTypeDef sMasterConfig = {0};
 800365e:	9300      	str	r3, [sp, #0]
 8003660:	9301      	str	r3, [sp, #4]
  htim1.Instance = TIM1;
 8003662:	4815      	ldr	r0, [pc, #84]	; (80036b8 <MX_TIM1_Init+0x68>)
 8003664:	4a15      	ldr	r2, [pc, #84]	; (80036bc <MX_TIM1_Init+0x6c>)
 8003666:	6002      	str	r2, [r0, #0]
  htim1.Init.Prescaler = 180-1;
 8003668:	22b3      	movs	r2, #179	; 0xb3
 800366a:	6042      	str	r2, [r0, #4]
  htim1.Init.CounterMode = TIM_COUNTERMODE_UP;
 800366c:	6083      	str	r3, [r0, #8]
  htim1.Init.Period = 250-1;
 800366e:	22f9      	movs	r2, #249	; 0xf9
 8003670:	60c2      	str	r2, [r0, #12]
  htim1.Init.ClockDivision = TIM_CLOCKDIVISION_DIV1;
 8003672:	6103      	str	r3, [r0, #16]
  htim1.Init.RepetitionCounter = 0;
 8003674:	6143      	str	r3, [r0, #20]
  htim1.Init.AutoReloadPreload = TIM_AUTORELOAD_PRELOAD_DISABLE;
 8003676:	6183      	str	r3, [r0, #24]
  if (HAL_TIM_Base_Init(&htim1) != HAL_OK)
 8003678:	f7fe ffa8 	bl	80025cc <HAL_TIM_Base_Init>
 800367c:	b998      	cbnz	r0, 80036a6 <MX_TIM1_Init+0x56>
  sClockSourceConfig.ClockSource = TIM_CLOCKSOURCE_INTERNAL;
 800367e:	f44f 5380 	mov.w	r3, #4096	; 0x1000
 8003682:	9302      	str	r3, [sp, #8]
  if (HAL_TIM_ConfigClockSource(&htim1, &sClockSourceConfig) != HAL_OK)
 8003684:	a902      	add	r1, sp, #8
 8003686:	480c      	ldr	r0, [pc, #48]	; (80036b8 <MX_TIM1_Init+0x68>)
 8003688:	f7ff f8aa 	bl	80027e0 <HAL_TIM_ConfigClockSource>
 800368c:	b970      	cbnz	r0, 80036ac <MX_TIM1_Init+0x5c>
  sMasterConfig.MasterOutputTrigger = TIM_TRGO_UPDATE;
 800368e:	2320      	movs	r3, #32
 8003690:	9300      	str	r3, [sp, #0]
  sMasterConfig.MasterSlaveMode = TIM_MASTERSLAVEMODE_DISABLE;
 8003692:	2300      	movs	r3, #0
 8003694:	9301      	str	r3, [sp, #4]
  if (HAL_TIMEx_MasterConfigSynchronization(&htim1, &sMasterConfig) != HAL_OK)
 8003696:	4669      	mov	r1, sp
 8003698:	4807      	ldr	r0, [pc, #28]	; (80036b8 <MX_TIM1_Init+0x68>)
 800369a:	f7ff f9b5 	bl	8002a08 <HAL_TIMEx_MasterConfigSynchronization>
 800369e:	b940      	cbnz	r0, 80036b2 <MX_TIM1_Init+0x62>
}
 80036a0:	b007      	add	sp, #28
 80036a2:	f85d fb04 	ldr.w	pc, [sp], #4
    Error_Handler();
 80036a6:	f7ff fef5 	bl	8003494 <Error_Handler>
 80036aa:	e7e8      	b.n	800367e <MX_TIM1_Init+0x2e>
    Error_Handler();
 80036ac:	f7ff fef2 	bl	8003494 <Error_Handler>
 80036b0:	e7ed      	b.n	800368e <MX_TIM1_Init+0x3e>
    Error_Handler();
 80036b2:	f7ff feef 	bl	8003494 <Error_Handler>
}
 80036b6:	e7f3      	b.n	80036a0 <MX_TIM1_Init+0x50>
 80036b8:	20000ab8 	.word	0x20000ab8
 80036bc:	40010000 	.word	0x40010000

080036c0 <MX_USART3_UART_Init>:
{
 80036c0:	b508      	push	{r3, lr}
  huart3.Instance = USART3;
 80036c2:	480a      	ldr	r0, [pc, #40]	; (80036ec <MX_USART3_UART_Init+0x2c>)
 80036c4:	4b0a      	ldr	r3, [pc, #40]	; (80036f0 <MX_USART3_UART_Init+0x30>)
 80036c6:	6003      	str	r3, [r0, #0]
  huart3.Init.BaudRate = 460800;
 80036c8:	f44f 23e1 	mov.w	r3, #460800	; 0x70800
 80036cc:	6043      	str	r3, [r0, #4]
  huart3.Init.WordLength = UART_WORDLENGTH_8B;
 80036ce:	2300      	movs	r3, #0
 80036d0:	6083      	str	r3, [r0, #8]
  huart3.Init.StopBits = UART_STOPBITS_1;
 80036d2:	60c3      	str	r3, [r0, #12]
  huart3.Init.Parity = UART_PARITY_NONE;
 80036d4:	6103      	str	r3, [r0, #16]
  huart3.Init.Mode = UART_MODE_TX_RX;
 80036d6:	220c      	movs	r2, #12
 80036d8:	6142      	str	r2, [r0, #20]
  huart3.Init.HwFlowCtl = UART_HWCONTROL_NONE;
 80036da:	6183      	str	r3, [r0, #24]
  huart3.Init.OverSampling = UART_OVERSAMPLING_16;
 80036dc:	61c3      	str	r3, [r0, #28]
  if (HAL_UART_Init(&huart3) != HAL_OK)
 80036de:	f7ff fac5 	bl	8002c6c <HAL_UART_Init>
 80036e2:	b900      	cbnz	r0, 80036e6 <MX_USART3_UART_Init+0x26>
}
 80036e4:	bd08      	pop	{r3, pc}
    Error_Handler();
 80036e6:	f7ff fed5 	bl	8003494 <Error_Handler>
}
 80036ea:	e7fb      	b.n	80036e4 <MX_USART3_UART_Init+0x24>
 80036ec:	200009c0 	.word	0x200009c0
 80036f0:	40004800 	.word	0x40004800

080036f4 <MX_TIM3_Init>:
{
 80036f4:	b500      	push	{lr}
 80036f6:	b08f      	sub	sp, #60	; 0x3c
  TIM_ClockConfigTypeDef sClockSourceConfig = {0};
 80036f8:	2300      	movs	r3, #0
 80036fa:	930a      	str	r3, [sp, #40]	; 0x28
 80036fc:	930b      	str	r3, [sp, #44]	; 0x2c
 80036fe:	930c      	str	r3, [sp, #48]	; 0x30
 8003700:	930d      	str	r3, [sp, #52]	; 0x34
  TIM_MasterConfigTypeDef sMasterConfig = {0};
 8003702:	9308      	str	r3, [sp, #32]
 8003704:	9309      	str	r3, [sp, #36]	; 0x24
  TIM_OC_InitTypeDef sConfigOC = {0};
 8003706:	9301      	str	r3, [sp, #4]
 8003708:	9302      	str	r3, [sp, #8]
 800370a:	9303      	str	r3, [sp, #12]
 800370c:	9304      	str	r3, [sp, #16]
 800370e:	9305      	str	r3, [sp, #20]
 8003710:	9306      	str	r3, [sp, #24]
 8003712:	9307      	str	r3, [sp, #28]
  htim3.Instance = TIM3;
 8003714:	4825      	ldr	r0, [pc, #148]	; (80037ac <MX_TIM3_Init+0xb8>)
 8003716:	4a26      	ldr	r2, [pc, #152]	; (80037b0 <MX_TIM3_Init+0xbc>)
 8003718:	6002      	str	r2, [r0, #0]
  htim3.Init.Prescaler = 0;
 800371a:	6043      	str	r3, [r0, #4]
  htim3.Init.CounterMode = TIM_COUNTERMODE_UP;
 800371c:	6083      	str	r3, [r0, #8]
  htim3.Init.Period = 4096-1;
 800371e:	f640 72ff 	movw	r2, #4095	; 0xfff
 8003722:	60c2      	str	r2, [r0, #12]
  htim3.Init.ClockDivision = TIM_CLOCKDIVISION_DIV1;
 8003724:	6103      	str	r3, [r0, #16]
  htim3.Init.AutoReloadPreload = TIM_AUTORELOAD_PRELOAD_DISABLE;
 8003726:	6183      	str	r3, [r0, #24]
  if (HAL_TIM_Base_Init(&htim3) != HAL_OK)
 8003728:	f7fe ff50 	bl	80025cc <HAL_TIM_Base_Init>
 800372c:	bb58      	cbnz	r0, 8003786 <MX_TIM3_Init+0x92>
  sClockSourceConfig.ClockSource = TIM_CLOCKSOURCE_INTERNAL;
 800372e:	f44f 5380 	mov.w	r3, #4096	; 0x1000
 8003732:	930a      	str	r3, [sp, #40]	; 0x28
  if (HAL_TIM_ConfigClockSource(&htim3, &sClockSourceConfig) != HAL_OK)
 8003734:	a90a      	add	r1, sp, #40	; 0x28
 8003736:	481d      	ldr	r0, [pc, #116]	; (80037ac <MX_TIM3_Init+0xb8>)
 8003738:	f7ff f852 	bl	80027e0 <HAL_TIM_ConfigClockSource>
 800373c:	bb30      	cbnz	r0, 800378c <MX_TIM3_Init+0x98>
  if (HAL_TIM_PWM_Init(&htim3) != HAL_OK)
 800373e:	481b      	ldr	r0, [pc, #108]	; (80037ac <MX_TIM3_Init+0xb8>)
 8003740:	f7fe ff70 	bl	8002624 <HAL_TIM_PWM_Init>
 8003744:	bb28      	cbnz	r0, 8003792 <MX_TIM3_Init+0x9e>
  sMasterConfig.MasterOutputTrigger = TIM_TRGO_RESET;
 8003746:	2300      	movs	r3, #0
 8003748:	9308      	str	r3, [sp, #32]
  sMasterConfig.MasterSlaveMode = TIM_MASTERSLAVEMODE_DISABLE;
 800374a:	9309      	str	r3, [sp, #36]	; 0x24
  if (HAL_TIMEx_MasterConfigSynchronization(&htim3, &sMasterConfig) != HAL_OK)
 800374c:	a908      	add	r1, sp, #32
 800374e:	4817      	ldr	r0, [pc, #92]	; (80037ac <MX_TIM3_Init+0xb8>)
 8003750:	f7ff f95a 	bl	8002a08 <HAL_TIMEx_MasterConfigSynchronization>
 8003754:	bb00      	cbnz	r0, 8003798 <MX_TIM3_Init+0xa4>
  sConfigOC.OCMode = TIM_OCMODE_PWM1;
 8003756:	2360      	movs	r3, #96	; 0x60
 8003758:	9301      	str	r3, [sp, #4]
  sConfigOC.Pulse = 0;
 800375a:	2200      	movs	r2, #0
 800375c:	9202      	str	r2, [sp, #8]
  sConfigOC.OCPolarity = TIM_OCPOLARITY_HIGH;
 800375e:	9203      	str	r2, [sp, #12]
  sConfigOC.OCFastMode = TIM_OCFAST_DISABLE;
 8003760:	9205      	str	r2, [sp, #20]
  if (HAL_TIM_PWM_ConfigChannel(&htim3, &sConfigOC, TIM_CHANNEL_1) != HAL_OK)
 8003762:	a901      	add	r1, sp, #4
 8003764:	4811      	ldr	r0, [pc, #68]	; (80037ac <MX_TIM3_Init+0xb8>)
 8003766:	f7fe ffc1 	bl	80026ec <HAL_TIM_PWM_ConfigChannel>
 800376a:	b9c0      	cbnz	r0, 800379e <MX_TIM3_Init+0xaa>
  if (HAL_TIM_PWM_ConfigChannel(&htim3, &sConfigOC, TIM_CHANNEL_2) != HAL_OK)
 800376c:	2204      	movs	r2, #4
 800376e:	eb0d 0102 	add.w	r1, sp, r2
 8003772:	480e      	ldr	r0, [pc, #56]	; (80037ac <MX_TIM3_Init+0xb8>)
 8003774:	f7fe ffba 	bl	80026ec <HAL_TIM_PWM_ConfigChannel>
 8003778:	b9a0      	cbnz	r0, 80037a4 <MX_TIM3_Init+0xb0>
  HAL_TIM_MspPostInit(&htim3);
 800377a:	480c      	ldr	r0, [pc, #48]	; (80037ac <MX_TIM3_Init+0xb8>)
 800377c:	f000 fcee 	bl	800415c <HAL_TIM_MspPostInit>
}
 8003780:	b00f      	add	sp, #60	; 0x3c
 8003782:	f85d fb04 	ldr.w	pc, [sp], #4
    Error_Handler();
 8003786:	f7ff fe85 	bl	8003494 <Error_Handler>
 800378a:	e7d0      	b.n	800372e <MX_TIM3_Init+0x3a>
    Error_Handler();
 800378c:	f7ff fe82 	bl	8003494 <Error_Handler>
 8003790:	e7d5      	b.n	800373e <MX_TIM3_Init+0x4a>
    Error_Handler();
 8003792:	f7ff fe7f 	bl	8003494 <Error_Handler>
 8003796:	e7d6      	b.n	8003746 <MX_TIM3_Init+0x52>
    Error_Handler();
 8003798:	f7ff fe7c 	bl	8003494 <Error_Handler>
 800379c:	e7db      	b.n	8003756 <MX_TIM3_Init+0x62>
    Error_Handler();
 800379e:	f7ff fe79 	bl	8003494 <Error_Handler>
 80037a2:	e7e3      	b.n	800376c <MX_TIM3_Init+0x78>
    Error_Handler();
 80037a4:	f7ff fe76 	bl	8003494 <Error_Handler>
 80037a8:	e7e7      	b.n	800377a <MX_TIM3_Init+0x86>
 80037aa:	bf00      	nop
 80037ac:	20000a04 	.word	0x20000a04
 80037b0:	40000400 	.word	0x40000400

080037b4 <SystemClock_Config>:
{
 80037b4:	b500      	push	{lr}
 80037b6:	b095      	sub	sp, #84	; 0x54
  RCC_OscInitTypeDef RCC_OscInitStruct = {0};
 80037b8:	2234      	movs	r2, #52	; 0x34
 80037ba:	2100      	movs	r1, #0
 80037bc:	a807      	add	r0, sp, #28
 80037be:	f000 ff57 	bl	8004670 <memset>
  RCC_ClkInitTypeDef RCC_ClkInitStruct = {0};
 80037c2:	2300      	movs	r3, #0
 80037c4:	9302      	str	r3, [sp, #8]
 80037c6:	9303      	str	r3, [sp, #12]
 80037c8:	9304      	str	r3, [sp, #16]
 80037ca:	9305      	str	r3, [sp, #20]
 80037cc:	9306      	str	r3, [sp, #24]
  __HAL_RCC_PWR_CLK_ENABLE();
 80037ce:	9300      	str	r3, [sp, #0]
 80037d0:	4a24      	ldr	r2, [pc, #144]	; (8003864 <SystemClock_Config+0xb0>)
 80037d2:	6c11      	ldr	r1, [r2, #64]	; 0x40
 80037d4:	f041 5180 	orr.w	r1, r1, #268435456	; 0x10000000
 80037d8:	6411      	str	r1, [r2, #64]	; 0x40
 80037da:	6c12      	ldr	r2, [r2, #64]	; 0x40
 80037dc:	f002 5280 	and.w	r2, r2, #268435456	; 0x10000000
 80037e0:	9200      	str	r2, [sp, #0]
 80037e2:	9a00      	ldr	r2, [sp, #0]
  __HAL_PWR_VOLTAGESCALING_CONFIG(PWR_REGULATOR_VOLTAGE_SCALE1);
 80037e4:	9301      	str	r3, [sp, #4]
 80037e6:	4b20      	ldr	r3, [pc, #128]	; (8003868 <SystemClock_Config+0xb4>)
 80037e8:	681a      	ldr	r2, [r3, #0]
 80037ea:	f442 4240 	orr.w	r2, r2, #49152	; 0xc000
 80037ee:	601a      	str	r2, [r3, #0]
 80037f0:	681b      	ldr	r3, [r3, #0]
 80037f2:	f403 4340 	and.w	r3, r3, #49152	; 0xc000
 80037f6:	9301      	str	r3, [sp, #4]
 80037f8:	9b01      	ldr	r3, [sp, #4]
  RCC_OscInitStruct.OscillatorType = RCC_OSCILLATORTYPE_HSE;
 80037fa:	2301      	movs	r3, #1
 80037fc:	9307      	str	r3, [sp, #28]
  RCC_OscInitStruct.HSEState = RCC_HSE_ON;
 80037fe:	f44f 3380 	mov.w	r3, #65536	; 0x10000
 8003802:	9308      	str	r3, [sp, #32]
  RCC_OscInitStruct.PLL.PLLState = RCC_PLL_ON;
 8003804:	2302      	movs	r3, #2
 8003806:	930d      	str	r3, [sp, #52]	; 0x34
  RCC_OscInitStruct.PLL.PLLSource = RCC_PLLSOURCE_HSE;
 8003808:	f44f 0280 	mov.w	r2, #4194304	; 0x400000
 800380c:	920e      	str	r2, [sp, #56]	; 0x38
  RCC_OscInitStruct.PLL.PLLM = 4;
 800380e:	2204      	movs	r2, #4
 8003810:	920f      	str	r2, [sp, #60]	; 0x3c
  RCC_OscInitStruct.PLL.PLLN = 180;
 8003812:	22b4      	movs	r2, #180	; 0xb4
 8003814:	9210      	str	r2, [sp, #64]	; 0x40
  RCC_OscInitStruct.PLL.PLLP = RCC_PLLP_DIV2;
 8003816:	9311      	str	r3, [sp, #68]	; 0x44
  RCC_OscInitStruct.PLL.PLLQ = 2;
 8003818:	9312      	str	r3, [sp, #72]	; 0x48
  RCC_OscInitStruct.PLL.PLLR = 2;
 800381a:	9313      	str	r3, [sp, #76]	; 0x4c
  if (HAL_RCC_OscConfig(&RCC_OscInitStruct) != HAL_OK)
 800381c:	a807      	add	r0, sp, #28
 800381e:	f7fe fa89 	bl	8001d34 <HAL_RCC_OscConfig>
 8003822:	b9b0      	cbnz	r0, 8003852 <SystemClock_Config+0x9e>
  if (HAL_PWREx_EnableOverDrive() != HAL_OK)
 8003824:	f7fe f8b4 	bl	8001990 <HAL_PWREx_EnableOverDrive>
 8003828:	b9b0      	cbnz	r0, 8003858 <SystemClock_Config+0xa4>
  RCC_ClkInitStruct.ClockType = RCC_CLOCKTYPE_HCLK|RCC_CLOCKTYPE_SYSCLK
 800382a:	230f      	movs	r3, #15
 800382c:	9302      	str	r3, [sp, #8]
  RCC_ClkInitStruct.SYSCLKSource = RCC_SYSCLKSOURCE_PLLCLK;
 800382e:	2302      	movs	r3, #2
 8003830:	9303      	str	r3, [sp, #12]
  RCC_ClkInitStruct.AHBCLKDivider = RCC_SYSCLK_DIV1;
 8003832:	2300      	movs	r3, #0
 8003834:	9304      	str	r3, [sp, #16]
  RCC_ClkInitStruct.APB1CLKDivider = RCC_HCLK_DIV4;
 8003836:	f44f 53a0 	mov.w	r3, #5120	; 0x1400
 800383a:	9305      	str	r3, [sp, #20]
  RCC_ClkInitStruct.APB2CLKDivider = RCC_HCLK_DIV2;
 800383c:	f44f 5380 	mov.w	r3, #4096	; 0x1000
 8003840:	9306      	str	r3, [sp, #24]
  if (HAL_RCC_ClockConfig(&RCC_ClkInitStruct, FLASH_LATENCY_5) != HAL_OK)
 8003842:	2105      	movs	r1, #5
 8003844:	a802      	add	r0, sp, #8
 8003846:	f7fe f8e3 	bl	8001a10 <HAL_RCC_ClockConfig>
 800384a:	b940      	cbnz	r0, 800385e <SystemClock_Config+0xaa>
}
 800384c:	b015      	add	sp, #84	; 0x54
 800384e:	f85d fb04 	ldr.w	pc, [sp], #4
    Error_Handler();
 8003852:	f7ff fe1f 	bl	8003494 <Error_Handler>
 8003856:	e7e5      	b.n	8003824 <SystemClock_Config+0x70>
    Error_Handler();
 8003858:	f7ff fe1c 	bl	8003494 <Error_Handler>
 800385c:	e7e5      	b.n	800382a <SystemClock_Config+0x76>
    Error_Handler();
 800385e:	f7ff fe19 	bl	8003494 <Error_Handler>
}
 8003862:	e7f3      	b.n	800384c <SystemClock_Config+0x98>
 8003864:	40023800 	.word	0x40023800
 8003868:	40007000 	.word	0x40007000

0800386c <main>:
{
 800386c:	b510      	push	{r4, lr}
 800386e:	b088      	sub	sp, #32
  HAL_Init();
 8003870:	f7fc fec6 	bl	8000600 <HAL_Init>
  SystemClock_Config();
 8003874:	f7ff ff9e 	bl	80037b4 <SystemClock_Config>
  MX_GPIO_Init();
 8003878:	f7ff fcc2 	bl	8003200 <MX_GPIO_Init>
  MX_ADC1_Init();
 800387c:	f7ff fe1a 	bl	80034b4 <MX_ADC1_Init>
  MX_CAN1_Init();
 8003880:	f7ff fe7c 	bl	800357c <MX_CAN1_Init>
  MX_USART2_UART_Init();
 8003884:	f7ff feca 	bl	800361c <MX_USART2_UART_Init>
  MX_TIM1_Init();
 8003888:	f7ff fee2 	bl	8003650 <MX_TIM1_Init>
  MX_USART3_UART_Init();
 800388c:	f7ff ff18 	bl	80036c0 <MX_USART3_UART_Init>
  MX_TIM3_Init();
 8003890:	f7ff ff30 	bl	80036f4 <MX_TIM3_Init>
	HAL_TIM_PWM_Start(&htim3, TIM_CHANNEL_1);
 8003894:	4ca3      	ldr	r4, [pc, #652]	; (8003b24 <main+0x2b8>)
 8003896:	2100      	movs	r1, #0
 8003898:	4620      	mov	r0, r4
 800389a:	f7ff f833 	bl	8002904 <HAL_TIM_PWM_Start>
	HAL_TIM_PWM_Start(&htim3, TIM_CHANNEL_2);
 800389e:	2104      	movs	r1, #4
 80038a0:	4620      	mov	r0, r4
 80038a2:	f7ff f82f 	bl	8002904 <HAL_TIM_PWM_Start>
	sConfigOC.OCMode = TIM_OCMODE_PWM1;
 80038a6:	4ba0      	ldr	r3, [pc, #640]	; (8003b28 <main+0x2bc>)
 80038a8:	2260      	movs	r2, #96	; 0x60
 80038aa:	601a      	str	r2, [r3, #0]
	sConfigOC.OCPolarity = TIM_OCPOLARITY_HIGH;
 80038ac:	2200      	movs	r2, #0
 80038ae:	609a      	str	r2, [r3, #8]
	sConfigOC.OCFastMode = TIM_OCFAST_DISABLE;
 80038b0:	611a      	str	r2, [r3, #16]
	sConfigOC.OCIdleState = TIM_OCIDLESTATE_RESET;
 80038b2:	615a      	str	r2, [r3, #20]
	HAL_TIM_Base_Start_IT(&htim1);
 80038b4:	489d      	ldr	r0, [pc, #628]	; (8003b2c <main+0x2c0>)
 80038b6:	f7fe fd1f 	bl	80022f8 <HAL_TIM_Base_Start_IT>
	InitADCmodule();
 80038ba:	f7ff fc5f 	bl	800317c <InitADCmodule>
	StartUARTCommunication();
 80038be:	f000 fdd1 	bl	8004464 <StartUARTCommunication>
	PutsTxData((uint8_t*)greetMsg,strlen(greetMsg));
 80038c2:	2113      	movs	r1, #19
 80038c4:	489a      	ldr	r0, [pc, #616]	; (8003b30 <main+0x2c4>)
 80038c6:	f000 fe6d 	bl	80045a4 <PutsTxData>
	sprintf(message,"$M%02x\r\n",operMode);
 80038ca:	4b9a      	ldr	r3, [pc, #616]	; (8003b34 <main+0x2c8>)
 80038cc:	7b1a      	ldrb	r2, [r3, #12]
 80038ce:	499a      	ldr	r1, [pc, #616]	; (8003b38 <main+0x2cc>)
 80038d0:	a803      	add	r0, sp, #12
 80038d2:	f000 fed5 	bl	8004680 <siprintf>
	PutsTxData((uint8_t *)message,strlen(message));
 80038d6:	a803      	add	r0, sp, #12
 80038d8:	f7fc fc9a 	bl	8000210 <strlen>
 80038dc:	4601      	mov	r1, r0
 80038de:	a803      	add	r0, sp, #12
 80038e0:	f000 fe60 	bl	80045a4 <PutsTxData>
	sprintf(message,"$I\r\n");
 80038e4:	4b95      	ldr	r3, [pc, #596]	; (8003b3c <main+0x2d0>)
 80038e6:	e893 0003 	ldmia.w	r3, {r0, r1}
 80038ea:	9003      	str	r0, [sp, #12]
 80038ec:	f88d 1010 	strb.w	r1, [sp, #16]
	PutsTxData((uint8_t *)message,strlen(message));
 80038f0:	a803      	add	r0, sp, #12
 80038f2:	f7fc fc8d 	bl	8000210 <strlen>
 80038f6:	4601      	mov	r1, r0
 80038f8:	a803      	add	r0, sp, #12
 80038fa:	f000 fe53 	bl	80045a4 <PutsTxData>
	HAL_CAN_ActivateNotification(&hcan1, CAN_IT_RX_FIFO0_MSG_PENDING);
 80038fe:	2102      	movs	r1, #2
 8003900:	488f      	ldr	r0, [pc, #572]	; (8003b40 <main+0x2d4>)
 8003902:	f7fd fd36 	bl	8001372 <HAL_CAN_ActivateNotification>
	while (ctrlTick == 0) continue;
 8003906:	4b8b      	ldr	r3, [pc, #556]	; (8003b34 <main+0x2c8>)
 8003908:	885b      	ldrh	r3, [r3, #2]
 800390a:	b29b      	uxth	r3, r3
 800390c:	2b00      	cmp	r3, #0
 800390e:	d0fa      	beq.n	8003906 <main+0x9a>
	ctrlTick = 0;
 8003910:	4b88      	ldr	r3, [pc, #544]	; (8003b34 <main+0x2c8>)
 8003912:	2200      	movs	r2, #0
 8003914:	805a      	strh	r2, [r3, #2]
	if ((status = GetADCChannelValue(POT1_CH, &value)) != 0)
 8003916:	f10d 011e 	add.w	r1, sp, #30
 800391a:	2001      	movs	r0, #1
 800391c:	f7ff fc42 	bl	80031a4 <GetADCChannelValue>
 8003920:	b340      	cbz	r0, 8003974 <main+0x108>
		if (value != pot1Val)
 8003922:	f8bd 101e 	ldrh.w	r1, [sp, #30]
 8003926:	4b87      	ldr	r3, [pc, #540]	; (8003b44 <main+0x2d8>)
 8003928:	881b      	ldrh	r3, [r3, #0]
 800392a:	4299      	cmp	r1, r3
 800392c:	d022      	beq.n	8003974 <main+0x108>
			pot1Val = (uint16_t)value;
 800392e:	4b85      	ldr	r3, [pc, #532]	; (8003b44 <main+0x2d8>)
 8003930:	8019      	strh	r1, [r3, #0]
			if ((operMode & OPMODE_REMOTE) == 0)
 8003932:	4b80      	ldr	r3, [pc, #512]	; (8003b34 <main+0x2c8>)
 8003934:	7b1b      	ldrb	r3, [r3, #12]
 8003936:	f013 0f08 	tst.w	r3, #8
 800393a:	d05a      	beq.n	80039f2 <main+0x186>
			sprintf(message,"$P1,%04x\r\n",pot1Val);
 800393c:	4c81      	ldr	r4, [pc, #516]	; (8003b44 <main+0x2d8>)
 800393e:	8822      	ldrh	r2, [r4, #0]
 8003940:	4981      	ldr	r1, [pc, #516]	; (8003b48 <main+0x2dc>)
 8003942:	a803      	add	r0, sp, #12
 8003944:	f000 fe9c 	bl	8004680 <siprintf>
			PutsTxData((uint8_t *)message,strlen(message));
 8003948:	a803      	add	r0, sp, #12
 800394a:	f7fc fc61 	bl	8000210 <strlen>
 800394e:	4601      	mov	r1, r0
 8003950:	a803      	add	r0, sp, #12
 8003952:	f000 fe27 	bl	80045a4 <PutsTxData>
			TxHeader.StdId = CAN_TXID_POT1;
 8003956:	4b7d      	ldr	r3, [pc, #500]	; (8003b4c <main+0x2e0>)
 8003958:	2211      	movs	r2, #17
 800395a:	601a      	str	r2, [r3, #0]
			TxHeader.DLC = 2;
 800395c:	2202      	movs	r2, #2
 800395e:	611a      	str	r2, [r3, #16]
			TxData[0] = ((uint8_t *)&pot1Val)[0];
 8003960:	7822      	ldrb	r2, [r4, #0]
 8003962:	4b7b      	ldr	r3, [pc, #492]	; (8003b50 <main+0x2e4>)
 8003964:	701a      	strb	r2, [r3, #0]
			TxData[1] = ((uint8_t *)&pot1Val)[1];
 8003966:	7862      	ldrb	r2, [r4, #1]
 8003968:	705a      	strb	r2, [r3, #1]
			if (HAL_CAN_GetTxMailboxesFreeLevel(&hcan1) > 0)
 800396a:	4875      	ldr	r0, [pc, #468]	; (8003b40 <main+0x2d4>)
 800396c:	f7fd fc48 	bl	8001200 <HAL_CAN_GetTxMailboxesFreeLevel>
 8003970:	2800      	cmp	r0, #0
 8003972:	d142      	bne.n	80039fa <main+0x18e>
	if ((status = GetADCChannelValue(POT2_CH, &value)) != 0)
 8003974:	f10d 011e 	add.w	r1, sp, #30
 8003978:	2002      	movs	r0, #2
 800397a:	f7ff fc13 	bl	80031a4 <GetADCChannelValue>
 800397e:	2800      	cmp	r0, #0
 8003980:	f000 80f6 	beq.w	8003b70 <main+0x304>
		if (value != pot2Val)
 8003984:	f8bd 101e 	ldrh.w	r1, [sp, #30]
 8003988:	4b6e      	ldr	r3, [pc, #440]	; (8003b44 <main+0x2d8>)
 800398a:	885b      	ldrh	r3, [r3, #2]
 800398c:	4299      	cmp	r1, r3
 800398e:	f000 80ef 	beq.w	8003b70 <main+0x304>
			pot2Val = (uint16_t)value;
 8003992:	4b6c      	ldr	r3, [pc, #432]	; (8003b44 <main+0x2d8>)
 8003994:	8059      	strh	r1, [r3, #2]
			if ((operMode & OPMODE_REMOTE) == 0)
 8003996:	4b67      	ldr	r3, [pc, #412]	; (8003b34 <main+0x2c8>)
 8003998:	7b1b      	ldrb	r3, [r3, #12]
 800399a:	f013 0f08 	tst.w	r3, #8
 800399e:	d037      	beq.n	8003a10 <main+0x1a4>
			sprintf(message,"$P2,%04x\r\n",pot2Val);
 80039a0:	4c68      	ldr	r4, [pc, #416]	; (8003b44 <main+0x2d8>)
 80039a2:	8862      	ldrh	r2, [r4, #2]
 80039a4:	496b      	ldr	r1, [pc, #428]	; (8003b54 <main+0x2e8>)
 80039a6:	a803      	add	r0, sp, #12
 80039a8:	f000 fe6a 	bl	8004680 <siprintf>
			PutsTxData((uint8_t *)message,strlen(message));
 80039ac:	a803      	add	r0, sp, #12
 80039ae:	f7fc fc2f 	bl	8000210 <strlen>
 80039b2:	4601      	mov	r1, r0
 80039b4:	a803      	add	r0, sp, #12
 80039b6:	f000 fdf5 	bl	80045a4 <PutsTxData>
			TxHeader.StdId = CAN_TXID_POT2;
 80039ba:	4b64      	ldr	r3, [pc, #400]	; (8003b4c <main+0x2e0>)
 80039bc:	2212      	movs	r2, #18
 80039be:	601a      	str	r2, [r3, #0]
			TxHeader.DLC = 2;
 80039c0:	2202      	movs	r2, #2
 80039c2:	611a      	str	r2, [r3, #16]
			TxData[0] = ((uint8_t *)&pot2Val)[0];
 80039c4:	78a2      	ldrb	r2, [r4, #2]
 80039c6:	4b62      	ldr	r3, [pc, #392]	; (8003b50 <main+0x2e4>)
 80039c8:	701a      	strb	r2, [r3, #0]
			TxData[1] = ((uint8_t *)&pot2Val)[1];
 80039ca:	78e2      	ldrb	r2, [r4, #3]
 80039cc:	705a      	strb	r2, [r3, #1]
			if (HAL_CAN_GetTxMailboxesFreeLevel(&hcan1) > 0)
 80039ce:	485c      	ldr	r0, [pc, #368]	; (8003b40 <main+0x2d4>)
 80039d0:	f7fd fc16 	bl	8001200 <HAL_CAN_GetTxMailboxesFreeLevel>
 80039d4:	2800      	cmp	r0, #0
 80039d6:	f000 80cb 	beq.w	8003b70 <main+0x304>
				  if (HAL_CAN_AddTxMessage(&hcan1, &TxHeader, TxData, &TxMailbox) != HAL_OK)
 80039da:	4b5f      	ldr	r3, [pc, #380]	; (8003b58 <main+0x2ec>)
 80039dc:	4a5c      	ldr	r2, [pc, #368]	; (8003b50 <main+0x2e4>)
 80039de:	495b      	ldr	r1, [pc, #364]	; (8003b4c <main+0x2e0>)
 80039e0:	4857      	ldr	r0, [pc, #348]	; (8003b40 <main+0x2d4>)
 80039e2:	f7fd fb97 	bl	8001114 <HAL_CAN_AddTxMessage>
 80039e6:	2800      	cmp	r0, #0
 80039e8:	f000 80c2 	beq.w	8003b70 <main+0x304>
					  Error_Handler();
 80039ec:	f7ff fd52 	bl	8003494 <Error_Handler>
 80039f0:	e0be      	b.n	8003b70 <main+0x304>
				Operate3colorLED(GREEN_LED, pot1Val);
 80039f2:	2001      	movs	r0, #1
 80039f4:	f7ff fd2c 	bl	8003450 <Operate3colorLED>
 80039f8:	e7a0      	b.n	800393c <main+0xd0>
				  if (HAL_CAN_AddTxMessage(&hcan1, &TxHeader, TxData, &TxMailbox) != HAL_OK)
 80039fa:	4b57      	ldr	r3, [pc, #348]	; (8003b58 <main+0x2ec>)
 80039fc:	4a54      	ldr	r2, [pc, #336]	; (8003b50 <main+0x2e4>)
 80039fe:	4953      	ldr	r1, [pc, #332]	; (8003b4c <main+0x2e0>)
 8003a00:	484f      	ldr	r0, [pc, #316]	; (8003b40 <main+0x2d4>)
 8003a02:	f7fd fb87 	bl	8001114 <HAL_CAN_AddTxMessage>
 8003a06:	2800      	cmp	r0, #0
 8003a08:	d0b4      	beq.n	8003974 <main+0x108>
					  Error_Handler();
 8003a0a:	f7ff fd43 	bl	8003494 <Error_Handler>
 8003a0e:	e7b1      	b.n	8003974 <main+0x108>
				Operate3colorLED(RED_LED, pot2Val);
 8003a10:	2002      	movs	r0, #2
 8003a12:	f7ff fd1d 	bl	8003450 <Operate3colorLED>
 8003a16:	e7c3      	b.n	80039a0 <main+0x134>
				inmsgBuf[inmsgPnt] = NUL_C;
 8003a18:	4a46      	ldr	r2, [pc, #280]	; (8003b34 <main+0x2c8>)
 8003a1a:	4413      	add	r3, r2
 8003a1c:	2100      	movs	r1, #0
 8003a1e:	7519      	strb	r1, [r3, #20]
				switch (inmsgBuf[1])
 8003a20:	7d53      	ldrb	r3, [r2, #21]
 8003a22:	2b4d      	cmp	r3, #77	; 0x4d
 8003a24:	d03c      	beq.n	8003aa0 <main+0x234>
 8003a26:	2b50      	cmp	r3, #80	; 0x50
 8003a28:	d004      	beq.n	8003a34 <main+0x1c8>
 8003a2a:	2b49      	cmp	r3, #73	; 0x49
 8003a2c:	d050      	beq.n	8003ad0 <main+0x264>
						CMDerrorSignal();
 8003a2e:	f7ff fcb5 	bl	800339c <CMDerrorSignal>
 8003a32:	e073      	b.n	8003b1c <main+0x2b0>
						status = sscanf ((char *)(inmsgBuf + 2),"%d,%4hx",&ch,&uarg);
 8003a34:	f10d 0306 	add.w	r3, sp, #6
 8003a38:	aa02      	add	r2, sp, #8
 8003a3a:	4948      	ldr	r1, [pc, #288]	; (8003b5c <main+0x2f0>)
 8003a3c:	4848      	ldr	r0, [pc, #288]	; (8003b60 <main+0x2f4>)
 8003a3e:	f000 fe3f 	bl	80046c0 <siscanf>
						if (status == 2)
 8003a42:	2802      	cmp	r0, #2
 8003a44:	d129      	bne.n	8003a9a <main+0x22e>
							switch (ch)
 8003a46:	9b02      	ldr	r3, [sp, #8]
 8003a48:	2b01      	cmp	r3, #1
 8003a4a:	d004      	beq.n	8003a56 <main+0x1ea>
 8003a4c:	2b02      	cmp	r3, #2
 8003a4e:	d013      	beq.n	8003a78 <main+0x20c>
									CMDerrorSignal();
 8003a50:	f7ff fca4 	bl	800339c <CMDerrorSignal>
 8003a54:	e062      	b.n	8003b1c <main+0x2b0>
									if (uarg != rem1Val)
 8003a56:	f8bd 1006 	ldrh.w	r1, [sp, #6]
 8003a5a:	4b3a      	ldr	r3, [pc, #232]	; (8003b44 <main+0x2d8>)
 8003a5c:	889b      	ldrh	r3, [r3, #4]
 8003a5e:	4299      	cmp	r1, r3
 8003a60:	d05c      	beq.n	8003b1c <main+0x2b0>
										rem1Val = uarg;
 8003a62:	4b38      	ldr	r3, [pc, #224]	; (8003b44 <main+0x2d8>)
 8003a64:	8099      	strh	r1, [r3, #4]
										if ((operMode & OPMODE_REMOTE) != 0)
 8003a66:	4b33      	ldr	r3, [pc, #204]	; (8003b34 <main+0x2c8>)
 8003a68:	7b1b      	ldrb	r3, [r3, #12]
 8003a6a:	f013 0f08 	tst.w	r3, #8
 8003a6e:	d055      	beq.n	8003b1c <main+0x2b0>
											Operate3colorLED(GREEN_LED, uarg);
 8003a70:	2001      	movs	r0, #1
 8003a72:	f7ff fced 	bl	8003450 <Operate3colorLED>
 8003a76:	e051      	b.n	8003b1c <main+0x2b0>
									if (uarg != rem2Val)
 8003a78:	f8bd 1006 	ldrh.w	r1, [sp, #6]
 8003a7c:	4b31      	ldr	r3, [pc, #196]	; (8003b44 <main+0x2d8>)
 8003a7e:	88db      	ldrh	r3, [r3, #6]
 8003a80:	4299      	cmp	r1, r3
 8003a82:	d04b      	beq.n	8003b1c <main+0x2b0>
										rem2Val = uarg;
 8003a84:	4b2f      	ldr	r3, [pc, #188]	; (8003b44 <main+0x2d8>)
 8003a86:	80d9      	strh	r1, [r3, #6]
										if ((operMode & OPMODE_REMOTE) != 0)
 8003a88:	4b2a      	ldr	r3, [pc, #168]	; (8003b34 <main+0x2c8>)
 8003a8a:	7b1b      	ldrb	r3, [r3, #12]
 8003a8c:	f013 0f08 	tst.w	r3, #8
 8003a90:	d044      	beq.n	8003b1c <main+0x2b0>
											Operate3colorLED(RED_LED, uarg);
 8003a92:	2002      	movs	r0, #2
 8003a94:	f7ff fcdc 	bl	8003450 <Operate3colorLED>
 8003a98:	e040      	b.n	8003b1c <main+0x2b0>
							CMDerrorSignal();
 8003a9a:	f7ff fc7f 	bl	800339c <CMDerrorSignal>
 8003a9e:	e03d      	b.n	8003b1c <main+0x2b0>
						status = sscanf ((char *)(inmsgBuf + 2),"%2hx",&uarg);
 8003aa0:	f10d 0206 	add.w	r2, sp, #6
 8003aa4:	492f      	ldr	r1, [pc, #188]	; (8003b64 <main+0x2f8>)
 8003aa6:	482e      	ldr	r0, [pc, #184]	; (8003b60 <main+0x2f4>)
 8003aa8:	f000 fe0a 	bl	80046c0 <siscanf>
						if (status == 1)
 8003aac:	2801      	cmp	r0, #1
 8003aae:	d135      	bne.n	8003b1c <main+0x2b0>
							UpdateOperModeLEDs();
 8003ab0:	f7ff fc84 	bl	80033bc <UpdateOperModeLEDs>
							sprintf(message,"$M%2X\r\n",operMode);
 8003ab4:	4b1f      	ldr	r3, [pc, #124]	; (8003b34 <main+0x2c8>)
 8003ab6:	7b1a      	ldrb	r2, [r3, #12]
 8003ab8:	492b      	ldr	r1, [pc, #172]	; (8003b68 <main+0x2fc>)
 8003aba:	a803      	add	r0, sp, #12
 8003abc:	f000 fde0 	bl	8004680 <siprintf>
							PutsTxData((uint8_t *)message,strlen(message));
 8003ac0:	a803      	add	r0, sp, #12
 8003ac2:	f7fc fba5 	bl	8000210 <strlen>
 8003ac6:	4601      	mov	r1, r0
 8003ac8:	a803      	add	r0, sp, #12
 8003aca:	f000 fd6b 	bl	80045a4 <PutsTxData>
 8003ace:	e025      	b.n	8003b1c <main+0x2b0>
						sprintf(message,"$P1,%04x\r\n",pot1Val);
 8003ad0:	4c1c      	ldr	r4, [pc, #112]	; (8003b44 <main+0x2d8>)
 8003ad2:	8822      	ldrh	r2, [r4, #0]
 8003ad4:	491c      	ldr	r1, [pc, #112]	; (8003b48 <main+0x2dc>)
 8003ad6:	a803      	add	r0, sp, #12
 8003ad8:	f000 fdd2 	bl	8004680 <siprintf>
						PutsTxData((uint8_t *)message,strlen(message));
 8003adc:	a803      	add	r0, sp, #12
 8003ade:	f7fc fb97 	bl	8000210 <strlen>
 8003ae2:	4601      	mov	r1, r0
 8003ae4:	a803      	add	r0, sp, #12
 8003ae6:	f000 fd5d 	bl	80045a4 <PutsTxData>
						sprintf(message,"$P2,%04x\r\n",pot2Val);
 8003aea:	8862      	ldrh	r2, [r4, #2]
 8003aec:	4919      	ldr	r1, [pc, #100]	; (8003b54 <main+0x2e8>)
 8003aee:	a803      	add	r0, sp, #12
 8003af0:	f000 fdc6 	bl	8004680 <siprintf>
						PutsTxData((uint8_t *)message,strlen(message));
 8003af4:	a803      	add	r0, sp, #12
 8003af6:	f7fc fb8b 	bl	8000210 <strlen>
 8003afa:	4601      	mov	r1, r0
 8003afc:	a803      	add	r0, sp, #12
 8003afe:	f000 fd51 	bl	80045a4 <PutsTxData>
						sprintf(message,"$M%02x\r\n",operMode);
 8003b02:	4b0c      	ldr	r3, [pc, #48]	; (8003b34 <main+0x2c8>)
 8003b04:	7b1a      	ldrb	r2, [r3, #12]
 8003b06:	490c      	ldr	r1, [pc, #48]	; (8003b38 <main+0x2cc>)
 8003b08:	a803      	add	r0, sp, #12
 8003b0a:	f000 fdb9 	bl	8004680 <siprintf>
						PutsTxData((uint8_t *)message,strlen(message));
 8003b0e:	a803      	add	r0, sp, #12
 8003b10:	f7fc fb7e 	bl	8000210 <strlen>
 8003b14:	4601      	mov	r1, r0
 8003b16:	a803      	add	r0, sp, #12
 8003b18:	f000 fd44 	bl	80045a4 <PutsTxData>
				inmsgPnt = 0;
 8003b1c:	4b05      	ldr	r3, [pc, #20]	; (8003b34 <main+0x2c8>)
 8003b1e:	2200      	movs	r2, #0
 8003b20:	611a      	str	r2, [r3, #16]
 8003b22:	e025      	b.n	8003b70 <main+0x304>
 8003b24:	20000a04 	.word	0x20000a04
 8003b28:	20000a94 	.word	0x20000a94
 8003b2c:	20000ab8 	.word	0x20000ab8
 8003b30:	0800587c 	.word	0x0800587c
 8003b34:	200000b4 	.word	0x200000b4
 8003b38:	080058b4 	.word	0x080058b4
 8003b3c:	080058c0 	.word	0x080058c0
 8003b40:	20000b50 	.word	0x20000b50
 8003b44:	20000008 	.word	0x20000008
 8003b48:	080058c8 	.word	0x080058c8
 8003b4c:	20000b78 	.word	0x20000b78
 8003b50:	20000ab0 	.word	0x20000ab0
 8003b54:	080058d4 	.word	0x080058d4
 8003b58:	20000b00 	.word	0x20000b00
 8003b5c:	080058e0 	.word	0x080058e0
 8003b60:	200000ca 	.word	0x200000ca
 8003b64:	080058e8 	.word	0x080058e8
 8003b68:	080058f0 	.word	0x080058f0
			if (rch == '$')
 8003b6c:	2824      	cmp	r0, #36	; 0x24
 8003b6e:	d018      	beq.n	8003ba2 <main+0x336>
	while (TestRxData() == SET)
 8003b70:	f000 fc94 	bl	800449c <TestRxData>
 8003b74:	2801      	cmp	r0, #1
 8003b76:	f47f aec6 	bne.w	8003906 <main+0x9a>
		rch = GetcRxData();
 8003b7a:	f000 fc97 	bl	80044ac <GetcRxData>
		if (inmsgPnt > 0)
 8003b7e:	4b0b      	ldr	r3, [pc, #44]	; (8003bac <main+0x340>)
 8003b80:	691b      	ldr	r3, [r3, #16]
 8003b82:	2b00      	cmp	r3, #0
 8003b84:	d0f2      	beq.n	8003b6c <main+0x300>
			if (rch == CR_C)
 8003b86:	280d      	cmp	r0, #13
 8003b88:	f43f af46 	beq.w	8003a18 <main+0x1ac>
				inmsgBuf[inmsgPnt] = rch;
 8003b8c:	4a07      	ldr	r2, [pc, #28]	; (8003bac <main+0x340>)
 8003b8e:	18d1      	adds	r1, r2, r3
 8003b90:	7508      	strb	r0, [r1, #20]
				inmsgPnt++;
 8003b92:	3301      	adds	r3, #1
 8003b94:	6113      	str	r3, [r2, #16]
				if (inmsgPnt >= INMSG_SIZE)
 8003b96:	2b3f      	cmp	r3, #63	; 0x3f
 8003b98:	d9ea      	bls.n	8003b70 <main+0x304>
					inmsgPnt = 0;
 8003b9a:	4613      	mov	r3, r2
 8003b9c:	2200      	movs	r2, #0
 8003b9e:	611a      	str	r2, [r3, #16]
 8003ba0:	e7e6      	b.n	8003b70 <main+0x304>
				inmsgBuf[0] = rch;
 8003ba2:	4a02      	ldr	r2, [pc, #8]	; (8003bac <main+0x340>)
 8003ba4:	7510      	strb	r0, [r2, #20]
				inmsgPnt++;
 8003ba6:	3301      	adds	r3, #1
 8003ba8:	6113      	str	r3, [r2, #16]
 8003baa:	e7e1      	b.n	8003b70 <main+0x304>
 8003bac:	200000b4 	.word	0x200000b4

08003bb0 <HAL_CAN_RxFifo0MsgPendingCallback>:
{
 8003bb0:	b500      	push	{lr}
 8003bb2:	b083      	sub	sp, #12
	if (HAL_CAN_GetRxMessage(&hcan1, CAN_RX_FIFO0, &RxHeader, RxData) != HAL_OK)
 8003bb4:	4b31      	ldr	r3, [pc, #196]	; (8003c7c <HAL_CAN_RxFifo0MsgPendingCallback+0xcc>)
 8003bb6:	4a32      	ldr	r2, [pc, #200]	; (8003c80 <HAL_CAN_RxFifo0MsgPendingCallback+0xd0>)
 8003bb8:	2100      	movs	r1, #0
 8003bba:	4832      	ldr	r0, [pc, #200]	; (8003c84 <HAL_CAN_RxFifo0MsgPendingCallback+0xd4>)
 8003bbc:	f7fd fb39 	bl	8001232 <HAL_CAN_GetRxMessage>
 8003bc0:	b998      	cbnz	r0, 8003bea <HAL_CAN_RxFifo0MsgPendingCallback+0x3a>
	if (RxHeader.IDE == CAN_ID_STD)
 8003bc2:	4b2f      	ldr	r3, [pc, #188]	; (8003c80 <HAL_CAN_RxFifo0MsgPendingCallback+0xd0>)
 8003bc4:	689b      	ldr	r3, [r3, #8]
 8003bc6:	b96b      	cbnz	r3, 8003be4 <HAL_CAN_RxFifo0MsgPendingCallback+0x34>
		switch (RxHeader.StdId)
 8003bc8:	4b2d      	ldr	r3, [pc, #180]	; (8003c80 <HAL_CAN_RxFifo0MsgPendingCallback+0xd0>)
 8003bca:	681b      	ldr	r3, [r3, #0]
 8003bcc:	f240 6222 	movw	r2, #1570	; 0x622
 8003bd0:	4293      	cmp	r3, r2
 8003bd2:	d029      	beq.n	8003c28 <HAL_CAN_RxFifo0MsgPendingCallback+0x78>
 8003bd4:	f240 6223 	movw	r2, #1571	; 0x623
 8003bd8:	4293      	cmp	r3, r2
 8003bda:	d041      	beq.n	8003c60 <HAL_CAN_RxFifo0MsgPendingCallback+0xb0>
 8003bdc:	f240 6221 	movw	r2, #1569	; 0x621
 8003be0:	4293      	cmp	r3, r2
 8003be2:	d005      	beq.n	8003bf0 <HAL_CAN_RxFifo0MsgPendingCallback+0x40>
}
 8003be4:	b003      	add	sp, #12
 8003be6:	f85d fb04 	ldr.w	pc, [sp], #4
		Error_Handler();
 8003bea:	f7ff fc53 	bl	8003494 <Error_Handler>
		return;
 8003bee:	e7f9      	b.n	8003be4 <HAL_CAN_RxFifo0MsgPendingCallback+0x34>
	  	  		if (RxHeader.DLC == 2)
 8003bf0:	4b23      	ldr	r3, [pc, #140]	; (8003c80 <HAL_CAN_RxFifo0MsgPendingCallback+0xd0>)
 8003bf2:	691b      	ldr	r3, [r3, #16]
 8003bf4:	2b02      	cmp	r3, #2
 8003bf6:	d1f5      	bne.n	8003be4 <HAL_CAN_RxFifo0MsgPendingCallback+0x34>
	  	  			((uint8_t *)&uval16)[0] = RxData[0];
 8003bf8:	4b20      	ldr	r3, [pc, #128]	; (8003c7c <HAL_CAN_RxFifo0MsgPendingCallback+0xcc>)
 8003bfa:	781a      	ldrb	r2, [r3, #0]
 8003bfc:	f88d 2006 	strb.w	r2, [sp, #6]
	  	  			((uint8_t *)&uval16)[1] = RxData[1];
 8003c00:	785b      	ldrb	r3, [r3, #1]
 8003c02:	f88d 3007 	strb.w	r3, [sp, #7]
	  	  			if (uval16 != rem1Val)
 8003c06:	f8bd 1006 	ldrh.w	r1, [sp, #6]
 8003c0a:	4b1f      	ldr	r3, [pc, #124]	; (8003c88 <HAL_CAN_RxFifo0MsgPendingCallback+0xd8>)
 8003c0c:	889b      	ldrh	r3, [r3, #4]
 8003c0e:	4299      	cmp	r1, r3
 8003c10:	d0e8      	beq.n	8003be4 <HAL_CAN_RxFifo0MsgPendingCallback+0x34>
						rem1Val = uval16;
 8003c12:	4b1d      	ldr	r3, [pc, #116]	; (8003c88 <HAL_CAN_RxFifo0MsgPendingCallback+0xd8>)
 8003c14:	8099      	strh	r1, [r3, #4]
						if ((operMode & OPMODE_REMOTE) != 0)
 8003c16:	4b1d      	ldr	r3, [pc, #116]	; (8003c8c <HAL_CAN_RxFifo0MsgPendingCallback+0xdc>)
 8003c18:	7b1b      	ldrb	r3, [r3, #12]
 8003c1a:	f013 0f08 	tst.w	r3, #8
 8003c1e:	d0e1      	beq.n	8003be4 <HAL_CAN_RxFifo0MsgPendingCallback+0x34>
							Operate3colorLED(GREEN_LED, uval16);
 8003c20:	2001      	movs	r0, #1
 8003c22:	f7ff fc15 	bl	8003450 <Operate3colorLED>
 8003c26:	e7dd      	b.n	8003be4 <HAL_CAN_RxFifo0MsgPendingCallback+0x34>
	  	  		if (RxHeader.DLC == 2)
 8003c28:	4b15      	ldr	r3, [pc, #84]	; (8003c80 <HAL_CAN_RxFifo0MsgPendingCallback+0xd0>)
 8003c2a:	691b      	ldr	r3, [r3, #16]
 8003c2c:	2b02      	cmp	r3, #2
 8003c2e:	d1d9      	bne.n	8003be4 <HAL_CAN_RxFifo0MsgPendingCallback+0x34>
	  	  			((uint8_t *)&uval16)[0] = RxData[0];
 8003c30:	4b12      	ldr	r3, [pc, #72]	; (8003c7c <HAL_CAN_RxFifo0MsgPendingCallback+0xcc>)
 8003c32:	781a      	ldrb	r2, [r3, #0]
 8003c34:	f88d 2006 	strb.w	r2, [sp, #6]
	  	  			((uint8_t *)&uval16)[1] = RxData[1];
 8003c38:	785b      	ldrb	r3, [r3, #1]
 8003c3a:	f88d 3007 	strb.w	r3, [sp, #7]
	  	  			if (uval16 != rem2Val)
 8003c3e:	f8bd 1006 	ldrh.w	r1, [sp, #6]
 8003c42:	4b11      	ldr	r3, [pc, #68]	; (8003c88 <HAL_CAN_RxFifo0MsgPendingCallback+0xd8>)
 8003c44:	88db      	ldrh	r3, [r3, #6]
 8003c46:	4299      	cmp	r1, r3
 8003c48:	d0cc      	beq.n	8003be4 <HAL_CAN_RxFifo0MsgPendingCallback+0x34>
						rem2Val = uval16;
 8003c4a:	4b0f      	ldr	r3, [pc, #60]	; (8003c88 <HAL_CAN_RxFifo0MsgPendingCallback+0xd8>)
 8003c4c:	80d9      	strh	r1, [r3, #6]
						if ((operMode & OPMODE_REMOTE) != 0)
 8003c4e:	4b0f      	ldr	r3, [pc, #60]	; (8003c8c <HAL_CAN_RxFifo0MsgPendingCallback+0xdc>)
 8003c50:	7b1b      	ldrb	r3, [r3, #12]
 8003c52:	f013 0f08 	tst.w	r3, #8
 8003c56:	d0c5      	beq.n	8003be4 <HAL_CAN_RxFifo0MsgPendingCallback+0x34>
							Operate3colorLED(RED_LED, uval16);
 8003c58:	2002      	movs	r0, #2
 8003c5a:	f7ff fbf9 	bl	8003450 <Operate3colorLED>
 8003c5e:	e7c1      	b.n	8003be4 <HAL_CAN_RxFifo0MsgPendingCallback+0x34>
	  	  		if (RxHeader.DLC == 1)
 8003c60:	4b07      	ldr	r3, [pc, #28]	; (8003c80 <HAL_CAN_RxFifo0MsgPendingCallback+0xd0>)
 8003c62:	691b      	ldr	r3, [r3, #16]
 8003c64:	2b01      	cmp	r3, #1
 8003c66:	d1bd      	bne.n	8003be4 <HAL_CAN_RxFifo0MsgPendingCallback+0x34>
	  	  			operMode = RxData[0] & OPMODE_BMASK;
 8003c68:	4b04      	ldr	r3, [pc, #16]	; (8003c7c <HAL_CAN_RxFifo0MsgPendingCallback+0xcc>)
 8003c6a:	781b      	ldrb	r3, [r3, #0]
 8003c6c:	f003 030f 	and.w	r3, r3, #15
 8003c70:	4a06      	ldr	r2, [pc, #24]	; (8003c8c <HAL_CAN_RxFifo0MsgPendingCallback+0xdc>)
 8003c72:	7313      	strb	r3, [r2, #12]
	  	  			UpdateOperModeLEDs();
 8003c74:	f7ff fba2 	bl	80033bc <UpdateOperModeLEDs>
	  		default:;
 8003c78:	e7b4      	b.n	8003be4 <HAL_CAN_RxFifo0MsgPendingCallback+0x34>
 8003c7a:	bf00      	nop
 8003c7c:	20000b04 	.word	0x20000b04
 8003c80:	20000b90 	.word	0x20000b90
 8003c84:	20000b50 	.word	0x20000b50
 8003c88:	20000008 	.word	0x20000008
 8003c8c:	200000b4 	.word	0x200000b4

08003c90 <SendOperModeToCAN>:
{
 8003c90:	b508      	push	{r3, lr}
	TxHeader.StdId = CAN_TXID_OPMS;
 8003c92:	4b0c      	ldr	r3, [pc, #48]	; (8003cc4 <SendOperModeToCAN+0x34>)
 8003c94:	2213      	movs	r2, #19
 8003c96:	601a      	str	r2, [r3, #0]
	TxHeader.DLC = 1;
 8003c98:	2201      	movs	r2, #1
 8003c9a:	611a      	str	r2, [r3, #16]
	TxData[0] = operMode;
 8003c9c:	4b0a      	ldr	r3, [pc, #40]	; (8003cc8 <SendOperModeToCAN+0x38>)
 8003c9e:	7b1a      	ldrb	r2, [r3, #12]
 8003ca0:	4b0a      	ldr	r3, [pc, #40]	; (8003ccc <SendOperModeToCAN+0x3c>)
 8003ca2:	701a      	strb	r2, [r3, #0]
	if (HAL_CAN_GetTxMailboxesFreeLevel(&hcan1) > 0)
 8003ca4:	480a      	ldr	r0, [pc, #40]	; (8003cd0 <SendOperModeToCAN+0x40>)
 8003ca6:	f7fd faab 	bl	8001200 <HAL_CAN_GetTxMailboxesFreeLevel>
 8003caa:	b900      	cbnz	r0, 8003cae <SendOperModeToCAN+0x1e>
}
 8003cac:	bd08      	pop	{r3, pc}
		  if (HAL_CAN_AddTxMessage(&hcan1, &TxHeader, TxData, &TxMailbox) != HAL_OK)
 8003cae:	4b09      	ldr	r3, [pc, #36]	; (8003cd4 <SendOperModeToCAN+0x44>)
 8003cb0:	4a06      	ldr	r2, [pc, #24]	; (8003ccc <SendOperModeToCAN+0x3c>)
 8003cb2:	4904      	ldr	r1, [pc, #16]	; (8003cc4 <SendOperModeToCAN+0x34>)
 8003cb4:	4806      	ldr	r0, [pc, #24]	; (8003cd0 <SendOperModeToCAN+0x40>)
 8003cb6:	f7fd fa2d 	bl	8001114 <HAL_CAN_AddTxMessage>
 8003cba:	2800      	cmp	r0, #0
 8003cbc:	d0f6      	beq.n	8003cac <SendOperModeToCAN+0x1c>
			  Error_Handler();
 8003cbe:	f7ff fbe9 	bl	8003494 <Error_Handler>
}
 8003cc2:	e7f3      	b.n	8003cac <SendOperModeToCAN+0x1c>
 8003cc4:	20000b78 	.word	0x20000b78
 8003cc8:	200000b4 	.word	0x200000b4
 8003ccc:	20000ab0 	.word	0x20000ab0
 8003cd0:	20000b50 	.word	0x20000b50
 8003cd4:	20000b00 	.word	0x20000b00

08003cd8 <HAL_SYSTICK_Callback>:
{
 8003cd8:	b510      	push	{r4, lr}
 8003cda:	b082      	sub	sp, #8
	secCnt++;
 8003cdc:	4aa6      	ldr	r2, [pc, #664]	; (8003f78 <HAL_SYSTICK_Callback+0x2a0>)
 8003cde:	f8b2 3054 	ldrh.w	r3, [r2, #84]	; 0x54
 8003ce2:	b29b      	uxth	r3, r3
 8003ce4:	3301      	adds	r3, #1
 8003ce6:	b29b      	uxth	r3, r3
 8003ce8:	f8a2 3054 	strh.w	r3, [r2, #84]	; 0x54
	if (secCnt == 500)
 8003cec:	f8b2 3054 	ldrh.w	r3, [r2, #84]	; 0x54
 8003cf0:	b29b      	uxth	r3, r3
 8003cf2:	f5b3 7ffa 	cmp.w	r3, #500	; 0x1f4
 8003cf6:	d05c      	beq.n	8003db2 <HAL_SYSTICK_Callback+0xda>
	if (secCnt >= 1000)
 8003cf8:	4b9f      	ldr	r3, [pc, #636]	; (8003f78 <HAL_SYSTICK_Callback+0x2a0>)
 8003cfa:	f8b3 3054 	ldrh.w	r3, [r3, #84]	; 0x54
 8003cfe:	b29b      	uxth	r3, r3
 8003d00:	f5b3 7f7a 	cmp.w	r3, #1000	; 0x3e8
 8003d04:	d25b      	bcs.n	8003dbe <HAL_SYSTICK_Callback+0xe6>
	if (led5signCnt > 0)
 8003d06:	4b9c      	ldr	r3, [pc, #624]	; (8003f78 <HAL_SYSTICK_Callback+0x2a0>)
 8003d08:	891b      	ldrh	r3, [r3, #8]
 8003d0a:	b29b      	uxth	r3, r3
 8003d0c:	b153      	cbz	r3, 8003d24 <HAL_SYSTICK_Callback+0x4c>
		if (led5signCnt == 1)
 8003d0e:	4b9a      	ldr	r3, [pc, #616]	; (8003f78 <HAL_SYSTICK_Callback+0x2a0>)
 8003d10:	891b      	ldrh	r3, [r3, #8]
 8003d12:	b29b      	uxth	r3, r3
 8003d14:	2b01      	cmp	r3, #1
 8003d16:	d05c      	beq.n	8003dd2 <HAL_SYSTICK_Callback+0xfa>
		led5signCnt--;
 8003d18:	4a97      	ldr	r2, [pc, #604]	; (8003f78 <HAL_SYSTICK_Callback+0x2a0>)
 8003d1a:	8913      	ldrh	r3, [r2, #8]
 8003d1c:	b29b      	uxth	r3, r3
 8003d1e:	3b01      	subs	r3, #1
 8003d20:	b29b      	uxth	r3, r3
 8003d22:	8113      	strh	r3, [r2, #8]
	if (led6signCnt > 0)
 8003d24:	4b94      	ldr	r3, [pc, #592]	; (8003f78 <HAL_SYSTICK_Callback+0x2a0>)
 8003d26:	895b      	ldrh	r3, [r3, #10]
 8003d28:	b29b      	uxth	r3, r3
 8003d2a:	b153      	cbz	r3, 8003d42 <HAL_SYSTICK_Callback+0x6a>
		if (led6signCnt == 1)
 8003d2c:	4b92      	ldr	r3, [pc, #584]	; (8003f78 <HAL_SYSTICK_Callback+0x2a0>)
 8003d2e:	895b      	ldrh	r3, [r3, #10]
 8003d30:	b29b      	uxth	r3, r3
 8003d32:	2b01      	cmp	r3, #1
 8003d34:	d053      	beq.n	8003dde <HAL_SYSTICK_Callback+0x106>
		led6signCnt--;
 8003d36:	4a90      	ldr	r2, [pc, #576]	; (8003f78 <HAL_SYSTICK_Callback+0x2a0>)
 8003d38:	8953      	ldrh	r3, [r2, #10]
 8003d3a:	b29b      	uxth	r3, r3
 8003d3c:	3b01      	subs	r3, #1
 8003d3e:	b29b      	uxth	r3, r3
 8003d40:	8153      	strh	r3, [r2, #10]
	if (sw1Block > 0)
 8003d42:	4b8d      	ldr	r3, [pc, #564]	; (8003f78 <HAL_SYSTICK_Callback+0x2a0>)
 8003d44:	791b      	ldrb	r3, [r3, #4]
 8003d46:	b14b      	cbz	r3, 8003d5c <HAL_SYSTICK_Callback+0x84>
		if (sw1Block == 1)
 8003d48:	4b8b      	ldr	r3, [pc, #556]	; (8003f78 <HAL_SYSTICK_Callback+0x2a0>)
 8003d4a:	791b      	ldrb	r3, [r3, #4]
 8003d4c:	b2db      	uxtb	r3, r3
 8003d4e:	2b01      	cmp	r3, #1
 8003d50:	d04c      	beq.n	8003dec <HAL_SYSTICK_Callback+0x114>
		sw1Block--;
 8003d52:	4a89      	ldr	r2, [pc, #548]	; (8003f78 <HAL_SYSTICK_Callback+0x2a0>)
 8003d54:	7913      	ldrb	r3, [r2, #4]
 8003d56:	3b01      	subs	r3, #1
 8003d58:	b2db      	uxtb	r3, r3
 8003d5a:	7113      	strb	r3, [r2, #4]
	if (sw2Block > 0)
 8003d5c:	4b86      	ldr	r3, [pc, #536]	; (8003f78 <HAL_SYSTICK_Callback+0x2a0>)
 8003d5e:	795b      	ldrb	r3, [r3, #5]
 8003d60:	b14b      	cbz	r3, 8003d76 <HAL_SYSTICK_Callback+0x9e>
		if (sw2Block == 1)
 8003d62:	4b85      	ldr	r3, [pc, #532]	; (8003f78 <HAL_SYSTICK_Callback+0x2a0>)
 8003d64:	795b      	ldrb	r3, [r3, #5]
 8003d66:	b2db      	uxtb	r3, r3
 8003d68:	2b01      	cmp	r3, #1
 8003d6a:	d070      	beq.n	8003e4e <HAL_SYSTICK_Callback+0x176>
		sw2Block--;
 8003d6c:	4a82      	ldr	r2, [pc, #520]	; (8003f78 <HAL_SYSTICK_Callback+0x2a0>)
 8003d6e:	7953      	ldrb	r3, [r2, #5]
 8003d70:	3b01      	subs	r3, #1
 8003d72:	b2db      	uxtb	r3, r3
 8003d74:	7153      	strb	r3, [r2, #5]
	if (sw3Block > 0)
 8003d76:	4b80      	ldr	r3, [pc, #512]	; (8003f78 <HAL_SYSTICK_Callback+0x2a0>)
 8003d78:	799b      	ldrb	r3, [r3, #6]
 8003d7a:	b153      	cbz	r3, 8003d92 <HAL_SYSTICK_Callback+0xba>
		if (sw3Block == 1)
 8003d7c:	4b7e      	ldr	r3, [pc, #504]	; (8003f78 <HAL_SYSTICK_Callback+0x2a0>)
 8003d7e:	799b      	ldrb	r3, [r3, #6]
 8003d80:	b2db      	uxtb	r3, r3
 8003d82:	2b01      	cmp	r3, #1
 8003d84:	f000 8094 	beq.w	8003eb0 <HAL_SYSTICK_Callback+0x1d8>
		sw3Block--;
 8003d88:	4a7b      	ldr	r2, [pc, #492]	; (8003f78 <HAL_SYSTICK_Callback+0x2a0>)
 8003d8a:	7993      	ldrb	r3, [r2, #6]
 8003d8c:	3b01      	subs	r3, #1
 8003d8e:	b2db      	uxtb	r3, r3
 8003d90:	7193      	strb	r3, [r2, #6]
	if (sw4Block > 0)
 8003d92:	4b79      	ldr	r3, [pc, #484]	; (8003f78 <HAL_SYSTICK_Callback+0x2a0>)
 8003d94:	79db      	ldrb	r3, [r3, #7]
 8003d96:	b153      	cbz	r3, 8003dae <HAL_SYSTICK_Callback+0xd6>
		if (sw4Block == 1)
 8003d98:	4b77      	ldr	r3, [pc, #476]	; (8003f78 <HAL_SYSTICK_Callback+0x2a0>)
 8003d9a:	79db      	ldrb	r3, [r3, #7]
 8003d9c:	b2db      	uxtb	r3, r3
 8003d9e:	2b01      	cmp	r3, #1
 8003da0:	f000 80b7 	beq.w	8003f12 <HAL_SYSTICK_Callback+0x23a>
		sw4Block--;
 8003da4:	4a74      	ldr	r2, [pc, #464]	; (8003f78 <HAL_SYSTICK_Callback+0x2a0>)
 8003da6:	79d3      	ldrb	r3, [r2, #7]
 8003da8:	3b01      	subs	r3, #1
 8003daa:	b2db      	uxtb	r3, r3
 8003dac:	71d3      	strb	r3, [r2, #7]
}
 8003dae:	b002      	add	sp, #8
 8003db0:	bd10      	pop	{r4, pc}
		HAL_GPIO_WritePin(GREEN_LED_GPIO_Port,GREEN_LED_Pin,GPIO_PIN_SET);
 8003db2:	2201      	movs	r2, #1
 8003db4:	2120      	movs	r1, #32
 8003db6:	4871      	ldr	r0, [pc, #452]	; (8003f7c <HAL_SYSTICK_Callback+0x2a4>)
 8003db8:	f7fd fdd5 	bl	8001966 <HAL_GPIO_WritePin>
 8003dbc:	e79c      	b.n	8003cf8 <HAL_SYSTICK_Callback+0x20>
		HAL_GPIO_WritePin(GREEN_LED_GPIO_Port,GREEN_LED_Pin,GPIO_PIN_RESET);
 8003dbe:	2200      	movs	r2, #0
 8003dc0:	2120      	movs	r1, #32
 8003dc2:	486e      	ldr	r0, [pc, #440]	; (8003f7c <HAL_SYSTICK_Callback+0x2a4>)
 8003dc4:	f7fd fdcf 	bl	8001966 <HAL_GPIO_WritePin>
		secCnt = 0;
 8003dc8:	4b6b      	ldr	r3, [pc, #428]	; (8003f78 <HAL_SYSTICK_Callback+0x2a0>)
 8003dca:	2200      	movs	r2, #0
 8003dcc:	f8a3 2054 	strh.w	r2, [r3, #84]	; 0x54
 8003dd0:	e799      	b.n	8003d06 <HAL_SYSTICK_Callback+0x2e>
			HAL_GPIO_WritePin(USR_LED5_GPIO_Port,USR_LED5_Pin,GPIO_PIN_RESET);
 8003dd2:	2200      	movs	r2, #0
 8003dd4:	2140      	movs	r1, #64	; 0x40
 8003dd6:	486a      	ldr	r0, [pc, #424]	; (8003f80 <HAL_SYSTICK_Callback+0x2a8>)
 8003dd8:	f7fd fdc5 	bl	8001966 <HAL_GPIO_WritePin>
 8003ddc:	e79c      	b.n	8003d18 <HAL_SYSTICK_Callback+0x40>
			HAL_GPIO_WritePin(USR_LED6_GPIO_Port,USR_LED6_Pin,GPIO_PIN_RESET);
 8003dde:	2200      	movs	r2, #0
 8003de0:	f44f 7180 	mov.w	r1, #256	; 0x100
 8003de4:	4866      	ldr	r0, [pc, #408]	; (8003f80 <HAL_SYSTICK_Callback+0x2a8>)
 8003de6:	f7fd fdbe 	bl	8001966 <HAL_GPIO_WritePin>
 8003dea:	e7a4      	b.n	8003d36 <HAL_SYSTICK_Callback+0x5e>
			if (HAL_GPIO_ReadPin(USR_SW1_GPIO_Port,USR_SW1_Pin))
 8003dec:	f44f 5180 	mov.w	r1, #4096	; 0x1000
 8003df0:	4864      	ldr	r0, [pc, #400]	; (8003f84 <HAL_SYSTICK_Callback+0x2ac>)
 8003df2:	f7fd fdb1 	bl	8001958 <HAL_GPIO_ReadPin>
 8003df6:	b980      	cbnz	r0, 8003e1a <HAL_SYSTICK_Callback+0x142>
				if ((operMode  & OPMODE_S1) != 0)
 8003df8:	4b5f      	ldr	r3, [pc, #380]	; (8003f78 <HAL_SYSTICK_Callback+0x2a0>)
 8003dfa:	7b1b      	ldrb	r3, [r3, #12]
 8003dfc:	f013 0f01 	tst.w	r3, #1
 8003e00:	d01b      	beq.n	8003e3a <HAL_SYSTICK_Callback+0x162>
					operMode &= ~OPMODE_S1;
 8003e02:	f023 0301 	bic.w	r3, r3, #1
 8003e06:	4a5c      	ldr	r2, [pc, #368]	; (8003f78 <HAL_SYSTICK_Callback+0x2a0>)
 8003e08:	7313      	strb	r3, [r2, #12]
					HAL_GPIO_WritePin(USR_LED1_GPIO_Port,USR_LED1_Pin,GPIO_PIN_RESET);
 8003e0a:	2200      	movs	r2, #0
 8003e0c:	2104      	movs	r1, #4
 8003e0e:	f100 4080 	add.w	r0, r0, #1073741824	; 0x40000000
 8003e12:	f500 3001 	add.w	r0, r0, #132096	; 0x20400
 8003e16:	f7fd fda6 	bl	8001966 <HAL_GPIO_WritePin>
			sprintf(message,"$M%2X\r\n",operMode);
 8003e1a:	4b57      	ldr	r3, [pc, #348]	; (8003f78 <HAL_SYSTICK_Callback+0x2a0>)
 8003e1c:	7b1a      	ldrb	r2, [r3, #12]
 8003e1e:	495a      	ldr	r1, [pc, #360]	; (8003f88 <HAL_SYSTICK_Callback+0x2b0>)
 8003e20:	4668      	mov	r0, sp
 8003e22:	f000 fc2d 	bl	8004680 <siprintf>
			PutsTxData((uint8_t *)message,strlen(message));
 8003e26:	4668      	mov	r0, sp
 8003e28:	f7fc f9f2 	bl	8000210 <strlen>
 8003e2c:	4601      	mov	r1, r0
 8003e2e:	4668      	mov	r0, sp
 8003e30:	f000 fbb8 	bl	80045a4 <PutsTxData>
			SendOperModeToCAN();
 8003e34:	f7ff ff2c 	bl	8003c90 <SendOperModeToCAN>
 8003e38:	e78b      	b.n	8003d52 <HAL_SYSTICK_Callback+0x7a>
					operMode |= OPMODE_S1;
 8003e3a:	f043 0301 	orr.w	r3, r3, #1
 8003e3e:	4a4e      	ldr	r2, [pc, #312]	; (8003f78 <HAL_SYSTICK_Callback+0x2a0>)
 8003e40:	7313      	strb	r3, [r2, #12]
					HAL_GPIO_WritePin(USR_LED1_GPIO_Port,USR_LED1_Pin,GPIO_PIN_SET);
 8003e42:	2201      	movs	r2, #1
 8003e44:	2104      	movs	r1, #4
 8003e46:	484f      	ldr	r0, [pc, #316]	; (8003f84 <HAL_SYSTICK_Callback+0x2ac>)
 8003e48:	f7fd fd8d 	bl	8001966 <HAL_GPIO_WritePin>
 8003e4c:	e7e5      	b.n	8003e1a <HAL_SYSTICK_Callback+0x142>
			if (HAL_GPIO_ReadPin(USR_SW2_GPIO_Port,USR_SW2_Pin))
 8003e4e:	f44f 4100 	mov.w	r1, #32768	; 0x8000
 8003e52:	484c      	ldr	r0, [pc, #304]	; (8003f84 <HAL_SYSTICK_Callback+0x2ac>)
 8003e54:	f7fd fd80 	bl	8001958 <HAL_GPIO_ReadPin>
 8003e58:	b980      	cbnz	r0, 8003e7c <HAL_SYSTICK_Callback+0x1a4>
				if ((operMode  & OPMODE_S2) != 0)
 8003e5a:	4b47      	ldr	r3, [pc, #284]	; (8003f78 <HAL_SYSTICK_Callback+0x2a0>)
 8003e5c:	7b1b      	ldrb	r3, [r3, #12]
 8003e5e:	f013 0f02 	tst.w	r3, #2
 8003e62:	d01b      	beq.n	8003e9c <HAL_SYSTICK_Callback+0x1c4>
					operMode &= ~OPMODE_S2;
 8003e64:	f023 0302 	bic.w	r3, r3, #2
 8003e68:	4a43      	ldr	r2, [pc, #268]	; (8003f78 <HAL_SYSTICK_Callback+0x2a0>)
 8003e6a:	7313      	strb	r3, [r2, #12]
					HAL_GPIO_WritePin(USR_LED2_GPIO_Port,USR_LED2_Pin,GPIO_PIN_RESET);
 8003e6c:	2200      	movs	r2, #0
 8003e6e:	2102      	movs	r1, #2
 8003e70:	f100 4080 	add.w	r0, r0, #1073741824	; 0x40000000
 8003e74:	f500 3001 	add.w	r0, r0, #132096	; 0x20400
 8003e78:	f7fd fd75 	bl	8001966 <HAL_GPIO_WritePin>
			sprintf(message,"$M%2X\r\n",operMode);
 8003e7c:	4b3e      	ldr	r3, [pc, #248]	; (8003f78 <HAL_SYSTICK_Callback+0x2a0>)
 8003e7e:	7b1a      	ldrb	r2, [r3, #12]
 8003e80:	4941      	ldr	r1, [pc, #260]	; (8003f88 <HAL_SYSTICK_Callback+0x2b0>)
 8003e82:	4668      	mov	r0, sp
 8003e84:	f000 fbfc 	bl	8004680 <siprintf>
			PutsTxData((uint8_t *)message,strlen(message));
 8003e88:	4668      	mov	r0, sp
 8003e8a:	f7fc f9c1 	bl	8000210 <strlen>
 8003e8e:	4601      	mov	r1, r0
 8003e90:	4668      	mov	r0, sp
 8003e92:	f000 fb87 	bl	80045a4 <PutsTxData>
			SendOperModeToCAN();
 8003e96:	f7ff fefb 	bl	8003c90 <SendOperModeToCAN>
 8003e9a:	e767      	b.n	8003d6c <HAL_SYSTICK_Callback+0x94>
					operMode |= OPMODE_S2;
 8003e9c:	f043 0302 	orr.w	r3, r3, #2
 8003ea0:	4a35      	ldr	r2, [pc, #212]	; (8003f78 <HAL_SYSTICK_Callback+0x2a0>)
 8003ea2:	7313      	strb	r3, [r2, #12]
					HAL_GPIO_WritePin(USR_LED2_GPIO_Port,USR_LED2_Pin,GPIO_PIN_SET);
 8003ea4:	2201      	movs	r2, #1
 8003ea6:	2102      	movs	r1, #2
 8003ea8:	4836      	ldr	r0, [pc, #216]	; (8003f84 <HAL_SYSTICK_Callback+0x2ac>)
 8003eaa:	f7fd fd5c 	bl	8001966 <HAL_GPIO_WritePin>
 8003eae:	e7e5      	b.n	8003e7c <HAL_SYSTICK_Callback+0x1a4>
			if (HAL_GPIO_ReadPin(USR_SW3_GPIO_Port,USR_SW3_Pin))
 8003eb0:	f44f 4180 	mov.w	r1, #16384	; 0x4000
 8003eb4:	4833      	ldr	r0, [pc, #204]	; (8003f84 <HAL_SYSTICK_Callback+0x2ac>)
 8003eb6:	f7fd fd4f 	bl	8001958 <HAL_GPIO_ReadPin>
 8003eba:	b980      	cbnz	r0, 8003ede <HAL_SYSTICK_Callback+0x206>
				if ((operMode  & OPMODE_S3) != 0)
 8003ebc:	4b2e      	ldr	r3, [pc, #184]	; (8003f78 <HAL_SYSTICK_Callback+0x2a0>)
 8003ebe:	7b1b      	ldrb	r3, [r3, #12]
 8003ec0:	f013 0f04 	tst.w	r3, #4
 8003ec4:	d01b      	beq.n	8003efe <HAL_SYSTICK_Callback+0x226>
					operMode &= ~OPMODE_S3;
 8003ec6:	f023 0304 	bic.w	r3, r3, #4
 8003eca:	4a2b      	ldr	r2, [pc, #172]	; (8003f78 <HAL_SYSTICK_Callback+0x2a0>)
 8003ecc:	7313      	strb	r3, [r2, #12]
					HAL_GPIO_WritePin(USR_LED3_GPIO_Port,USR_LED3_Pin,GPIO_PIN_RESET);
 8003ece:	2200      	movs	r2, #0
 8003ed0:	2180      	movs	r1, #128	; 0x80
 8003ed2:	f100 4080 	add.w	r0, r0, #1073741824	; 0x40000000
 8003ed6:	f500 3002 	add.w	r0, r0, #133120	; 0x20800
 8003eda:	f7fd fd44 	bl	8001966 <HAL_GPIO_WritePin>
			sprintf(message,"$M%2X\r\n",operMode);
 8003ede:	4b26      	ldr	r3, [pc, #152]	; (8003f78 <HAL_SYSTICK_Callback+0x2a0>)
 8003ee0:	7b1a      	ldrb	r2, [r3, #12]
 8003ee2:	4929      	ldr	r1, [pc, #164]	; (8003f88 <HAL_SYSTICK_Callback+0x2b0>)
 8003ee4:	4668      	mov	r0, sp
 8003ee6:	f000 fbcb 	bl	8004680 <siprintf>
			PutsTxData((uint8_t *)message,strlen(message));
 8003eea:	4668      	mov	r0, sp
 8003eec:	f7fc f990 	bl	8000210 <strlen>
 8003ef0:	4601      	mov	r1, r0
 8003ef2:	4668      	mov	r0, sp
 8003ef4:	f000 fb56 	bl	80045a4 <PutsTxData>
			SendOperModeToCAN();
 8003ef8:	f7ff feca 	bl	8003c90 <SendOperModeToCAN>
 8003efc:	e744      	b.n	8003d88 <HAL_SYSTICK_Callback+0xb0>
					operMode |= OPMODE_S3;
 8003efe:	f043 0304 	orr.w	r3, r3, #4
 8003f02:	4a1d      	ldr	r2, [pc, #116]	; (8003f78 <HAL_SYSTICK_Callback+0x2a0>)
 8003f04:	7313      	strb	r3, [r2, #12]
					HAL_GPIO_WritePin(USR_LED3_GPIO_Port,USR_LED3_Pin,GPIO_PIN_SET);
 8003f06:	2201      	movs	r2, #1
 8003f08:	2180      	movs	r1, #128	; 0x80
 8003f0a:	481d      	ldr	r0, [pc, #116]	; (8003f80 <HAL_SYSTICK_Callback+0x2a8>)
 8003f0c:	f7fd fd2b 	bl	8001966 <HAL_GPIO_WritePin>
 8003f10:	e7e5      	b.n	8003ede <HAL_SYSTICK_Callback+0x206>
			if (HAL_GPIO_ReadPin(USR_SW4_GPIO_Port,USR_SW4_Pin))
 8003f12:	f44f 5100 	mov.w	r1, #8192	; 0x2000
 8003f16:	481b      	ldr	r0, [pc, #108]	; (8003f84 <HAL_SYSTICK_Callback+0x2ac>)
 8003f18:	f7fd fd1e 	bl	8001958 <HAL_GPIO_ReadPin>
 8003f1c:	2800      	cmp	r0, #0
 8003f1e:	f47f af41 	bne.w	8003da4 <HAL_SYSTICK_Callback+0xcc>
				if ((operMode  & OPMODE_REMOTE) != 0)
 8003f22:	4b15      	ldr	r3, [pc, #84]	; (8003f78 <HAL_SYSTICK_Callback+0x2a0>)
 8003f24:	7b1b      	ldrb	r3, [r3, #12]
 8003f26:	f013 0f08 	tst.w	r3, #8
 8003f2a:	d031      	beq.n	8003f90 <HAL_SYSTICK_Callback+0x2b8>
					operMode &= ~OPMODE_REMOTE;
 8003f2c:	f023 0308 	bic.w	r3, r3, #8
 8003f30:	4a11      	ldr	r2, [pc, #68]	; (8003f78 <HAL_SYSTICK_Callback+0x2a0>)
 8003f32:	7313      	strb	r3, [r2, #12]
					HAL_GPIO_WritePin(USR_LED4_GPIO_Port,USR_LED4_Pin,GPIO_PIN_RESET);
 8003f34:	2200      	movs	r2, #0
 8003f36:	f44f 7100 	mov.w	r1, #512	; 0x200
 8003f3a:	f100 4080 	add.w	r0, r0, #1073741824	; 0x40000000
 8003f3e:	f500 3002 	add.w	r0, r0, #133120	; 0x20800
 8003f42:	f7fd fd10 	bl	8001966 <HAL_GPIO_WritePin>
					Operate3colorLED(GREEN_LED, pot1Val);
 8003f46:	4c11      	ldr	r4, [pc, #68]	; (8003f8c <HAL_SYSTICK_Callback+0x2b4>)
 8003f48:	8821      	ldrh	r1, [r4, #0]
 8003f4a:	2001      	movs	r0, #1
 8003f4c:	f7ff fa80 	bl	8003450 <Operate3colorLED>
					Operate3colorLED(RED_LED, pot2Val);
 8003f50:	8861      	ldrh	r1, [r4, #2]
 8003f52:	2002      	movs	r0, #2
 8003f54:	f7ff fa7c 	bl	8003450 <Operate3colorLED>
				sprintf(message,"$M%2X\r\n",operMode);
 8003f58:	4b07      	ldr	r3, [pc, #28]	; (8003f78 <HAL_SYSTICK_Callback+0x2a0>)
 8003f5a:	7b1a      	ldrb	r2, [r3, #12]
 8003f5c:	490a      	ldr	r1, [pc, #40]	; (8003f88 <HAL_SYSTICK_Callback+0x2b0>)
 8003f5e:	4668      	mov	r0, sp
 8003f60:	f000 fb8e 	bl	8004680 <siprintf>
				PutsTxData((uint8_t *)message,strlen(message));
 8003f64:	4668      	mov	r0, sp
 8003f66:	f7fc f953 	bl	8000210 <strlen>
 8003f6a:	4601      	mov	r1, r0
 8003f6c:	4668      	mov	r0, sp
 8003f6e:	f000 fb19 	bl	80045a4 <PutsTxData>
				SendOperModeToCAN();
 8003f72:	f7ff fe8d 	bl	8003c90 <SendOperModeToCAN>
 8003f76:	e715      	b.n	8003da4 <HAL_SYSTICK_Callback+0xcc>
 8003f78:	200000b4 	.word	0x200000b4
 8003f7c:	40020000 	.word	0x40020000
 8003f80:	40020800 	.word	0x40020800
 8003f84:	40020400 	.word	0x40020400
 8003f88:	080058f0 	.word	0x080058f0
 8003f8c:	20000008 	.word	0x20000008
					operMode |= OPMODE_REMOTE;
 8003f90:	f043 0308 	orr.w	r3, r3, #8
 8003f94:	4a08      	ldr	r2, [pc, #32]	; (8003fb8 <HAL_SYSTICK_Callback+0x2e0>)
 8003f96:	7313      	strb	r3, [r2, #12]
					HAL_GPIO_WritePin(USR_LED4_GPIO_Port,USR_LED4_Pin,GPIO_PIN_SET);
 8003f98:	2201      	movs	r2, #1
 8003f9a:	f44f 7100 	mov.w	r1, #512	; 0x200
 8003f9e:	4807      	ldr	r0, [pc, #28]	; (8003fbc <HAL_SYSTICK_Callback+0x2e4>)
 8003fa0:	f7fd fce1 	bl	8001966 <HAL_GPIO_WritePin>
					Operate3colorLED(GREEN_LED, rem1Val);
 8003fa4:	4c06      	ldr	r4, [pc, #24]	; (8003fc0 <HAL_SYSTICK_Callback+0x2e8>)
 8003fa6:	88a1      	ldrh	r1, [r4, #4]
 8003fa8:	2001      	movs	r0, #1
 8003faa:	f7ff fa51 	bl	8003450 <Operate3colorLED>
					Operate3colorLED(RED_LED, rem2Val);
 8003fae:	88e1      	ldrh	r1, [r4, #6]
 8003fb0:	2002      	movs	r0, #2
 8003fb2:	f7ff fa4d 	bl	8003450 <Operate3colorLED>
 8003fb6:	e7cf      	b.n	8003f58 <HAL_SYSTICK_Callback+0x280>
 8003fb8:	200000b4 	.word	0x200000b4
 8003fbc:	40020800 	.word	0x40020800
 8003fc0:	20000008 	.word	0x20000008

08003fc4 <HAL_MspInit>:
void HAL_TIM_MspPostInit(TIM_HandleTypeDef *htim);
                    /**
  * Initializes the Global MSP.
  */
void HAL_MspInit(void)
{
 8003fc4:	b082      	sub	sp, #8
  /* USER CODE BEGIN MspInit 0 */

  /* USER CODE END MspInit 0 */

  __HAL_RCC_SYSCFG_CLK_ENABLE();
 8003fc6:	2100      	movs	r1, #0
 8003fc8:	9100      	str	r1, [sp, #0]
 8003fca:	4b0b      	ldr	r3, [pc, #44]	; (8003ff8 <HAL_MspInit+0x34>)
 8003fcc:	6c5a      	ldr	r2, [r3, #68]	; 0x44
 8003fce:	f442 4280 	orr.w	r2, r2, #16384	; 0x4000
 8003fd2:	645a      	str	r2, [r3, #68]	; 0x44
 8003fd4:	6c5a      	ldr	r2, [r3, #68]	; 0x44
 8003fd6:	f402 4280 	and.w	r2, r2, #16384	; 0x4000
 8003fda:	9200      	str	r2, [sp, #0]
 8003fdc:	9a00      	ldr	r2, [sp, #0]
  __HAL_RCC_PWR_CLK_ENABLE();
 8003fde:	9101      	str	r1, [sp, #4]
 8003fe0:	6c1a      	ldr	r2, [r3, #64]	; 0x40
 8003fe2:	f042 5280 	orr.w	r2, r2, #268435456	; 0x10000000
 8003fe6:	641a      	str	r2, [r3, #64]	; 0x40
 8003fe8:	6c1b      	ldr	r3, [r3, #64]	; 0x40
 8003fea:	f003 5380 	and.w	r3, r3, #268435456	; 0x10000000
 8003fee:	9301      	str	r3, [sp, #4]
 8003ff0:	9b01      	ldr	r3, [sp, #4]
  /* System interrupt init*/

  /* USER CODE BEGIN MspInit 1 */

  /* USER CODE END MspInit 1 */
}
 8003ff2:	b002      	add	sp, #8
 8003ff4:	4770      	bx	lr
 8003ff6:	bf00      	nop
 8003ff8:	40023800 	.word	0x40023800

08003ffc <HAL_ADC_MspInit>:
* This function configures the hardware resources used in this example
* @param hadc: ADC handle pointer
* @retval None
*/
void HAL_ADC_MspInit(ADC_HandleTypeDef* hadc)
{
 8003ffc:	b530      	push	{r4, r5, lr}
 8003ffe:	b089      	sub	sp, #36	; 0x24
  GPIO_InitTypeDef GPIO_InitStruct = {0};
 8004000:	2300      	movs	r3, #0
 8004002:	9303      	str	r3, [sp, #12]
 8004004:	9304      	str	r3, [sp, #16]
 8004006:	9305      	str	r3, [sp, #20]
 8004008:	9306      	str	r3, [sp, #24]
 800400a:	9307      	str	r3, [sp, #28]
  if(hadc->Instance==ADC1)
 800400c:	6802      	ldr	r2, [r0, #0]
 800400e:	f103 4380 	add.w	r3, r3, #1073741824	; 0x40000000
 8004012:	f503 3390 	add.w	r3, r3, #73728	; 0x12000
 8004016:	429a      	cmp	r2, r3
 8004018:	d001      	beq.n	800401e <HAL_ADC_MspInit+0x22>
  /* USER CODE BEGIN ADC1_MspInit 1 */

  /* USER CODE END ADC1_MspInit 1 */
  }

}
 800401a:	b009      	add	sp, #36	; 0x24
 800401c:	bd30      	pop	{r4, r5, pc}
    __HAL_RCC_ADC1_CLK_ENABLE();
 800401e:	2400      	movs	r4, #0
 8004020:	9401      	str	r4, [sp, #4]
 8004022:	f503 338c 	add.w	r3, r3, #71680	; 0x11800
 8004026:	6c5a      	ldr	r2, [r3, #68]	; 0x44
 8004028:	f442 7280 	orr.w	r2, r2, #256	; 0x100
 800402c:	645a      	str	r2, [r3, #68]	; 0x44
 800402e:	6c5a      	ldr	r2, [r3, #68]	; 0x44
 8004030:	f402 7280 	and.w	r2, r2, #256	; 0x100
 8004034:	9201      	str	r2, [sp, #4]
 8004036:	9a01      	ldr	r2, [sp, #4]
    __HAL_RCC_GPIOC_CLK_ENABLE();
 8004038:	9402      	str	r4, [sp, #8]
 800403a:	6b1a      	ldr	r2, [r3, #48]	; 0x30
 800403c:	f042 0204 	orr.w	r2, r2, #4
 8004040:	631a      	str	r2, [r3, #48]	; 0x30
 8004042:	6b1b      	ldr	r3, [r3, #48]	; 0x30
 8004044:	f003 0304 	and.w	r3, r3, #4
 8004048:	9302      	str	r3, [sp, #8]
 800404a:	9b02      	ldr	r3, [sp, #8]
    GPIO_InitStruct.Pin = VPOT1_ADC1_14_Pin|VPOT2_ADC1_15_Pin;
 800404c:	2330      	movs	r3, #48	; 0x30
 800404e:	9303      	str	r3, [sp, #12]
    GPIO_InitStruct.Mode = GPIO_MODE_ANALOG;
 8004050:	2503      	movs	r5, #3
 8004052:	9504      	str	r5, [sp, #16]
    GPIO_InitStruct.Pull = GPIO_NOPULL;
 8004054:	9405      	str	r4, [sp, #20]
    HAL_GPIO_Init(GPIOC, &GPIO_InitStruct);
 8004056:	a903      	add	r1, sp, #12
 8004058:	4805      	ldr	r0, [pc, #20]	; (8004070 <HAL_ADC_MspInit+0x74>)
 800405a:	f7fd fb99 	bl	8001790 <HAL_GPIO_Init>
    HAL_NVIC_SetPriority(ADC_IRQn, 3, 0);
 800405e:	4622      	mov	r2, r4
 8004060:	4629      	mov	r1, r5
 8004062:	2012      	movs	r0, #18
 8004064:	f7fd fada 	bl	800161c <HAL_NVIC_SetPriority>
    HAL_NVIC_EnableIRQ(ADC_IRQn);
 8004068:	2012      	movs	r0, #18
 800406a:	f7fd fb0b 	bl	8001684 <HAL_NVIC_EnableIRQ>
}
 800406e:	e7d4      	b.n	800401a <HAL_ADC_MspInit+0x1e>
 8004070:	40020800 	.word	0x40020800

08004074 <HAL_CAN_MspInit>:
* This function configures the hardware resources used in this example
* @param hcan: CAN handle pointer
* @retval None
*/
void HAL_CAN_MspInit(CAN_HandleTypeDef* hcan)
{
 8004074:	b530      	push	{r4, r5, lr}
 8004076:	b089      	sub	sp, #36	; 0x24
  GPIO_InitTypeDef GPIO_InitStruct = {0};
 8004078:	2300      	movs	r3, #0
 800407a:	9303      	str	r3, [sp, #12]
 800407c:	9304      	str	r3, [sp, #16]
 800407e:	9305      	str	r3, [sp, #20]
 8004080:	9306      	str	r3, [sp, #24]
 8004082:	9307      	str	r3, [sp, #28]
  if(hcan->Instance==CAN1)
 8004084:	6802      	ldr	r2, [r0, #0]
 8004086:	4b19      	ldr	r3, [pc, #100]	; (80040ec <HAL_CAN_MspInit+0x78>)
 8004088:	429a      	cmp	r2, r3
 800408a:	d001      	beq.n	8004090 <HAL_CAN_MspInit+0x1c>
  /* USER CODE BEGIN CAN1_MspInit 1 */

  /* USER CODE END CAN1_MspInit 1 */
  }

}
 800408c:	b009      	add	sp, #36	; 0x24
 800408e:	bd30      	pop	{r4, r5, pc}
    __HAL_RCC_CAN1_CLK_ENABLE();
 8004090:	2400      	movs	r4, #0
 8004092:	9401      	str	r4, [sp, #4]
 8004094:	f503 33ea 	add.w	r3, r3, #119808	; 0x1d400
 8004098:	6c1a      	ldr	r2, [r3, #64]	; 0x40
 800409a:	f042 7200 	orr.w	r2, r2, #33554432	; 0x2000000
 800409e:	641a      	str	r2, [r3, #64]	; 0x40
 80040a0:	6c1a      	ldr	r2, [r3, #64]	; 0x40
 80040a2:	f002 7200 	and.w	r2, r2, #33554432	; 0x2000000
 80040a6:	9201      	str	r2, [sp, #4]
 80040a8:	9a01      	ldr	r2, [sp, #4]
    __HAL_RCC_GPIOB_CLK_ENABLE();
 80040aa:	9402      	str	r4, [sp, #8]
 80040ac:	6b1a      	ldr	r2, [r3, #48]	; 0x30
 80040ae:	f042 0202 	orr.w	r2, r2, #2
 80040b2:	631a      	str	r2, [r3, #48]	; 0x30
 80040b4:	6b1b      	ldr	r3, [r3, #48]	; 0x30
 80040b6:	f003 0302 	and.w	r3, r3, #2
 80040ba:	9302      	str	r3, [sp, #8]
 80040bc:	9b02      	ldr	r3, [sp, #8]
    GPIO_InitStruct.Pin = GPIO_PIN_8|GPIO_PIN_9;
 80040be:	f44f 7340 	mov.w	r3, #768	; 0x300
 80040c2:	9303      	str	r3, [sp, #12]
    GPIO_InitStruct.Mode = GPIO_MODE_AF_PP;
 80040c4:	2502      	movs	r5, #2
 80040c6:	9504      	str	r5, [sp, #16]
    GPIO_InitStruct.Pull = GPIO_NOPULL;
 80040c8:	9405      	str	r4, [sp, #20]
    GPIO_InitStruct.Speed = GPIO_SPEED_FREQ_VERY_HIGH;
 80040ca:	2303      	movs	r3, #3
 80040cc:	9306      	str	r3, [sp, #24]
    GPIO_InitStruct.Alternate = GPIO_AF9_CAN1;
 80040ce:	2309      	movs	r3, #9
 80040d0:	9307      	str	r3, [sp, #28]
    HAL_GPIO_Init(GPIOB, &GPIO_InitStruct);
 80040d2:	a903      	add	r1, sp, #12
 80040d4:	4806      	ldr	r0, [pc, #24]	; (80040f0 <HAL_CAN_MspInit+0x7c>)
 80040d6:	f7fd fb5b 	bl	8001790 <HAL_GPIO_Init>
    HAL_NVIC_SetPriority(CAN1_RX0_IRQn, 2, 0);
 80040da:	4622      	mov	r2, r4
 80040dc:	4629      	mov	r1, r5
 80040de:	2014      	movs	r0, #20
 80040e0:	f7fd fa9c 	bl	800161c <HAL_NVIC_SetPriority>
    HAL_NVIC_EnableIRQ(CAN1_RX0_IRQn);
 80040e4:	2014      	movs	r0, #20
 80040e6:	f7fd facd 	bl	8001684 <HAL_NVIC_EnableIRQ>
}
 80040ea:	e7cf      	b.n	800408c <HAL_CAN_MspInit+0x18>
 80040ec:	40006400 	.word	0x40006400
 80040f0:	40020400 	.word	0x40020400

080040f4 <HAL_TIM_Base_MspInit>:
* This function configures the hardware resources used in this example
* @param htim_base: TIM_Base handle pointer
* @retval None
*/
void HAL_TIM_Base_MspInit(TIM_HandleTypeDef* htim_base)
{
 80040f4:	b500      	push	{lr}
 80040f6:	b083      	sub	sp, #12
  if(htim_base->Instance==TIM1)
 80040f8:	6803      	ldr	r3, [r0, #0]
 80040fa:	4a15      	ldr	r2, [pc, #84]	; (8004150 <HAL_TIM_Base_MspInit+0x5c>)
 80040fc:	4293      	cmp	r3, r2
 80040fe:	d005      	beq.n	800410c <HAL_TIM_Base_MspInit+0x18>
    HAL_NVIC_EnableIRQ(TIM1_UP_TIM10_IRQn);
  /* USER CODE BEGIN TIM1_MspInit 1 */

  /* USER CODE END TIM1_MspInit 1 */
  }
  else if(htim_base->Instance==TIM3)
 8004100:	4a14      	ldr	r2, [pc, #80]	; (8004154 <HAL_TIM_Base_MspInit+0x60>)
 8004102:	4293      	cmp	r3, r2
 8004104:	d016      	beq.n	8004134 <HAL_TIM_Base_MspInit+0x40>
  /* USER CODE BEGIN TIM3_MspInit 1 */

  /* USER CODE END TIM3_MspInit 1 */
  }

}
 8004106:	b003      	add	sp, #12
 8004108:	f85d fb04 	ldr.w	pc, [sp], #4
    __HAL_RCC_TIM1_CLK_ENABLE();
 800410c:	2200      	movs	r2, #0
 800410e:	9200      	str	r2, [sp, #0]
 8004110:	4b11      	ldr	r3, [pc, #68]	; (8004158 <HAL_TIM_Base_MspInit+0x64>)
 8004112:	6c59      	ldr	r1, [r3, #68]	; 0x44
 8004114:	f041 0101 	orr.w	r1, r1, #1
 8004118:	6459      	str	r1, [r3, #68]	; 0x44
 800411a:	6c5b      	ldr	r3, [r3, #68]	; 0x44
 800411c:	f003 0301 	and.w	r3, r3, #1
 8004120:	9300      	str	r3, [sp, #0]
 8004122:	9b00      	ldr	r3, [sp, #0]
    HAL_NVIC_SetPriority(TIM1_UP_TIM10_IRQn, 1, 0);
 8004124:	2101      	movs	r1, #1
 8004126:	2019      	movs	r0, #25
 8004128:	f7fd fa78 	bl	800161c <HAL_NVIC_SetPriority>
    HAL_NVIC_EnableIRQ(TIM1_UP_TIM10_IRQn);
 800412c:	2019      	movs	r0, #25
 800412e:	f7fd faa9 	bl	8001684 <HAL_NVIC_EnableIRQ>
 8004132:	e7e8      	b.n	8004106 <HAL_TIM_Base_MspInit+0x12>
    __HAL_RCC_TIM3_CLK_ENABLE();
 8004134:	2300      	movs	r3, #0
 8004136:	9301      	str	r3, [sp, #4]
 8004138:	4b07      	ldr	r3, [pc, #28]	; (8004158 <HAL_TIM_Base_MspInit+0x64>)
 800413a:	6c1a      	ldr	r2, [r3, #64]	; 0x40
 800413c:	f042 0202 	orr.w	r2, r2, #2
 8004140:	641a      	str	r2, [r3, #64]	; 0x40
 8004142:	6c1b      	ldr	r3, [r3, #64]	; 0x40
 8004144:	f003 0302 	and.w	r3, r3, #2
 8004148:	9301      	str	r3, [sp, #4]
 800414a:	9b01      	ldr	r3, [sp, #4]
}
 800414c:	e7db      	b.n	8004106 <HAL_TIM_Base_MspInit+0x12>
 800414e:	bf00      	nop
 8004150:	40010000 	.word	0x40010000
 8004154:	40000400 	.word	0x40000400
 8004158:	40023800 	.word	0x40023800

0800415c <HAL_TIM_MspPostInit>:

void HAL_TIM_MspPostInit(TIM_HandleTypeDef* htim)
{
 800415c:	b500      	push	{lr}
 800415e:	b087      	sub	sp, #28
  GPIO_InitTypeDef GPIO_InitStruct = {0};
 8004160:	2300      	movs	r3, #0
 8004162:	9301      	str	r3, [sp, #4]
 8004164:	9302      	str	r3, [sp, #8]
 8004166:	9303      	str	r3, [sp, #12]
 8004168:	9304      	str	r3, [sp, #16]
 800416a:	9305      	str	r3, [sp, #20]
  if(htim->Instance==TIM3)
 800416c:	6802      	ldr	r2, [r0, #0]
 800416e:	4b0f      	ldr	r3, [pc, #60]	; (80041ac <HAL_TIM_MspPostInit+0x50>)
 8004170:	429a      	cmp	r2, r3
 8004172:	d002      	beq.n	800417a <HAL_TIM_MspPostInit+0x1e>
  /* USER CODE BEGIN TIM3_MspPostInit 1 */

  /* USER CODE END TIM3_MspPostInit 1 */
  }

}
 8004174:	b007      	add	sp, #28
 8004176:	f85d fb04 	ldr.w	pc, [sp], #4
    __HAL_RCC_GPIOB_CLK_ENABLE();
 800417a:	2300      	movs	r3, #0
 800417c:	9300      	str	r3, [sp, #0]
 800417e:	4a0c      	ldr	r2, [pc, #48]	; (80041b0 <HAL_TIM_MspPostInit+0x54>)
 8004180:	6b11      	ldr	r1, [r2, #48]	; 0x30
 8004182:	f041 0102 	orr.w	r1, r1, #2
 8004186:	6311      	str	r1, [r2, #48]	; 0x30
 8004188:	6b12      	ldr	r2, [r2, #48]	; 0x30
 800418a:	f002 0202 	and.w	r2, r2, #2
 800418e:	9200      	str	r2, [sp, #0]
 8004190:	9a00      	ldr	r2, [sp, #0]
    GPIO_InitStruct.Pin = RED_3CLED_TIM3_1_Pin|GREEN_3CLED_TIM3_2_Pin;
 8004192:	2230      	movs	r2, #48	; 0x30
 8004194:	9201      	str	r2, [sp, #4]
    GPIO_InitStruct.Mode = GPIO_MODE_AF_PP;
 8004196:	2202      	movs	r2, #2
 8004198:	9202      	str	r2, [sp, #8]
    GPIO_InitStruct.Pull = GPIO_NOPULL;
 800419a:	9303      	str	r3, [sp, #12]
    GPIO_InitStruct.Speed = GPIO_SPEED_FREQ_LOW;
 800419c:	9304      	str	r3, [sp, #16]
    GPIO_InitStruct.Alternate = GPIO_AF2_TIM3;
 800419e:	9205      	str	r2, [sp, #20]
    HAL_GPIO_Init(GPIOB, &GPIO_InitStruct);
 80041a0:	a901      	add	r1, sp, #4
 80041a2:	4804      	ldr	r0, [pc, #16]	; (80041b4 <HAL_TIM_MspPostInit+0x58>)
 80041a4:	f7fd faf4 	bl	8001790 <HAL_GPIO_Init>
}
 80041a8:	e7e4      	b.n	8004174 <HAL_TIM_MspPostInit+0x18>
 80041aa:	bf00      	nop
 80041ac:	40000400 	.word	0x40000400
 80041b0:	40023800 	.word	0x40023800
 80041b4:	40020400 	.word	0x40020400

080041b8 <HAL_UART_MspInit>:
* This function configures the hardware resources used in this example
* @param huart: UART handle pointer
* @retval None
*/
void HAL_UART_MspInit(UART_HandleTypeDef* huart)
{
 80041b8:	b510      	push	{r4, lr}
 80041ba:	b08a      	sub	sp, #40	; 0x28
  GPIO_InitTypeDef GPIO_InitStruct = {0};
 80041bc:	2300      	movs	r3, #0
 80041be:	9305      	str	r3, [sp, #20]
 80041c0:	9306      	str	r3, [sp, #24]
 80041c2:	9307      	str	r3, [sp, #28]
 80041c4:	9308      	str	r3, [sp, #32]
 80041c6:	9309      	str	r3, [sp, #36]	; 0x24
  if(huart->Instance==USART2)
 80041c8:	6803      	ldr	r3, [r0, #0]
 80041ca:	4a30      	ldr	r2, [pc, #192]	; (800428c <HAL_UART_MspInit+0xd4>)
 80041cc:	4293      	cmp	r3, r2
 80041ce:	d004      	beq.n	80041da <HAL_UART_MspInit+0x22>
    HAL_NVIC_EnableIRQ(USART2_IRQn);
  /* USER CODE BEGIN USART2_MspInit 1 */

  /* USER CODE END USART2_MspInit 1 */
  }
  else if(huart->Instance==USART3)
 80041d0:	4a2f      	ldr	r2, [pc, #188]	; (8004290 <HAL_UART_MspInit+0xd8>)
 80041d2:	4293      	cmp	r3, r2
 80041d4:	d02d      	beq.n	8004232 <HAL_UART_MspInit+0x7a>
  /* USER CODE BEGIN USART3_MspInit 1 */

  /* USER CODE END USART3_MspInit 1 */
  }

}
 80041d6:	b00a      	add	sp, #40	; 0x28
 80041d8:	bd10      	pop	{r4, pc}
    __HAL_RCC_USART2_CLK_ENABLE();
 80041da:	2400      	movs	r4, #0
 80041dc:	9401      	str	r4, [sp, #4]
 80041de:	4b2d      	ldr	r3, [pc, #180]	; (8004294 <HAL_UART_MspInit+0xdc>)
 80041e0:	6c1a      	ldr	r2, [r3, #64]	; 0x40
 80041e2:	f442 3200 	orr.w	r2, r2, #131072	; 0x20000
 80041e6:	641a      	str	r2, [r3, #64]	; 0x40
 80041e8:	6c1a      	ldr	r2, [r3, #64]	; 0x40
 80041ea:	f402 3200 	and.w	r2, r2, #131072	; 0x20000
 80041ee:	9201      	str	r2, [sp, #4]
 80041f0:	9a01      	ldr	r2, [sp, #4]
    __HAL_RCC_GPIOA_CLK_ENABLE();
 80041f2:	9402      	str	r4, [sp, #8]
 80041f4:	6b1a      	ldr	r2, [r3, #48]	; 0x30
 80041f6:	f042 0201 	orr.w	r2, r2, #1
 80041fa:	631a      	str	r2, [r3, #48]	; 0x30
 80041fc:	6b1b      	ldr	r3, [r3, #48]	; 0x30
 80041fe:	f003 0301 	and.w	r3, r3, #1
 8004202:	9302      	str	r3, [sp, #8]
 8004204:	9b02      	ldr	r3, [sp, #8]
    GPIO_InitStruct.Pin = VCP_TX_Pin|VCP_RX_Pin;
 8004206:	230c      	movs	r3, #12
 8004208:	9305      	str	r3, [sp, #20]
    GPIO_InitStruct.Mode = GPIO_MODE_AF_PP;
 800420a:	2302      	movs	r3, #2
 800420c:	9306      	str	r3, [sp, #24]
    GPIO_InitStruct.Pull = GPIO_NOPULL;
 800420e:	9407      	str	r4, [sp, #28]
    GPIO_InitStruct.Speed = GPIO_SPEED_FREQ_VERY_HIGH;
 8004210:	2303      	movs	r3, #3
 8004212:	9308      	str	r3, [sp, #32]
    GPIO_InitStruct.Alternate = GPIO_AF7_USART2;
 8004214:	2307      	movs	r3, #7
 8004216:	9309      	str	r3, [sp, #36]	; 0x24
    HAL_GPIO_Init(GPIOA, &GPIO_InitStruct);
 8004218:	a905      	add	r1, sp, #20
 800421a:	481f      	ldr	r0, [pc, #124]	; (8004298 <HAL_UART_MspInit+0xe0>)
 800421c:	f7fd fab8 	bl	8001790 <HAL_GPIO_Init>
    HAL_NVIC_SetPriority(USART2_IRQn, 4, 0);
 8004220:	4622      	mov	r2, r4
 8004222:	2104      	movs	r1, #4
 8004224:	2026      	movs	r0, #38	; 0x26
 8004226:	f7fd f9f9 	bl	800161c <HAL_NVIC_SetPriority>
    HAL_NVIC_EnableIRQ(USART2_IRQn);
 800422a:	2026      	movs	r0, #38	; 0x26
 800422c:	f7fd fa2a 	bl	8001684 <HAL_NVIC_EnableIRQ>
 8004230:	e7d1      	b.n	80041d6 <HAL_UART_MspInit+0x1e>
    __HAL_RCC_USART3_CLK_ENABLE();
 8004232:	2400      	movs	r4, #0
 8004234:	9403      	str	r4, [sp, #12]
 8004236:	4b17      	ldr	r3, [pc, #92]	; (8004294 <HAL_UART_MspInit+0xdc>)
 8004238:	6c1a      	ldr	r2, [r3, #64]	; 0x40
 800423a:	f442 2280 	orr.w	r2, r2, #262144	; 0x40000
 800423e:	641a      	str	r2, [r3, #64]	; 0x40
 8004240:	6c1a      	ldr	r2, [r3, #64]	; 0x40
 8004242:	f402 2280 	and.w	r2, r2, #262144	; 0x40000
 8004246:	9203      	str	r2, [sp, #12]
 8004248:	9a03      	ldr	r2, [sp, #12]
    __HAL_RCC_GPIOC_CLK_ENABLE();
 800424a:	9404      	str	r4, [sp, #16]
 800424c:	6b1a      	ldr	r2, [r3, #48]	; 0x30
 800424e:	f042 0204 	orr.w	r2, r2, #4
 8004252:	631a      	str	r2, [r3, #48]	; 0x30
 8004254:	6b1b      	ldr	r3, [r3, #48]	; 0x30
 8004256:	f003 0304 	and.w	r3, r3, #4
 800425a:	9304      	str	r3, [sp, #16]
 800425c:	9b04      	ldr	r3, [sp, #16]
    GPIO_InitStruct.Pin = GPIO_PIN_10|GPIO_PIN_11;
 800425e:	f44f 6340 	mov.w	r3, #3072	; 0xc00
 8004262:	9305      	str	r3, [sp, #20]
    GPIO_InitStruct.Mode = GPIO_MODE_AF_PP;
 8004264:	2302      	movs	r3, #2
 8004266:	9306      	str	r3, [sp, #24]
    GPIO_InitStruct.Pull = GPIO_NOPULL;
 8004268:	9407      	str	r4, [sp, #28]
    GPIO_InitStruct.Speed = GPIO_SPEED_FREQ_VERY_HIGH;
 800426a:	2303      	movs	r3, #3
 800426c:	9308      	str	r3, [sp, #32]
    GPIO_InitStruct.Alternate = GPIO_AF7_USART3;
 800426e:	2307      	movs	r3, #7
 8004270:	9309      	str	r3, [sp, #36]	; 0x24
    HAL_GPIO_Init(GPIOC, &GPIO_InitStruct);
 8004272:	a905      	add	r1, sp, #20
 8004274:	4809      	ldr	r0, [pc, #36]	; (800429c <HAL_UART_MspInit+0xe4>)
 8004276:	f7fd fa8b 	bl	8001790 <HAL_GPIO_Init>
    HAL_NVIC_SetPriority(USART3_IRQn, 5, 0);
 800427a:	4622      	mov	r2, r4
 800427c:	2105      	movs	r1, #5
 800427e:	2027      	movs	r0, #39	; 0x27
 8004280:	f7fd f9cc 	bl	800161c <HAL_NVIC_SetPriority>
    HAL_NVIC_EnableIRQ(USART3_IRQn);
 8004284:	2027      	movs	r0, #39	; 0x27
 8004286:	f7fd f9fd 	bl	8001684 <HAL_NVIC_EnableIRQ>
}
 800428a:	e7a4      	b.n	80041d6 <HAL_UART_MspInit+0x1e>
 800428c:	40004400 	.word	0x40004400
 8004290:	40004800 	.word	0x40004800
 8004294:	40023800 	.word	0x40023800
 8004298:	40020000 	.word	0x40020000
 800429c:	40020800 	.word	0x40020800

080042a0 <NMI_Handler>:

  /* USER CODE END NonMaskableInt_IRQn 0 */
  /* USER CODE BEGIN NonMaskableInt_IRQn 1 */

  /* USER CODE END NonMaskableInt_IRQn 1 */
}
 80042a0:	4770      	bx	lr

080042a2 <HardFault_Handler>:
void HardFault_Handler(void)
{
  /* USER CODE BEGIN HardFault_IRQn 0 */

  /* USER CODE END HardFault_IRQn 0 */
  while (1)
 80042a2:	e7fe      	b.n	80042a2 <HardFault_Handler>

080042a4 <MemManage_Handler>:
void MemManage_Handler(void)
{
  /* USER CODE BEGIN MemoryManagement_IRQn 0 */

  /* USER CODE END MemoryManagement_IRQn 0 */
  while (1)
 80042a4:	e7fe      	b.n	80042a4 <MemManage_Handler>

080042a6 <BusFault_Handler>:
void BusFault_Handler(void)
{
  /* USER CODE BEGIN BusFault_IRQn 0 */

  /* USER CODE END BusFault_IRQn 0 */
  while (1)
 80042a6:	e7fe      	b.n	80042a6 <BusFault_Handler>

080042a8 <UsageFault_Handler>:
void UsageFault_Handler(void)
{
  /* USER CODE BEGIN UsageFault_IRQn 0 */

  /* USER CODE END UsageFault_IRQn 0 */
  while (1)
 80042a8:	e7fe      	b.n	80042a8 <UsageFault_Handler>

080042aa <SVC_Handler>:

  /* USER CODE END SVCall_IRQn 0 */
  /* USER CODE BEGIN SVCall_IRQn 1 */

  /* USER CODE END SVCall_IRQn 1 */
}
 80042aa:	4770      	bx	lr

080042ac <DebugMon_Handler>:

  /* USER CODE END DebugMonitor_IRQn 0 */
  /* USER CODE BEGIN DebugMonitor_IRQn 1 */

  /* USER CODE END DebugMonitor_IRQn 1 */
}
 80042ac:	4770      	bx	lr

080042ae <PendSV_Handler>:

  /* USER CODE END PendSV_IRQn 0 */
  /* USER CODE BEGIN PendSV_IRQn 1 */

  /* USER CODE END PendSV_IRQn 1 */
}
 80042ae:	4770      	bx	lr

080042b0 <SysTick_Handler>:

/**
  * @brief This function handles System tick timer.
  */
void SysTick_Handler(void)
{
 80042b0:	b508      	push	{r3, lr}
  /* USER CODE BEGIN SysTick_IRQn 0 */

  /* USER CODE END SysTick_IRQn 0 */
  HAL_IncTick();
 80042b2:	f7fc f9bf 	bl	8000634 <HAL_IncTick>
  /* USER CODE BEGIN SysTick_IRQn 1 */
  HAL_SYSTICK_IRQHandler();
 80042b6:	f7fd fa09 	bl	80016cc <HAL_SYSTICK_IRQHandler>
  /* USER CODE END SysTick_IRQn 1 */
}
 80042ba:	bd08      	pop	{r3, pc}

080042bc <ADC_IRQHandler>:

/**
  * @brief This function handles ADC1, ADC2 and ADC3 interrupts.
  */
void ADC_IRQHandler(void)
{
 80042bc:	b508      	push	{r3, lr}
  /* USER CODE BEGIN ADC_IRQn 0 */

  /* USER CODE END ADC_IRQn 0 */
  HAL_ADC_IRQHandler(&hadc1);
 80042be:	4802      	ldr	r0, [pc, #8]	; (80042c8 <ADC_IRQHandler+0xc>)
 80042c0:	f7fc fa92 	bl	80007e8 <HAL_ADC_IRQHandler>
  /* USER CODE BEGIN ADC_IRQn 1 */

  /* USER CODE END ADC_IRQn 1 */
}
 80042c4:	bd08      	pop	{r3, pc}
 80042c6:	bf00      	nop
 80042c8:	20000a4c 	.word	0x20000a4c

080042cc <CAN1_RX0_IRQHandler>:

/**
  * @brief This function handles CAN1 RX0 interrupt.
  */
void CAN1_RX0_IRQHandler(void)
{
 80042cc:	b508      	push	{r3, lr}
  /* USER CODE BEGIN CAN1_RX0_IRQn 0 */

  /* USER CODE END CAN1_RX0_IRQn 0 */
  HAL_CAN_IRQHandler(&hcan1);
 80042ce:	4802      	ldr	r0, [pc, #8]	; (80042d8 <CAN1_RX0_IRQHandler+0xc>)
 80042d0:	f7fd f86d 	bl	80013ae <HAL_CAN_IRQHandler>
  /* USER CODE BEGIN CAN1_RX0_IRQn 1 */

  /* USER CODE END CAN1_RX0_IRQn 1 */
}
 80042d4:	bd08      	pop	{r3, pc}
 80042d6:	bf00      	nop
 80042d8:	20000b50 	.word	0x20000b50

080042dc <TIM1_UP_TIM10_IRQHandler>:

/**
  * @brief This function handles TIM1 update interrupt and TIM10 global interrupt.
  */
void TIM1_UP_TIM10_IRQHandler(void)
{
 80042dc:	b508      	push	{r3, lr}
  /* USER CODE BEGIN TIM1_UP_TIM10_IRQn 0 */

  /* USER CODE END TIM1_UP_TIM10_IRQn 0 */
  HAL_TIM_IRQHandler(&htim1);
 80042de:	4802      	ldr	r0, [pc, #8]	; (80042e8 <TIM1_UP_TIM10_IRQHandler+0xc>)
 80042e0:	f7fe f853 	bl	800238a <HAL_TIM_IRQHandler>
  /* USER CODE BEGIN TIM1_UP_TIM10_IRQn 1 */

  /* USER CODE END TIM1_UP_TIM10_IRQn 1 */
}
 80042e4:	bd08      	pop	{r3, pc}
 80042e6:	bf00      	nop
 80042e8:	20000ab8 	.word	0x20000ab8

080042ec <USART2_IRQHandler>:

/**
  * @brief This function handles USART2 global interrupt.
  */
void USART2_IRQHandler(void)
{
 80042ec:	b508      	push	{r3, lr}
  /* USER CODE BEGIN USART2_IRQn 0 */

  /* USER CODE END USART2_IRQn 0 */
  HAL_UART_IRQHandler(&huart2);
 80042ee:	4802      	ldr	r0, [pc, #8]	; (80042f8 <USART2_IRQHandler+0xc>)
 80042f0:	f7fe fd96 	bl	8002e20 <HAL_UART_IRQHandler>
  /* USER CODE BEGIN USART2_IRQn 1 */

  /* USER CODE END USART2_IRQn 1 */
}
 80042f4:	bd08      	pop	{r3, pc}
 80042f6:	bf00      	nop
 80042f8:	20000b0c 	.word	0x20000b0c

080042fc <USART3_IRQHandler>:

/**
  * @brief This function handles USART3 global interrupt.
  */
void USART3_IRQHandler(void)
{
 80042fc:	b508      	push	{r3, lr}
  /* USER CODE BEGIN USART3_IRQn 0 */

  /* USER CODE END USART3_IRQn 0 */
  HAL_UART_IRQHandler(&huart3);
 80042fe:	4802      	ldr	r0, [pc, #8]	; (8004308 <USART3_IRQHandler+0xc>)
 8004300:	f7fe fd8e 	bl	8002e20 <HAL_UART_IRQHandler>
  /* USER CODE BEGIN USART3_IRQn 1 */

  /* USER CODE END USART3_IRQn 1 */
}
 8004304:	bd08      	pop	{r3, pc}
 8004306:	bf00      	nop
 8004308:	200009c0 	.word	0x200009c0

0800430c <EXTI15_10_IRQHandler>:

/**
  * @brief This function handles EXTI line[15:10] interrupts.
  */
void EXTI15_10_IRQHandler(void)
{
 800430c:	b508      	push	{r3, lr}
  /* USER CODE BEGIN EXTI15_10_IRQn 0 */

  /* USER CODE END EXTI15_10_IRQn 0 */
  HAL_GPIO_EXTI_IRQHandler(GPIO_PIN_12);
 800430e:	f44f 5080 	mov.w	r0, #4096	; 0x1000
 8004312:	f7fd fb2f 	bl	8001974 <HAL_GPIO_EXTI_IRQHandler>
  HAL_GPIO_EXTI_IRQHandler(GPIO_PIN_13);
 8004316:	f44f 5000 	mov.w	r0, #8192	; 0x2000
 800431a:	f7fd fb2b 	bl	8001974 <HAL_GPIO_EXTI_IRQHandler>
  HAL_GPIO_EXTI_IRQHandler(GPIO_PIN_14);
 800431e:	f44f 4080 	mov.w	r0, #16384	; 0x4000
 8004322:	f7fd fb27 	bl	8001974 <HAL_GPIO_EXTI_IRQHandler>
  HAL_GPIO_EXTI_IRQHandler(GPIO_PIN_15);
 8004326:	f44f 4000 	mov.w	r0, #32768	; 0x8000
 800432a:	f7fd fb23 	bl	8001974 <HAL_GPIO_EXTI_IRQHandler>
  /* USER CODE BEGIN EXTI15_10_IRQn 1 */

  /* USER CODE END EXTI15_10_IRQn 1 */
}
 800432e:	bd08      	pop	{r3, pc}

08004330 <_sbrk>:
	}
	return len;
}

caddr_t _sbrk(int incr)
{
 8004330:	b508      	push	{r3, lr}
 8004332:	4603      	mov	r3, r0
	extern char end asm("end");
	static char *heap_end;
	char *prev_heap_end;

	if (heap_end == 0)
 8004334:	4a0b      	ldr	r2, [pc, #44]	; (8004364 <_sbrk+0x34>)
 8004336:	6812      	ldr	r2, [r2, #0]
 8004338:	b142      	cbz	r2, 800434c <_sbrk+0x1c>
		heap_end = &end;

	prev_heap_end = heap_end;
 800433a:	4a0a      	ldr	r2, [pc, #40]	; (8004364 <_sbrk+0x34>)
 800433c:	6810      	ldr	r0, [r2, #0]
	if (heap_end + incr > stack_ptr)
 800433e:	4403      	add	r3, r0
 8004340:	466a      	mov	r2, sp
 8004342:	4293      	cmp	r3, r2
 8004344:	d806      	bhi.n	8004354 <_sbrk+0x24>
//		abort();
		errno = ENOMEM;
		return (caddr_t) -1;
	}

	heap_end += incr;
 8004346:	4a07      	ldr	r2, [pc, #28]	; (8004364 <_sbrk+0x34>)
 8004348:	6013      	str	r3, [r2, #0]

	return (caddr_t) prev_heap_end;
}
 800434a:	bd08      	pop	{r3, pc}
		heap_end = &end;
 800434c:	4a05      	ldr	r2, [pc, #20]	; (8004364 <_sbrk+0x34>)
 800434e:	4906      	ldr	r1, [pc, #24]	; (8004368 <_sbrk+0x38>)
 8004350:	6011      	str	r1, [r2, #0]
 8004352:	e7f2      	b.n	800433a <_sbrk+0xa>
		errno = ENOMEM;
 8004354:	f000 f962 	bl	800461c <__errno>
 8004358:	230c      	movs	r3, #12
 800435a:	6003      	str	r3, [r0, #0]
		return (caddr_t) -1;
 800435c:	f04f 30ff 	mov.w	r0, #4294967295
 8004360:	e7f3      	b.n	800434a <_sbrk+0x1a>
 8004362:	bf00      	nop
 8004364:	2000010c 	.word	0x2000010c
 8004368:	20000bc0 	.word	0x20000bc0

0800436c <SystemInit>:
  */
void SystemInit(void)
{
  /* FPU settings ------------------------------------------------------------*/
  #if (__FPU_PRESENT == 1) && (__FPU_USED == 1)
    SCB->CPACR |= ((3UL << 10*2)|(3UL << 11*2));  /* set CP10 and CP11 Full Access */
 800436c:	490f      	ldr	r1, [pc, #60]	; (80043ac <SystemInit+0x40>)
 800436e:	f8d1 3088 	ldr.w	r3, [r1, #136]	; 0x88
 8004372:	f443 0370 	orr.w	r3, r3, #15728640	; 0xf00000
 8004376:	f8c1 3088 	str.w	r3, [r1, #136]	; 0x88
  #endif
  /* Reset the RCC clock configuration to the default reset state ------------*/
  /* Set HSION bit */
  RCC->CR |= (uint32_t)0x00000001;
 800437a:	4b0d      	ldr	r3, [pc, #52]	; (80043b0 <SystemInit+0x44>)
 800437c:	681a      	ldr	r2, [r3, #0]
 800437e:	f042 0201 	orr.w	r2, r2, #1
 8004382:	601a      	str	r2, [r3, #0]

  /* Reset CFGR register */
  RCC->CFGR = 0x00000000;
 8004384:	2000      	movs	r0, #0
 8004386:	6098      	str	r0, [r3, #8]

  /* Reset HSEON, CSSON and PLLON bits */
  RCC->CR &= (uint32_t)0xFEF6FFFF;
 8004388:	681a      	ldr	r2, [r3, #0]
 800438a:	f022 7284 	bic.w	r2, r2, #17301504	; 0x1080000
 800438e:	f422 3280 	bic.w	r2, r2, #65536	; 0x10000
 8004392:	601a      	str	r2, [r3, #0]

  /* Reset PLLCFGR register */
  RCC->PLLCFGR = 0x24003010;
 8004394:	4a07      	ldr	r2, [pc, #28]	; (80043b4 <SystemInit+0x48>)
 8004396:	605a      	str	r2, [r3, #4]

  /* Reset HSEBYP bit */
  RCC->CR &= (uint32_t)0xFFFBFFFF;
 8004398:	681a      	ldr	r2, [r3, #0]
 800439a:	f422 2280 	bic.w	r2, r2, #262144	; 0x40000
 800439e:	601a      	str	r2, [r3, #0]

  /* Disable all interrupts */
  RCC->CIR = 0x00000000;
 80043a0:	60d8      	str	r0, [r3, #12]

  /* Configure the Vector Table location add offset address ------------------*/
#ifdef VECT_TAB_SRAM
  SCB->VTOR = SRAM_BASE | VECT_TAB_OFFSET; /* Vector Table Relocation in Internal SRAM */
#else
  SCB->VTOR = FLASH_BASE | VECT_TAB_OFFSET; /* Vector Table Relocation in Internal FLASH */
 80043a2:	f04f 6300 	mov.w	r3, #134217728	; 0x8000000
 80043a6:	608b      	str	r3, [r1, #8]
#endif
}
 80043a8:	4770      	bx	lr
 80043aa:	bf00      	nop
 80043ac:	e000ed00 	.word	0xe000ed00
 80043b0:	40023800 	.word	0x40023800
 80043b4:	24003010 	.word	0x24003010

080043b8 <HAL_UART_RxCpltCallback>:
  * @param  huart: pointer to a UART_HandleTypeDef structure that contains
  *                the configuration information for the specified UART module.
  * @retval None
  */
void HAL_UART_RxCpltCallback(UART_HandleTypeDef *huart)
{
 80043b8:	b508      	push	{r3, lr}
	if (huart->Instance == USART3)
 80043ba:	6802      	ldr	r2, [r0, #0]
 80043bc:	4b0f      	ldr	r3, [pc, #60]	; (80043fc <HAL_UART_RxCpltCallback+0x44>)
 80043be:	429a      	cmp	r2, r3
 80043c0:	d000      	beq.n	80043c4 <HAL_UART_RxCpltCallback+0xc>
			// Receive process blocked
			COMerrorSignal();
		  }

	  }
}
 80043c2:	bd08      	pop	{r3, pc}
		RxCnt++;
 80043c4:	4b0e      	ldr	r3, [pc, #56]	; (8004400 <HAL_UART_RxCpltCallback+0x48>)
 80043c6:	681a      	ldr	r2, [r3, #0]
 80043c8:	3201      	adds	r2, #1
 80043ca:	601a      	str	r2, [r3, #0]
		if (RxCnt < RXBUF_SIZE)
 80043cc:	681b      	ldr	r3, [r3, #0]
 80043ce:	2b7f      	cmp	r3, #127	; 0x7f
 80043d0:	d811      	bhi.n	80043f6 <HAL_UART_RxCpltCallback+0x3e>
			RxIpnt++;
 80043d2:	4b0b      	ldr	r3, [pc, #44]	; (8004400 <HAL_UART_RxCpltCallback+0x48>)
 80043d4:	685a      	ldr	r2, [r3, #4]
 80043d6:	3201      	adds	r2, #1
 80043d8:	605a      	str	r2, [r3, #4]
			if (RxIpnt >= RXBUF_SIZE) RxIpnt = 0;
 80043da:	685b      	ldr	r3, [r3, #4]
 80043dc:	2b7f      	cmp	r3, #127	; 0x7f
 80043de:	d902      	bls.n	80043e6 <HAL_UART_RxCpltCallback+0x2e>
 80043e0:	4b07      	ldr	r3, [pc, #28]	; (8004400 <HAL_UART_RxCpltCallback+0x48>)
 80043e2:	2200      	movs	r2, #0
 80043e4:	605a      	str	r2, [r3, #4]
			HAL_UART_Receive_IT(huart,RxBuf + RxIpnt,1);
 80043e6:	4b06      	ldr	r3, [pc, #24]	; (8004400 <HAL_UART_RxCpltCallback+0x48>)
 80043e8:	6859      	ldr	r1, [r3, #4]
 80043ea:	3308      	adds	r3, #8
 80043ec:	2201      	movs	r2, #1
 80043ee:	4419      	add	r1, r3
 80043f0:	f7fe fe71 	bl	80030d6 <HAL_UART_Receive_IT>
 80043f4:	e7e5      	b.n	80043c2 <HAL_UART_RxCpltCallback+0xa>
			COMerrorSignal();
 80043f6:	f7fe ffc3 	bl	8003380 <COMerrorSignal>
}
 80043fa:	e7e2      	b.n	80043c2 <HAL_UART_RxCpltCallback+0xa>
 80043fc:	40004800 	.word	0x40004800
 8004400:	20000114 	.word	0x20000114

08004404 <HAL_UART_ErrorCallback>:
  * @param  huart: pointer to a UART_HandleTypeDef structure that contains
  *                the configuration information for the specified UART module.
  * @retval None
  */
void HAL_UART_ErrorCallback(UART_HandleTypeDef *huart)
{
 8004404:	b508      	push	{r3, lr}
	COMerrorSignal();
 8004406:	f7fe ffbb 	bl	8003380 <COMerrorSignal>
}
 800440a:	bd08      	pop	{r3, pc}

0800440c <HAL_UART_TxCpltCallback>:
  * @param  huart: pointer to a UART_HandleTypeDef structure that contains
  *                the configuration information for the specified UART module.
  * @retval None
  */
 void HAL_UART_TxCpltCallback(UART_HandleTypeDef *huart)
{
 800440c:	b508      	push	{r3, lr}
	if (huart->Instance == USART3)
 800440e:	6802      	ldr	r2, [r0, #0]
 8004410:	4b12      	ldr	r3, [pc, #72]	; (800445c <HAL_UART_TxCpltCallback+0x50>)
 8004412:	429a      	cmp	r2, r3
 8004414:	d000      	beq.n	8004418 <HAL_UART_TxCpltCallback+0xc>
		  {
			// Initiating new transmission: next character in the Buffer
			HAL_UART_Transmit_IT(huart,TxBuf + TxOpnt, 1);
		  }
	  }
}
 8004416:	bd08      	pop	{r3, pc}
		TxCnt--;
 8004418:	4b11      	ldr	r3, [pc, #68]	; (8004460 <HAL_UART_TxCpltCallback+0x54>)
 800441a:	f8d3 2088 	ldr.w	r2, [r3, #136]	; 0x88
 800441e:	3a01      	subs	r2, #1
 8004420:	f8c3 2088 	str.w	r2, [r3, #136]	; 0x88
		TxOpnt++;
 8004424:	f8d3 208c 	ldr.w	r2, [r3, #140]	; 0x8c
 8004428:	3201      	adds	r2, #1
 800442a:	f8c3 208c 	str.w	r2, [r3, #140]	; 0x8c
		if (TxOpnt >= TXBUF_SIZE) TxOpnt = 0;
 800442e:	f8d3 308c 	ldr.w	r3, [r3, #140]	; 0x8c
 8004432:	f5b3 6f00 	cmp.w	r3, #2048	; 0x800
 8004436:	d303      	bcc.n	8004440 <HAL_UART_TxCpltCallback+0x34>
 8004438:	4b09      	ldr	r3, [pc, #36]	; (8004460 <HAL_UART_TxCpltCallback+0x54>)
 800443a:	2200      	movs	r2, #0
 800443c:	f8c3 208c 	str.w	r2, [r3, #140]	; 0x8c
		if (TxCnt > 0)
 8004440:	4b07      	ldr	r3, [pc, #28]	; (8004460 <HAL_UART_TxCpltCallback+0x54>)
 8004442:	f8d3 3088 	ldr.w	r3, [r3, #136]	; 0x88
 8004446:	2b00      	cmp	r3, #0
 8004448:	d0e5      	beq.n	8004416 <HAL_UART_TxCpltCallback+0xa>
			HAL_UART_Transmit_IT(huart,TxBuf + TxOpnt, 1);
 800444a:	4b05      	ldr	r3, [pc, #20]	; (8004460 <HAL_UART_TxCpltCallback+0x54>)
 800444c:	f8d3 108c 	ldr.w	r1, [r3, #140]	; 0x8c
 8004450:	3390      	adds	r3, #144	; 0x90
 8004452:	2201      	movs	r2, #1
 8004454:	4419      	add	r1, r3
 8004456:	f7fe fc38 	bl	8002cca <HAL_UART_Transmit_IT>
}
 800445a:	e7dc      	b.n	8004416 <HAL_UART_TxCpltCallback+0xa>
 800445c:	40004800 	.word	0x40004800
 8004460:	20000114 	.word	0x20000114

08004464 <StartUARTCommunication>:
  * @brief  Starting UART Receive Process.
  * @param  None
  * @retval None
  */
void StartUARTCommunication()
{
 8004464:	b538      	push	{r3, r4, r5, lr}
	RxIpnt = 0;
 8004466:	4c0b      	ldr	r4, [pc, #44]	; (8004494 <StartUARTCommunication+0x30>)
 8004468:	2500      	movs	r5, #0
 800446a:	6065      	str	r5, [r4, #4]
	RxOpnt = 0;
 800446c:	f8c4 5890 	str.w	r5, [r4, #2192]	; 0x890
	RxCnt = 0;
 8004470:	6025      	str	r5, [r4, #0]
	RxRdy = 0;
 8004472:	f8c4 5894 	str.w	r5, [r4, #2196]	; 0x894
	HAL_UART_Receive_IT(&huart3,RxBuf,1);
 8004476:	2201      	movs	r2, #1
 8004478:	f104 0108 	add.w	r1, r4, #8
 800447c:	4806      	ldr	r0, [pc, #24]	; (8004498 <StartUARTCommunication+0x34>)
 800447e:	f7fe fe2a 	bl	80030d6 <HAL_UART_Receive_IT>
	TxIpnt = 0;
 8004482:	f8c4 5898 	str.w	r5, [r4, #2200]	; 0x898
	TxOpnt = 0;
 8004486:	f8c4 508c 	str.w	r5, [r4, #140]	; 0x8c
	TxCnt = 0;
 800448a:	f8c4 5088 	str.w	r5, [r4, #136]	; 0x88
	TxRdy = 0;
 800448e:	f8c4 589c 	str.w	r5, [r4, #2204]	; 0x89c
}
 8004492:	bd38      	pop	{r3, r4, r5, pc}
 8004494:	20000114 	.word	0x20000114
 8004498:	200009c0 	.word	0x200009c0

0800449c <TestRxData>:
  * @param  None
  * @retval RESET - empty, SET - there is at least one character in the buffer
  */
uint32_t TestRxData()
{
	if (RxCnt > 0) return(SET);
 800449c:	4b02      	ldr	r3, [pc, #8]	; (80044a8 <TestRxData+0xc>)
 800449e:	6818      	ldr	r0, [r3, #0]
 80044a0:	b900      	cbnz	r0, 80044a4 <TestRxData+0x8>
	return(RESET);
}
 80044a2:	4770      	bx	lr
	if (RxCnt > 0) return(SET);
 80044a4:	2001      	movs	r0, #1
 80044a6:	e7fc      	b.n	80044a2 <TestRxData+0x6>
 80044a8:	20000114 	.word	0x20000114

080044ac <GetcRxData>:
  * @brief  Getting a character from the UART Receive Buffer.
  * @param  None
  * @retval character (null if there is no character in the buffer)
  */
uint8_t GetcRxData()
{
 80044ac:	b538      	push	{r3, r4, r5, lr}
  uint8_t data = 0;
  uint32_t prim;

	if (RxCnt > 0)
 80044ae:	4b1c      	ldr	r3, [pc, #112]	; (8004520 <GetcRxData+0x74>)
 80044b0:	681b      	ldr	r3, [r3, #0]
 80044b2:	2b00      	cmp	r3, #0
 80044b4:	d031      	beq.n	800451a <GetcRxData+0x6e>
  __ASM volatile ("MRS %0, primask" : "=r" (result) :: "memory");
 80044b6:	f3ef 8510 	mrs	r5, PRIMASK
  __ASM volatile ("cpsid i" : : : "memory");
 80044ba:	b672      	cpsid	i
	  {
	  	prim = __get_PRIMASK();
	    __disable_irq();
		data = RxBuf[RxOpnt];
 80044bc:	4b18      	ldr	r3, [pc, #96]	; (8004520 <GetcRxData+0x74>)
 80044be:	f8d3 2890 	ldr.w	r2, [r3, #2192]	; 0x890
 80044c2:	441a      	add	r2, r3
 80044c4:	7a14      	ldrb	r4, [r2, #8]
		RxOpnt++;
 80044c6:	f8d3 2890 	ldr.w	r2, [r3, #2192]	; 0x890
 80044ca:	3201      	adds	r2, #1
 80044cc:	f8c3 2890 	str.w	r2, [r3, #2192]	; 0x890
		if (RxOpnt >= RXBUF_SIZE) RxOpnt = 0;
 80044d0:	f8d3 3890 	ldr.w	r3, [r3, #2192]	; 0x890
 80044d4:	2b7f      	cmp	r3, #127	; 0x7f
 80044d6:	d903      	bls.n	80044e0 <GetcRxData+0x34>
 80044d8:	4b11      	ldr	r3, [pc, #68]	; (8004520 <GetcRxData+0x74>)
 80044da:	2200      	movs	r2, #0
 80044dc:	f8c3 2890 	str.w	r2, [r3, #2192]	; 0x890
		if (RxCnt >= RXBUF_SIZE)
 80044e0:	4b0f      	ldr	r3, [pc, #60]	; (8004520 <GetcRxData+0x74>)
 80044e2:	681b      	ldr	r3, [r3, #0]
 80044e4:	2b7f      	cmp	r3, #127	; 0x7f
 80044e6:	d911      	bls.n	800450c <GetcRxData+0x60>
		  {
			// Restarting receive process
			RxIpnt++;
 80044e8:	4b0d      	ldr	r3, [pc, #52]	; (8004520 <GetcRxData+0x74>)
 80044ea:	685a      	ldr	r2, [r3, #4]
 80044ec:	3201      	adds	r2, #1
 80044ee:	605a      	str	r2, [r3, #4]
			if (RxIpnt >= RXBUF_SIZE) RxIpnt = 0;
 80044f0:	685b      	ldr	r3, [r3, #4]
 80044f2:	2b7f      	cmp	r3, #127	; 0x7f
 80044f4:	d902      	bls.n	80044fc <GetcRxData+0x50>
 80044f6:	4b0a      	ldr	r3, [pc, #40]	; (8004520 <GetcRxData+0x74>)
 80044f8:	2200      	movs	r2, #0
 80044fa:	605a      	str	r2, [r3, #4]
			HAL_UART_Receive_IT(&huart3,RxBuf + RxIpnt,1);
 80044fc:	4b08      	ldr	r3, [pc, #32]	; (8004520 <GetcRxData+0x74>)
 80044fe:	6859      	ldr	r1, [r3, #4]
 8004500:	3308      	adds	r3, #8
 8004502:	2201      	movs	r2, #1
 8004504:	4419      	add	r1, r3
 8004506:	4807      	ldr	r0, [pc, #28]	; (8004524 <GetcRxData+0x78>)
 8004508:	f7fe fde5 	bl	80030d6 <HAL_UART_Receive_IT>
		  }
		RxCnt--;
 800450c:	4a04      	ldr	r2, [pc, #16]	; (8004520 <GetcRxData+0x74>)
 800450e:	6813      	ldr	r3, [r2, #0]
 8004510:	3b01      	subs	r3, #1
 8004512:	6013      	str	r3, [r2, #0]
	    if (!prim) __enable_irq();
 8004514:	b915      	cbnz	r5, 800451c <GetcRxData+0x70>
  __ASM volatile ("cpsie i" : : : "memory");
 8004516:	b662      	cpsie	i
}
 8004518:	e000      	b.n	800451c <GetcRxData+0x70>
  uint8_t data = 0;
 800451a:	2400      	movs	r4, #0
	  }
	return(data);
}
 800451c:	4620      	mov	r0, r4
 800451e:	bd38      	pop	{r3, r4, r5, pc}
 8004520:	20000114 	.word	0x20000114
 8004524:	200009c0 	.word	0x200009c0

08004528 <PutcTxData>:
  * @brief  Putting a character to the UART Transmit Buffer.
  * @param  data	the character to be transferred
  * @retval SUCCESS / ERROR
  */
uint32_t PutcTxData(uint8_t data)
{
 8004528:	b510      	push	{r4, lr}
  uint32_t prim;

	if (TxCnt < TXBUF_SIZE)
 800452a:	4b1c      	ldr	r3, [pc, #112]	; (800459c <PutcTxData+0x74>)
 800452c:	f8d3 3088 	ldr.w	r3, [r3, #136]	; 0x88
 8004530:	f5b3 6f00 	cmp.w	r3, #2048	; 0x800
 8004534:	d22e      	bcs.n	8004594 <PutcTxData+0x6c>
  __ASM volatile ("MRS %0, primask" : "=r" (result) :: "memory");
 8004536:	f3ef 8410 	mrs	r4, PRIMASK
  __ASM volatile ("cpsid i" : : : "memory");
 800453a:	b672      	cpsid	i
	  {
	  	prim = __get_PRIMASK();
	    __disable_irq();
		TxBuf[TxIpnt] = data;
 800453c:	4b17      	ldr	r3, [pc, #92]	; (800459c <PutcTxData+0x74>)
 800453e:	f8d3 2898 	ldr.w	r2, [r3, #2200]	; 0x898
 8004542:	441a      	add	r2, r3
 8004544:	f882 0090 	strb.w	r0, [r2, #144]	; 0x90
		TxIpnt++;
 8004548:	f8d3 2898 	ldr.w	r2, [r3, #2200]	; 0x898
 800454c:	3201      	adds	r2, #1
 800454e:	f8c3 2898 	str.w	r2, [r3, #2200]	; 0x898
		if (TxIpnt >= TXBUF_SIZE) TxIpnt = 0;
 8004552:	f8d3 3898 	ldr.w	r3, [r3, #2200]	; 0x898
 8004556:	f5b3 6f00 	cmp.w	r3, #2048	; 0x800
 800455a:	d303      	bcc.n	8004564 <PutcTxData+0x3c>
 800455c:	4b0f      	ldr	r3, [pc, #60]	; (800459c <PutcTxData+0x74>)
 800455e:	2200      	movs	r2, #0
 8004560:	f8c3 2898 	str.w	r2, [r3, #2200]	; 0x898
		TxCnt++;
 8004564:	4b0d      	ldr	r3, [pc, #52]	; (800459c <PutcTxData+0x74>)
 8004566:	f8d3 2088 	ldr.w	r2, [r3, #136]	; 0x88
 800456a:	3201      	adds	r2, #1
 800456c:	f8c3 2088 	str.w	r2, [r3, #136]	; 0x88
		if (TxCnt == 1)
 8004570:	f8d3 3088 	ldr.w	r3, [r3, #136]	; 0x88
 8004574:	2b01      	cmp	r3, #1
 8004576:	d003      	beq.n	8004580 <PutcTxData+0x58>
		  {
			// Starting Transmit process
			HAL_UART_Transmit_IT(&huart3,TxBuf + TxOpnt,1);
		  }
		if (!prim) __enable_irq();
 8004578:	b904      	cbnz	r4, 800457c <PutcTxData+0x54>
  __ASM volatile ("cpsie i" : : : "memory");
 800457a:	b662      	cpsie	i
		return(SUCCESS);
 800457c:	2000      	movs	r0, #0
	  {
		// TX Buffer full: character is discarded
		COMerrorSignal();
		return(ERROR);
	  }
}
 800457e:	bd10      	pop	{r4, pc}
			HAL_UART_Transmit_IT(&huart3,TxBuf + TxOpnt,1);
 8004580:	4b06      	ldr	r3, [pc, #24]	; (800459c <PutcTxData+0x74>)
 8004582:	f8d3 108c 	ldr.w	r1, [r3, #140]	; 0x8c
 8004586:	3390      	adds	r3, #144	; 0x90
 8004588:	2201      	movs	r2, #1
 800458a:	4419      	add	r1, r3
 800458c:	4804      	ldr	r0, [pc, #16]	; (80045a0 <PutcTxData+0x78>)
 800458e:	f7fe fb9c 	bl	8002cca <HAL_UART_Transmit_IT>
 8004592:	e7f1      	b.n	8004578 <PutcTxData+0x50>
		COMerrorSignal();
 8004594:	f7fe fef4 	bl	8003380 <COMerrorSignal>
		return(ERROR);
 8004598:	2001      	movs	r0, #1
 800459a:	e7f0      	b.n	800457e <PutcTxData+0x56>
 800459c:	20000114 	.word	0x20000114
 80045a0:	200009c0 	.word	0x200009c0

080045a4 <PutsTxData>:
  * @param  message	the string to be transferred
  * @param  maxsize	maximal size of the message buffer
  * @retval SUCCESS / ERROR
  */
uint32_t PutsTxData(uint8_t *message, int maxsize)
{
 80045a4:	b570      	push	{r4, r5, r6, lr}
 80045a6:	4606      	mov	r6, r0
 80045a8:	460d      	mov	r5, r1
	uint32_t index = 0, status = SUCCESS;
 80045aa:	2300      	movs	r3, #0
 80045ac:	461c      	mov	r4, r3

	while (index < maxsize && message[index] != NUL_C)
 80045ae:	e000      	b.n	80045b2 <PutsTxData+0xe>
	  {
		status = PutcTxData(message[index]);
		if (status != SUCCESS) break;
		index++;
 80045b0:	3401      	adds	r4, #1
	while (index < maxsize && message[index] != NUL_C)
 80045b2:	42a5      	cmp	r5, r4
 80045b4:	d906      	bls.n	80045c4 <PutsTxData+0x20>
 80045b6:	5d30      	ldrb	r0, [r6, r4]
 80045b8:	b120      	cbz	r0, 80045c4 <PutsTxData+0x20>
		status = PutcTxData(message[index]);
 80045ba:	f7ff ffb5 	bl	8004528 <PutcTxData>
		if (status != SUCCESS) break;
 80045be:	4603      	mov	r3, r0
 80045c0:	2800      	cmp	r0, #0
 80045c2:	d0f5      	beq.n	80045b0 <PutsTxData+0xc>
	  }
	return(status);
}
 80045c4:	4618      	mov	r0, r3
 80045c6:	bd70      	pop	{r4, r5, r6, pc}

080045c8 <Reset_Handler>:

    .section  .text.Reset_Handler
  .weak  Reset_Handler
  .type  Reset_Handler, %function
Reset_Handler:  
  ldr   sp, =_estack      /* set stack pointer */
 80045c8:	f8df d034 	ldr.w	sp, [pc, #52]	; 8004600 <LoopFillZerobss+0x14>

/* Copy the data segment initializers from flash to SRAM */  
  movs  r1, #0
 80045cc:	2100      	movs	r1, #0
  b  LoopCopyDataInit
 80045ce:	e003      	b.n	80045d8 <LoopCopyDataInit>

080045d0 <CopyDataInit>:

CopyDataInit:
  ldr  r3, =_sidata
 80045d0:	4b0c      	ldr	r3, [pc, #48]	; (8004604 <LoopFillZerobss+0x18>)
  ldr  r3, [r3, r1]
 80045d2:	585b      	ldr	r3, [r3, r1]
  str  r3, [r0, r1]
 80045d4:	5043      	str	r3, [r0, r1]
  adds  r1, r1, #4
 80045d6:	3104      	adds	r1, #4

080045d8 <LoopCopyDataInit>:
    
LoopCopyDataInit:
  ldr  r0, =_sdata
 80045d8:	480b      	ldr	r0, [pc, #44]	; (8004608 <LoopFillZerobss+0x1c>)
  ldr  r3, =_edata
 80045da:	4b0c      	ldr	r3, [pc, #48]	; (800460c <LoopFillZerobss+0x20>)
  adds  r2, r0, r1
 80045dc:	1842      	adds	r2, r0, r1
  cmp  r2, r3
 80045de:	429a      	cmp	r2, r3
  bcc  CopyDataInit
 80045e0:	d3f6      	bcc.n	80045d0 <CopyDataInit>
  ldr  r2, =_sbss
 80045e2:	4a0b      	ldr	r2, [pc, #44]	; (8004610 <LoopFillZerobss+0x24>)
  b  LoopFillZerobss
 80045e4:	e002      	b.n	80045ec <LoopFillZerobss>

080045e6 <FillZerobss>:
/* Zero fill the bss segment. */  
FillZerobss:
  movs  r3, #0
 80045e6:	2300      	movs	r3, #0
  str  r3, [r2], #4
 80045e8:	f842 3b04 	str.w	r3, [r2], #4

080045ec <LoopFillZerobss>:
    
LoopFillZerobss:
  ldr  r3, = _ebss
 80045ec:	4b09      	ldr	r3, [pc, #36]	; (8004614 <LoopFillZerobss+0x28>)
  cmp  r2, r3
 80045ee:	429a      	cmp	r2, r3
  bcc  FillZerobss
 80045f0:	d3f9      	bcc.n	80045e6 <FillZerobss>

/* Call the clock system intitialization function.*/
  bl  SystemInit   
 80045f2:	f7ff febb 	bl	800436c <SystemInit>
/* Call static constructors */
    bl __libc_init_array
 80045f6:	f000 f817 	bl	8004628 <__libc_init_array>
/* Call the application's entry point.*/
  bl  main
 80045fa:	f7ff f937 	bl	800386c <main>
  bx  lr    
 80045fe:	4770      	bx	lr
  ldr   sp, =_estack      /* set stack pointer */
 8004600:	20020000 	.word	0x20020000
  ldr  r3, =_sidata
 8004604:	08005ab8 	.word	0x08005ab8
  ldr  r0, =_sdata
 8004608:	20000000 	.word	0x20000000
  ldr  r3, =_edata
 800460c:	20000078 	.word	0x20000078
  ldr  r2, =_sbss
 8004610:	20000078 	.word	0x20000078
  ldr  r3, = _ebss
 8004614:	20000bbc 	.word	0x20000bbc

08004618 <CAN1_RX1_IRQHandler>:
 * @retval None       
*/
    .section  .text.Default_Handler,"ax",%progbits
Default_Handler:
Infinite_Loop:
  b  Infinite_Loop
 8004618:	e7fe      	b.n	8004618 <CAN1_RX1_IRQHandler>
	...

0800461c <__errno>:
 800461c:	4b01      	ldr	r3, [pc, #4]	; (8004624 <__errno+0x8>)
 800461e:	6818      	ldr	r0, [r3, #0]
 8004620:	4770      	bx	lr
 8004622:	bf00      	nop
 8004624:	20000014 	.word	0x20000014

08004628 <__libc_init_array>:
 8004628:	b570      	push	{r4, r5, r6, lr}
 800462a:	4d0d      	ldr	r5, [pc, #52]	; (8004660 <__libc_init_array+0x38>)
 800462c:	4c0d      	ldr	r4, [pc, #52]	; (8004664 <__libc_init_array+0x3c>)
 800462e:	1b64      	subs	r4, r4, r5
 8004630:	10a4      	asrs	r4, r4, #2
 8004632:	2600      	movs	r6, #0
 8004634:	42a6      	cmp	r6, r4
 8004636:	d109      	bne.n	800464c <__libc_init_array+0x24>
 8004638:	4d0b      	ldr	r5, [pc, #44]	; (8004668 <__libc_init_array+0x40>)
 800463a:	4c0c      	ldr	r4, [pc, #48]	; (800466c <__libc_init_array+0x44>)
 800463c:	f001 f912 	bl	8005864 <_init>
 8004640:	1b64      	subs	r4, r4, r5
 8004642:	10a4      	asrs	r4, r4, #2
 8004644:	2600      	movs	r6, #0
 8004646:	42a6      	cmp	r6, r4
 8004648:	d105      	bne.n	8004656 <__libc_init_array+0x2e>
 800464a:	bd70      	pop	{r4, r5, r6, pc}
 800464c:	f855 3b04 	ldr.w	r3, [r5], #4
 8004650:	4798      	blx	r3
 8004652:	3601      	adds	r6, #1
 8004654:	e7ee      	b.n	8004634 <__libc_init_array+0xc>
 8004656:	f855 3b04 	ldr.w	r3, [r5], #4
 800465a:	4798      	blx	r3
 800465c:	3601      	adds	r6, #1
 800465e:	e7f2      	b.n	8004646 <__libc_init_array+0x1e>
 8004660:	08005ab0 	.word	0x08005ab0
 8004664:	08005ab0 	.word	0x08005ab0
 8004668:	08005ab0 	.word	0x08005ab0
 800466c:	08005ab4 	.word	0x08005ab4

08004670 <memset>:
 8004670:	4402      	add	r2, r0
 8004672:	4603      	mov	r3, r0
 8004674:	4293      	cmp	r3, r2
 8004676:	d100      	bne.n	800467a <memset+0xa>
 8004678:	4770      	bx	lr
 800467a:	f803 1b01 	strb.w	r1, [r3], #1
 800467e:	e7f9      	b.n	8004674 <memset+0x4>

08004680 <siprintf>:
 8004680:	b40e      	push	{r1, r2, r3}
 8004682:	b500      	push	{lr}
 8004684:	b09c      	sub	sp, #112	; 0x70
 8004686:	ab1d      	add	r3, sp, #116	; 0x74
 8004688:	9002      	str	r0, [sp, #8]
 800468a:	9006      	str	r0, [sp, #24]
 800468c:	f06f 4100 	mvn.w	r1, #2147483648	; 0x80000000
 8004690:	4809      	ldr	r0, [pc, #36]	; (80046b8 <siprintf+0x38>)
 8004692:	9107      	str	r1, [sp, #28]
 8004694:	9104      	str	r1, [sp, #16]
 8004696:	4909      	ldr	r1, [pc, #36]	; (80046bc <siprintf+0x3c>)
 8004698:	f853 2b04 	ldr.w	r2, [r3], #4
 800469c:	9105      	str	r1, [sp, #20]
 800469e:	6800      	ldr	r0, [r0, #0]
 80046a0:	9301      	str	r3, [sp, #4]
 80046a2:	a902      	add	r1, sp, #8
 80046a4:	f000 f896 	bl	80047d4 <_svfiprintf_r>
 80046a8:	9b02      	ldr	r3, [sp, #8]
 80046aa:	2200      	movs	r2, #0
 80046ac:	701a      	strb	r2, [r3, #0]
 80046ae:	b01c      	add	sp, #112	; 0x70
 80046b0:	f85d eb04 	ldr.w	lr, [sp], #4
 80046b4:	b003      	add	sp, #12
 80046b6:	4770      	bx	lr
 80046b8:	20000014 	.word	0x20000014
 80046bc:	ffff0208 	.word	0xffff0208

080046c0 <siscanf>:
 80046c0:	b40e      	push	{r1, r2, r3}
 80046c2:	b510      	push	{r4, lr}
 80046c4:	b09f      	sub	sp, #124	; 0x7c
 80046c6:	ac21      	add	r4, sp, #132	; 0x84
 80046c8:	f44f 7101 	mov.w	r1, #516	; 0x204
 80046cc:	f854 2b04 	ldr.w	r2, [r4], #4
 80046d0:	9201      	str	r2, [sp, #4]
 80046d2:	f8ad 101c 	strh.w	r1, [sp, #28]
 80046d6:	9004      	str	r0, [sp, #16]
 80046d8:	9008      	str	r0, [sp, #32]
 80046da:	f7fb fd99 	bl	8000210 <strlen>
 80046de:	4b0c      	ldr	r3, [pc, #48]	; (8004710 <siscanf+0x50>)
 80046e0:	9005      	str	r0, [sp, #20]
 80046e2:	9009      	str	r0, [sp, #36]	; 0x24
 80046e4:	930d      	str	r3, [sp, #52]	; 0x34
 80046e6:	480b      	ldr	r0, [pc, #44]	; (8004714 <siscanf+0x54>)
 80046e8:	9a01      	ldr	r2, [sp, #4]
 80046ea:	6800      	ldr	r0, [r0, #0]
 80046ec:	9403      	str	r4, [sp, #12]
 80046ee:	2300      	movs	r3, #0
 80046f0:	9311      	str	r3, [sp, #68]	; 0x44
 80046f2:	9316      	str	r3, [sp, #88]	; 0x58
 80046f4:	f64f 73ff 	movw	r3, #65535	; 0xffff
 80046f8:	f8ad 301e 	strh.w	r3, [sp, #30]
 80046fc:	a904      	add	r1, sp, #16
 80046fe:	4623      	mov	r3, r4
 8004700:	f000 f9c2 	bl	8004a88 <__ssvfiscanf_r>
 8004704:	b01f      	add	sp, #124	; 0x7c
 8004706:	e8bd 4010 	ldmia.w	sp!, {r4, lr}
 800470a:	b003      	add	sp, #12
 800470c:	4770      	bx	lr
 800470e:	bf00      	nop
 8004710:	08004719 	.word	0x08004719
 8004714:	20000014 	.word	0x20000014

08004718 <__seofread>:
 8004718:	2000      	movs	r0, #0
 800471a:	4770      	bx	lr

0800471c <__ssputs_r>:
 800471c:	e92d 47f0 	stmdb	sp!, {r4, r5, r6, r7, r8, r9, sl, lr}
 8004720:	688e      	ldr	r6, [r1, #8]
 8004722:	429e      	cmp	r6, r3
 8004724:	4682      	mov	sl, r0
 8004726:	460c      	mov	r4, r1
 8004728:	4690      	mov	r8, r2
 800472a:	461f      	mov	r7, r3
 800472c:	d838      	bhi.n	80047a0 <__ssputs_r+0x84>
 800472e:	898a      	ldrh	r2, [r1, #12]
 8004730:	f412 6f90 	tst.w	r2, #1152	; 0x480
 8004734:	d032      	beq.n	800479c <__ssputs_r+0x80>
 8004736:	6825      	ldr	r5, [r4, #0]
 8004738:	6909      	ldr	r1, [r1, #16]
 800473a:	eba5 0901 	sub.w	r9, r5, r1
 800473e:	6965      	ldr	r5, [r4, #20]
 8004740:	eb05 0545 	add.w	r5, r5, r5, lsl #1
 8004744:	eb05 75d5 	add.w	r5, r5, r5, lsr #31
 8004748:	3301      	adds	r3, #1
 800474a:	444b      	add	r3, r9
 800474c:	106d      	asrs	r5, r5, #1
 800474e:	429d      	cmp	r5, r3
 8004750:	bf38      	it	cc
 8004752:	461d      	movcc	r5, r3
 8004754:	0553      	lsls	r3, r2, #21
 8004756:	d531      	bpl.n	80047bc <__ssputs_r+0xa0>
 8004758:	4629      	mov	r1, r5
 800475a:	f000 ffdf 	bl	800571c <_malloc_r>
 800475e:	4606      	mov	r6, r0
 8004760:	b950      	cbnz	r0, 8004778 <__ssputs_r+0x5c>
 8004762:	230c      	movs	r3, #12
 8004764:	f8ca 3000 	str.w	r3, [sl]
 8004768:	89a3      	ldrh	r3, [r4, #12]
 800476a:	f043 0340 	orr.w	r3, r3, #64	; 0x40
 800476e:	81a3      	strh	r3, [r4, #12]
 8004770:	f04f 30ff 	mov.w	r0, #4294967295
 8004774:	e8bd 87f0 	ldmia.w	sp!, {r4, r5, r6, r7, r8, r9, sl, pc}
 8004778:	6921      	ldr	r1, [r4, #16]
 800477a:	464a      	mov	r2, r9
 800477c:	f000 ff56 	bl	800562c <memcpy>
 8004780:	89a3      	ldrh	r3, [r4, #12]
 8004782:	f423 6390 	bic.w	r3, r3, #1152	; 0x480
 8004786:	f043 0380 	orr.w	r3, r3, #128	; 0x80
 800478a:	81a3      	strh	r3, [r4, #12]
 800478c:	6126      	str	r6, [r4, #16]
 800478e:	6165      	str	r5, [r4, #20]
 8004790:	444e      	add	r6, r9
 8004792:	eba5 0509 	sub.w	r5, r5, r9
 8004796:	6026      	str	r6, [r4, #0]
 8004798:	60a5      	str	r5, [r4, #8]
 800479a:	463e      	mov	r6, r7
 800479c:	42be      	cmp	r6, r7
 800479e:	d900      	bls.n	80047a2 <__ssputs_r+0x86>
 80047a0:	463e      	mov	r6, r7
 80047a2:	4632      	mov	r2, r6
 80047a4:	6820      	ldr	r0, [r4, #0]
 80047a6:	4641      	mov	r1, r8
 80047a8:	f000 ff4e 	bl	8005648 <memmove>
 80047ac:	68a3      	ldr	r3, [r4, #8]
 80047ae:	6822      	ldr	r2, [r4, #0]
 80047b0:	1b9b      	subs	r3, r3, r6
 80047b2:	4432      	add	r2, r6
 80047b4:	60a3      	str	r3, [r4, #8]
 80047b6:	6022      	str	r2, [r4, #0]
 80047b8:	2000      	movs	r0, #0
 80047ba:	e7db      	b.n	8004774 <__ssputs_r+0x58>
 80047bc:	462a      	mov	r2, r5
 80047be:	f001 f807 	bl	80057d0 <_realloc_r>
 80047c2:	4606      	mov	r6, r0
 80047c4:	2800      	cmp	r0, #0
 80047c6:	d1e1      	bne.n	800478c <__ssputs_r+0x70>
 80047c8:	6921      	ldr	r1, [r4, #16]
 80047ca:	4650      	mov	r0, sl
 80047cc:	f000 ff56 	bl	800567c <_free_r>
 80047d0:	e7c7      	b.n	8004762 <__ssputs_r+0x46>
	...

080047d4 <_svfiprintf_r>:
 80047d4:	e92d 4ff0 	stmdb	sp!, {r4, r5, r6, r7, r8, r9, sl, fp, lr}
 80047d8:	4698      	mov	r8, r3
 80047da:	898b      	ldrh	r3, [r1, #12]
 80047dc:	061b      	lsls	r3, r3, #24
 80047de:	b09d      	sub	sp, #116	; 0x74
 80047e0:	4607      	mov	r7, r0
 80047e2:	460d      	mov	r5, r1
 80047e4:	4614      	mov	r4, r2
 80047e6:	d50e      	bpl.n	8004806 <_svfiprintf_r+0x32>
 80047e8:	690b      	ldr	r3, [r1, #16]
 80047ea:	b963      	cbnz	r3, 8004806 <_svfiprintf_r+0x32>
 80047ec:	2140      	movs	r1, #64	; 0x40
 80047ee:	f000 ff95 	bl	800571c <_malloc_r>
 80047f2:	6028      	str	r0, [r5, #0]
 80047f4:	6128      	str	r0, [r5, #16]
 80047f6:	b920      	cbnz	r0, 8004802 <_svfiprintf_r+0x2e>
 80047f8:	230c      	movs	r3, #12
 80047fa:	603b      	str	r3, [r7, #0]
 80047fc:	f04f 30ff 	mov.w	r0, #4294967295
 8004800:	e0d1      	b.n	80049a6 <_svfiprintf_r+0x1d2>
 8004802:	2340      	movs	r3, #64	; 0x40
 8004804:	616b      	str	r3, [r5, #20]
 8004806:	2300      	movs	r3, #0
 8004808:	9309      	str	r3, [sp, #36]	; 0x24
 800480a:	2320      	movs	r3, #32
 800480c:	f88d 3029 	strb.w	r3, [sp, #41]	; 0x29
 8004810:	f8cd 800c 	str.w	r8, [sp, #12]
 8004814:	2330      	movs	r3, #48	; 0x30
 8004816:	f8df 81a8 	ldr.w	r8, [pc, #424]	; 80049c0 <_svfiprintf_r+0x1ec>
 800481a:	f88d 302a 	strb.w	r3, [sp, #42]	; 0x2a
 800481e:	f04f 0901 	mov.w	r9, #1
 8004822:	4623      	mov	r3, r4
 8004824:	469a      	mov	sl, r3
 8004826:	f813 2b01 	ldrb.w	r2, [r3], #1
 800482a:	b10a      	cbz	r2, 8004830 <_svfiprintf_r+0x5c>
 800482c:	2a25      	cmp	r2, #37	; 0x25
 800482e:	d1f9      	bne.n	8004824 <_svfiprintf_r+0x50>
 8004830:	ebba 0b04 	subs.w	fp, sl, r4
 8004834:	d00b      	beq.n	800484e <_svfiprintf_r+0x7a>
 8004836:	465b      	mov	r3, fp
 8004838:	4622      	mov	r2, r4
 800483a:	4629      	mov	r1, r5
 800483c:	4638      	mov	r0, r7
 800483e:	f7ff ff6d 	bl	800471c <__ssputs_r>
 8004842:	3001      	adds	r0, #1
 8004844:	f000 80aa 	beq.w	800499c <_svfiprintf_r+0x1c8>
 8004848:	9a09      	ldr	r2, [sp, #36]	; 0x24
 800484a:	445a      	add	r2, fp
 800484c:	9209      	str	r2, [sp, #36]	; 0x24
 800484e:	f89a 3000 	ldrb.w	r3, [sl]
 8004852:	2b00      	cmp	r3, #0
 8004854:	f000 80a2 	beq.w	800499c <_svfiprintf_r+0x1c8>
 8004858:	2300      	movs	r3, #0
 800485a:	f04f 32ff 	mov.w	r2, #4294967295
 800485e:	e9cd 2305 	strd	r2, r3, [sp, #20]
 8004862:	f10a 0a01 	add.w	sl, sl, #1
 8004866:	9304      	str	r3, [sp, #16]
 8004868:	9307      	str	r3, [sp, #28]
 800486a:	f88d 3053 	strb.w	r3, [sp, #83]	; 0x53
 800486e:	931a      	str	r3, [sp, #104]	; 0x68
 8004870:	4654      	mov	r4, sl
 8004872:	2205      	movs	r2, #5
 8004874:	f814 1b01 	ldrb.w	r1, [r4], #1
 8004878:	4851      	ldr	r0, [pc, #324]	; (80049c0 <_svfiprintf_r+0x1ec>)
 800487a:	f7fb fcd1 	bl	8000220 <memchr>
 800487e:	9a04      	ldr	r2, [sp, #16]
 8004880:	b9d8      	cbnz	r0, 80048ba <_svfiprintf_r+0xe6>
 8004882:	06d0      	lsls	r0, r2, #27
 8004884:	bf44      	itt	mi
 8004886:	2320      	movmi	r3, #32
 8004888:	f88d 3053 	strbmi.w	r3, [sp, #83]	; 0x53
 800488c:	0711      	lsls	r1, r2, #28
 800488e:	bf44      	itt	mi
 8004890:	232b      	movmi	r3, #43	; 0x2b
 8004892:	f88d 3053 	strbmi.w	r3, [sp, #83]	; 0x53
 8004896:	f89a 3000 	ldrb.w	r3, [sl]
 800489a:	2b2a      	cmp	r3, #42	; 0x2a
 800489c:	d015      	beq.n	80048ca <_svfiprintf_r+0xf6>
 800489e:	9a07      	ldr	r2, [sp, #28]
 80048a0:	4654      	mov	r4, sl
 80048a2:	2000      	movs	r0, #0
 80048a4:	f04f 0c0a 	mov.w	ip, #10
 80048a8:	4621      	mov	r1, r4
 80048aa:	f811 3b01 	ldrb.w	r3, [r1], #1
 80048ae:	3b30      	subs	r3, #48	; 0x30
 80048b0:	2b09      	cmp	r3, #9
 80048b2:	d94e      	bls.n	8004952 <_svfiprintf_r+0x17e>
 80048b4:	b1b0      	cbz	r0, 80048e4 <_svfiprintf_r+0x110>
 80048b6:	9207      	str	r2, [sp, #28]
 80048b8:	e014      	b.n	80048e4 <_svfiprintf_r+0x110>
 80048ba:	eba0 0308 	sub.w	r3, r0, r8
 80048be:	fa09 f303 	lsl.w	r3, r9, r3
 80048c2:	4313      	orrs	r3, r2
 80048c4:	9304      	str	r3, [sp, #16]
 80048c6:	46a2      	mov	sl, r4
 80048c8:	e7d2      	b.n	8004870 <_svfiprintf_r+0x9c>
 80048ca:	9b03      	ldr	r3, [sp, #12]
 80048cc:	1d19      	adds	r1, r3, #4
 80048ce:	681b      	ldr	r3, [r3, #0]
 80048d0:	9103      	str	r1, [sp, #12]
 80048d2:	2b00      	cmp	r3, #0
 80048d4:	bfbb      	ittet	lt
 80048d6:	425b      	neglt	r3, r3
 80048d8:	f042 0202 	orrlt.w	r2, r2, #2
 80048dc:	9307      	strge	r3, [sp, #28]
 80048de:	9307      	strlt	r3, [sp, #28]
 80048e0:	bfb8      	it	lt
 80048e2:	9204      	strlt	r2, [sp, #16]
 80048e4:	7823      	ldrb	r3, [r4, #0]
 80048e6:	2b2e      	cmp	r3, #46	; 0x2e
 80048e8:	d10c      	bne.n	8004904 <_svfiprintf_r+0x130>
 80048ea:	7863      	ldrb	r3, [r4, #1]
 80048ec:	2b2a      	cmp	r3, #42	; 0x2a
 80048ee:	d135      	bne.n	800495c <_svfiprintf_r+0x188>
 80048f0:	9b03      	ldr	r3, [sp, #12]
 80048f2:	1d1a      	adds	r2, r3, #4
 80048f4:	681b      	ldr	r3, [r3, #0]
 80048f6:	9203      	str	r2, [sp, #12]
 80048f8:	2b00      	cmp	r3, #0
 80048fa:	bfb8      	it	lt
 80048fc:	f04f 33ff 	movlt.w	r3, #4294967295
 8004900:	3402      	adds	r4, #2
 8004902:	9305      	str	r3, [sp, #20]
 8004904:	f8df a0c8 	ldr.w	sl, [pc, #200]	; 80049d0 <_svfiprintf_r+0x1fc>
 8004908:	7821      	ldrb	r1, [r4, #0]
 800490a:	2203      	movs	r2, #3
 800490c:	4650      	mov	r0, sl
 800490e:	f7fb fc87 	bl	8000220 <memchr>
 8004912:	b140      	cbz	r0, 8004926 <_svfiprintf_r+0x152>
 8004914:	2340      	movs	r3, #64	; 0x40
 8004916:	eba0 000a 	sub.w	r0, r0, sl
 800491a:	fa03 f000 	lsl.w	r0, r3, r0
 800491e:	9b04      	ldr	r3, [sp, #16]
 8004920:	4303      	orrs	r3, r0
 8004922:	3401      	adds	r4, #1
 8004924:	9304      	str	r3, [sp, #16]
 8004926:	f814 1b01 	ldrb.w	r1, [r4], #1
 800492a:	4826      	ldr	r0, [pc, #152]	; (80049c4 <_svfiprintf_r+0x1f0>)
 800492c:	f88d 1028 	strb.w	r1, [sp, #40]	; 0x28
 8004930:	2206      	movs	r2, #6
 8004932:	f7fb fc75 	bl	8000220 <memchr>
 8004936:	2800      	cmp	r0, #0
 8004938:	d038      	beq.n	80049ac <_svfiprintf_r+0x1d8>
 800493a:	4b23      	ldr	r3, [pc, #140]	; (80049c8 <_svfiprintf_r+0x1f4>)
 800493c:	bb1b      	cbnz	r3, 8004986 <_svfiprintf_r+0x1b2>
 800493e:	9b03      	ldr	r3, [sp, #12]
 8004940:	3307      	adds	r3, #7
 8004942:	f023 0307 	bic.w	r3, r3, #7
 8004946:	3308      	adds	r3, #8
 8004948:	9303      	str	r3, [sp, #12]
 800494a:	9b09      	ldr	r3, [sp, #36]	; 0x24
 800494c:	4433      	add	r3, r6
 800494e:	9309      	str	r3, [sp, #36]	; 0x24
 8004950:	e767      	b.n	8004822 <_svfiprintf_r+0x4e>
 8004952:	fb0c 3202 	mla	r2, ip, r2, r3
 8004956:	460c      	mov	r4, r1
 8004958:	2001      	movs	r0, #1
 800495a:	e7a5      	b.n	80048a8 <_svfiprintf_r+0xd4>
 800495c:	2300      	movs	r3, #0
 800495e:	3401      	adds	r4, #1
 8004960:	9305      	str	r3, [sp, #20]
 8004962:	4619      	mov	r1, r3
 8004964:	f04f 0c0a 	mov.w	ip, #10
 8004968:	4620      	mov	r0, r4
 800496a:	f810 2b01 	ldrb.w	r2, [r0], #1
 800496e:	3a30      	subs	r2, #48	; 0x30
 8004970:	2a09      	cmp	r2, #9
 8004972:	d903      	bls.n	800497c <_svfiprintf_r+0x1a8>
 8004974:	2b00      	cmp	r3, #0
 8004976:	d0c5      	beq.n	8004904 <_svfiprintf_r+0x130>
 8004978:	9105      	str	r1, [sp, #20]
 800497a:	e7c3      	b.n	8004904 <_svfiprintf_r+0x130>
 800497c:	fb0c 2101 	mla	r1, ip, r1, r2
 8004980:	4604      	mov	r4, r0
 8004982:	2301      	movs	r3, #1
 8004984:	e7f0      	b.n	8004968 <_svfiprintf_r+0x194>
 8004986:	ab03      	add	r3, sp, #12
 8004988:	9300      	str	r3, [sp, #0]
 800498a:	462a      	mov	r2, r5
 800498c:	4b0f      	ldr	r3, [pc, #60]	; (80049cc <_svfiprintf_r+0x1f8>)
 800498e:	a904      	add	r1, sp, #16
 8004990:	4638      	mov	r0, r7
 8004992:	f3af 8000 	nop.w
 8004996:	1c42      	adds	r2, r0, #1
 8004998:	4606      	mov	r6, r0
 800499a:	d1d6      	bne.n	800494a <_svfiprintf_r+0x176>
 800499c:	89ab      	ldrh	r3, [r5, #12]
 800499e:	065b      	lsls	r3, r3, #25
 80049a0:	f53f af2c 	bmi.w	80047fc <_svfiprintf_r+0x28>
 80049a4:	9809      	ldr	r0, [sp, #36]	; 0x24
 80049a6:	b01d      	add	sp, #116	; 0x74
 80049a8:	e8bd 8ff0 	ldmia.w	sp!, {r4, r5, r6, r7, r8, r9, sl, fp, pc}
 80049ac:	ab03      	add	r3, sp, #12
 80049ae:	9300      	str	r3, [sp, #0]
 80049b0:	462a      	mov	r2, r5
 80049b2:	4b06      	ldr	r3, [pc, #24]	; (80049cc <_svfiprintf_r+0x1f8>)
 80049b4:	a904      	add	r1, sp, #16
 80049b6:	4638      	mov	r0, r7
 80049b8:	f000 fa4c 	bl	8004e54 <_printf_i>
 80049bc:	e7eb      	b.n	8004996 <_svfiprintf_r+0x1c2>
 80049be:	bf00      	nop
 80049c0:	080058f8 	.word	0x080058f8
 80049c4:	08005902 	.word	0x08005902
 80049c8:	00000000 	.word	0x00000000
 80049cc:	0800471d 	.word	0x0800471d
 80049d0:	080058fe 	.word	0x080058fe

080049d4 <_sungetc_r>:
 80049d4:	b538      	push	{r3, r4, r5, lr}
 80049d6:	1c4b      	adds	r3, r1, #1
 80049d8:	4614      	mov	r4, r2
 80049da:	d103      	bne.n	80049e4 <_sungetc_r+0x10>
 80049dc:	f04f 35ff 	mov.w	r5, #4294967295
 80049e0:	4628      	mov	r0, r5
 80049e2:	bd38      	pop	{r3, r4, r5, pc}
 80049e4:	8993      	ldrh	r3, [r2, #12]
 80049e6:	f023 0320 	bic.w	r3, r3, #32
 80049ea:	8193      	strh	r3, [r2, #12]
 80049ec:	6b63      	ldr	r3, [r4, #52]	; 0x34
 80049ee:	6852      	ldr	r2, [r2, #4]
 80049f0:	b2cd      	uxtb	r5, r1
 80049f2:	b18b      	cbz	r3, 8004a18 <_sungetc_r+0x44>
 80049f4:	6ba3      	ldr	r3, [r4, #56]	; 0x38
 80049f6:	4293      	cmp	r3, r2
 80049f8:	dd08      	ble.n	8004a0c <_sungetc_r+0x38>
 80049fa:	6823      	ldr	r3, [r4, #0]
 80049fc:	1e5a      	subs	r2, r3, #1
 80049fe:	6022      	str	r2, [r4, #0]
 8004a00:	f803 5c01 	strb.w	r5, [r3, #-1]
 8004a04:	6863      	ldr	r3, [r4, #4]
 8004a06:	3301      	adds	r3, #1
 8004a08:	6063      	str	r3, [r4, #4]
 8004a0a:	e7e9      	b.n	80049e0 <_sungetc_r+0xc>
 8004a0c:	4621      	mov	r1, r4
 8004a0e:	f000 fdd1 	bl	80055b4 <__submore>
 8004a12:	2800      	cmp	r0, #0
 8004a14:	d0f1      	beq.n	80049fa <_sungetc_r+0x26>
 8004a16:	e7e1      	b.n	80049dc <_sungetc_r+0x8>
 8004a18:	6921      	ldr	r1, [r4, #16]
 8004a1a:	6823      	ldr	r3, [r4, #0]
 8004a1c:	b151      	cbz	r1, 8004a34 <_sungetc_r+0x60>
 8004a1e:	4299      	cmp	r1, r3
 8004a20:	d208      	bcs.n	8004a34 <_sungetc_r+0x60>
 8004a22:	f813 1c01 	ldrb.w	r1, [r3, #-1]
 8004a26:	42a9      	cmp	r1, r5
 8004a28:	d104      	bne.n	8004a34 <_sungetc_r+0x60>
 8004a2a:	3b01      	subs	r3, #1
 8004a2c:	3201      	adds	r2, #1
 8004a2e:	6023      	str	r3, [r4, #0]
 8004a30:	6062      	str	r2, [r4, #4]
 8004a32:	e7d5      	b.n	80049e0 <_sungetc_r+0xc>
 8004a34:	e9c4 320f 	strd	r3, r2, [r4, #60]	; 0x3c
 8004a38:	f104 0344 	add.w	r3, r4, #68	; 0x44
 8004a3c:	6363      	str	r3, [r4, #52]	; 0x34
 8004a3e:	2303      	movs	r3, #3
 8004a40:	63a3      	str	r3, [r4, #56]	; 0x38
 8004a42:	4623      	mov	r3, r4
 8004a44:	f803 5f46 	strb.w	r5, [r3, #70]!
 8004a48:	6023      	str	r3, [r4, #0]
 8004a4a:	2301      	movs	r3, #1
 8004a4c:	e7dc      	b.n	8004a08 <_sungetc_r+0x34>

08004a4e <__ssrefill_r>:
 8004a4e:	b510      	push	{r4, lr}
 8004a50:	460c      	mov	r4, r1
 8004a52:	6b49      	ldr	r1, [r1, #52]	; 0x34
 8004a54:	b169      	cbz	r1, 8004a72 <__ssrefill_r+0x24>
 8004a56:	f104 0344 	add.w	r3, r4, #68	; 0x44
 8004a5a:	4299      	cmp	r1, r3
 8004a5c:	d001      	beq.n	8004a62 <__ssrefill_r+0x14>
 8004a5e:	f000 fe0d 	bl	800567c <_free_r>
 8004a62:	6c23      	ldr	r3, [r4, #64]	; 0x40
 8004a64:	6063      	str	r3, [r4, #4]
 8004a66:	2000      	movs	r0, #0
 8004a68:	6360      	str	r0, [r4, #52]	; 0x34
 8004a6a:	b113      	cbz	r3, 8004a72 <__ssrefill_r+0x24>
 8004a6c:	6be3      	ldr	r3, [r4, #60]	; 0x3c
 8004a6e:	6023      	str	r3, [r4, #0]
 8004a70:	bd10      	pop	{r4, pc}
 8004a72:	6923      	ldr	r3, [r4, #16]
 8004a74:	6023      	str	r3, [r4, #0]
 8004a76:	2300      	movs	r3, #0
 8004a78:	6063      	str	r3, [r4, #4]
 8004a7a:	89a3      	ldrh	r3, [r4, #12]
 8004a7c:	f043 0320 	orr.w	r3, r3, #32
 8004a80:	81a3      	strh	r3, [r4, #12]
 8004a82:	f04f 30ff 	mov.w	r0, #4294967295
 8004a86:	e7f3      	b.n	8004a70 <__ssrefill_r+0x22>

08004a88 <__ssvfiscanf_r>:
 8004a88:	e92d 4ff0 	stmdb	sp!, {r4, r5, r6, r7, r8, r9, sl, fp, lr}
 8004a8c:	460c      	mov	r4, r1
 8004a8e:	f5ad 7d23 	sub.w	sp, sp, #652	; 0x28c
 8004a92:	2100      	movs	r1, #0
 8004a94:	e9cd 1144 	strd	r1, r1, [sp, #272]	; 0x110
 8004a98:	49b2      	ldr	r1, [pc, #712]	; (8004d64 <__ssvfiscanf_r+0x2dc>)
 8004a9a:	91a0      	str	r1, [sp, #640]	; 0x280
 8004a9c:	f10d 0804 	add.w	r8, sp, #4
 8004aa0:	49b1      	ldr	r1, [pc, #708]	; (8004d68 <__ssvfiscanf_r+0x2e0>)
 8004aa2:	4fb2      	ldr	r7, [pc, #712]	; (8004d6c <__ssvfiscanf_r+0x2e4>)
 8004aa4:	f8df 92c8 	ldr.w	r9, [pc, #712]	; 8004d70 <__ssvfiscanf_r+0x2e8>
 8004aa8:	f8cd 8118 	str.w	r8, [sp, #280]	; 0x118
 8004aac:	4606      	mov	r6, r0
 8004aae:	91a1      	str	r1, [sp, #644]	; 0x284
 8004ab0:	9300      	str	r3, [sp, #0]
 8004ab2:	f892 a000 	ldrb.w	sl, [r2]
 8004ab6:	f1ba 0f00 	cmp.w	sl, #0
 8004aba:	f000 8151 	beq.w	8004d60 <__ssvfiscanf_r+0x2d8>
 8004abe:	f81a 3007 	ldrb.w	r3, [sl, r7]
 8004ac2:	f013 0308 	ands.w	r3, r3, #8
 8004ac6:	f102 0501 	add.w	r5, r2, #1
 8004aca:	d019      	beq.n	8004b00 <__ssvfiscanf_r+0x78>
 8004acc:	6863      	ldr	r3, [r4, #4]
 8004ace:	2b00      	cmp	r3, #0
 8004ad0:	dd0f      	ble.n	8004af2 <__ssvfiscanf_r+0x6a>
 8004ad2:	6823      	ldr	r3, [r4, #0]
 8004ad4:	781a      	ldrb	r2, [r3, #0]
 8004ad6:	5cba      	ldrb	r2, [r7, r2]
 8004ad8:	0712      	lsls	r2, r2, #28
 8004ada:	d401      	bmi.n	8004ae0 <__ssvfiscanf_r+0x58>
 8004adc:	462a      	mov	r2, r5
 8004ade:	e7e8      	b.n	8004ab2 <__ssvfiscanf_r+0x2a>
 8004ae0:	9a45      	ldr	r2, [sp, #276]	; 0x114
 8004ae2:	3201      	adds	r2, #1
 8004ae4:	9245      	str	r2, [sp, #276]	; 0x114
 8004ae6:	6862      	ldr	r2, [r4, #4]
 8004ae8:	3301      	adds	r3, #1
 8004aea:	3a01      	subs	r2, #1
 8004aec:	6062      	str	r2, [r4, #4]
 8004aee:	6023      	str	r3, [r4, #0]
 8004af0:	e7ec      	b.n	8004acc <__ssvfiscanf_r+0x44>
 8004af2:	9ba1      	ldr	r3, [sp, #644]	; 0x284
 8004af4:	4621      	mov	r1, r4
 8004af6:	4630      	mov	r0, r6
 8004af8:	4798      	blx	r3
 8004afa:	2800      	cmp	r0, #0
 8004afc:	d0e9      	beq.n	8004ad2 <__ssvfiscanf_r+0x4a>
 8004afe:	e7ed      	b.n	8004adc <__ssvfiscanf_r+0x54>
 8004b00:	f1ba 0f25 	cmp.w	sl, #37	; 0x25
 8004b04:	f040 8083 	bne.w	8004c0e <__ssvfiscanf_r+0x186>
 8004b08:	9341      	str	r3, [sp, #260]	; 0x104
 8004b0a:	9343      	str	r3, [sp, #268]	; 0x10c
 8004b0c:	7853      	ldrb	r3, [r2, #1]
 8004b0e:	2b2a      	cmp	r3, #42	; 0x2a
 8004b10:	bf02      	ittt	eq
 8004b12:	2310      	moveq	r3, #16
 8004b14:	1c95      	addeq	r5, r2, #2
 8004b16:	9341      	streq	r3, [sp, #260]	; 0x104
 8004b18:	220a      	movs	r2, #10
 8004b1a:	46ab      	mov	fp, r5
 8004b1c:	f81b 1b01 	ldrb.w	r1, [fp], #1
 8004b20:	f1a1 0330 	sub.w	r3, r1, #48	; 0x30
 8004b24:	2b09      	cmp	r3, #9
 8004b26:	d91d      	bls.n	8004b64 <__ssvfiscanf_r+0xdc>
 8004b28:	4891      	ldr	r0, [pc, #580]	; (8004d70 <__ssvfiscanf_r+0x2e8>)
 8004b2a:	2203      	movs	r2, #3
 8004b2c:	f7fb fb78 	bl	8000220 <memchr>
 8004b30:	b140      	cbz	r0, 8004b44 <__ssvfiscanf_r+0xbc>
 8004b32:	2301      	movs	r3, #1
 8004b34:	eba0 0009 	sub.w	r0, r0, r9
 8004b38:	fa03 f000 	lsl.w	r0, r3, r0
 8004b3c:	9b41      	ldr	r3, [sp, #260]	; 0x104
 8004b3e:	4318      	orrs	r0, r3
 8004b40:	9041      	str	r0, [sp, #260]	; 0x104
 8004b42:	465d      	mov	r5, fp
 8004b44:	f815 3b01 	ldrb.w	r3, [r5], #1
 8004b48:	2b78      	cmp	r3, #120	; 0x78
 8004b4a:	d806      	bhi.n	8004b5a <__ssvfiscanf_r+0xd2>
 8004b4c:	2b57      	cmp	r3, #87	; 0x57
 8004b4e:	d810      	bhi.n	8004b72 <__ssvfiscanf_r+0xea>
 8004b50:	2b25      	cmp	r3, #37	; 0x25
 8004b52:	d05c      	beq.n	8004c0e <__ssvfiscanf_r+0x186>
 8004b54:	d856      	bhi.n	8004c04 <__ssvfiscanf_r+0x17c>
 8004b56:	2b00      	cmp	r3, #0
 8004b58:	d074      	beq.n	8004c44 <__ssvfiscanf_r+0x1bc>
 8004b5a:	2303      	movs	r3, #3
 8004b5c:	9347      	str	r3, [sp, #284]	; 0x11c
 8004b5e:	230a      	movs	r3, #10
 8004b60:	9342      	str	r3, [sp, #264]	; 0x108
 8004b62:	e081      	b.n	8004c68 <__ssvfiscanf_r+0x1e0>
 8004b64:	9b43      	ldr	r3, [sp, #268]	; 0x10c
 8004b66:	fb02 1303 	mla	r3, r2, r3, r1
 8004b6a:	3b30      	subs	r3, #48	; 0x30
 8004b6c:	9343      	str	r3, [sp, #268]	; 0x10c
 8004b6e:	465d      	mov	r5, fp
 8004b70:	e7d3      	b.n	8004b1a <__ssvfiscanf_r+0x92>
 8004b72:	f1a3 0258 	sub.w	r2, r3, #88	; 0x58
 8004b76:	2a20      	cmp	r2, #32
 8004b78:	d8ef      	bhi.n	8004b5a <__ssvfiscanf_r+0xd2>
 8004b7a:	a101      	add	r1, pc, #4	; (adr r1, 8004b80 <__ssvfiscanf_r+0xf8>)
 8004b7c:	f851 f022 	ldr.w	pc, [r1, r2, lsl #2]
 8004b80:	08004c53 	.word	0x08004c53
 8004b84:	08004b5b 	.word	0x08004b5b
 8004b88:	08004b5b 	.word	0x08004b5b
 8004b8c:	08004cb1 	.word	0x08004cb1
 8004b90:	08004b5b 	.word	0x08004b5b
 8004b94:	08004b5b 	.word	0x08004b5b
 8004b98:	08004b5b 	.word	0x08004b5b
 8004b9c:	08004b5b 	.word	0x08004b5b
 8004ba0:	08004b5b 	.word	0x08004b5b
 8004ba4:	08004b5b 	.word	0x08004b5b
 8004ba8:	08004b5b 	.word	0x08004b5b
 8004bac:	08004cc7 	.word	0x08004cc7
 8004bb0:	08004c9d 	.word	0x08004c9d
 8004bb4:	08004c0b 	.word	0x08004c0b
 8004bb8:	08004c0b 	.word	0x08004c0b
 8004bbc:	08004c0b 	.word	0x08004c0b
 8004bc0:	08004b5b 	.word	0x08004b5b
 8004bc4:	08004ca1 	.word	0x08004ca1
 8004bc8:	08004b5b 	.word	0x08004b5b
 8004bcc:	08004b5b 	.word	0x08004b5b
 8004bd0:	08004b5b 	.word	0x08004b5b
 8004bd4:	08004b5b 	.word	0x08004b5b
 8004bd8:	08004cd7 	.word	0x08004cd7
 8004bdc:	08004ca9 	.word	0x08004ca9
 8004be0:	08004c4b 	.word	0x08004c4b
 8004be4:	08004b5b 	.word	0x08004b5b
 8004be8:	08004b5b 	.word	0x08004b5b
 8004bec:	08004cd3 	.word	0x08004cd3
 8004bf0:	08004b5b 	.word	0x08004b5b
 8004bf4:	08004c9d 	.word	0x08004c9d
 8004bf8:	08004b5b 	.word	0x08004b5b
 8004bfc:	08004b5b 	.word	0x08004b5b
 8004c00:	08004c53 	.word	0x08004c53
 8004c04:	3b45      	subs	r3, #69	; 0x45
 8004c06:	2b02      	cmp	r3, #2
 8004c08:	d8a7      	bhi.n	8004b5a <__ssvfiscanf_r+0xd2>
 8004c0a:	2305      	movs	r3, #5
 8004c0c:	e02b      	b.n	8004c66 <__ssvfiscanf_r+0x1de>
 8004c0e:	6863      	ldr	r3, [r4, #4]
 8004c10:	2b00      	cmp	r3, #0
 8004c12:	dd0d      	ble.n	8004c30 <__ssvfiscanf_r+0x1a8>
 8004c14:	6823      	ldr	r3, [r4, #0]
 8004c16:	781a      	ldrb	r2, [r3, #0]
 8004c18:	4552      	cmp	r2, sl
 8004c1a:	f040 80a1 	bne.w	8004d60 <__ssvfiscanf_r+0x2d8>
 8004c1e:	3301      	adds	r3, #1
 8004c20:	6862      	ldr	r2, [r4, #4]
 8004c22:	6023      	str	r3, [r4, #0]
 8004c24:	9b45      	ldr	r3, [sp, #276]	; 0x114
 8004c26:	3a01      	subs	r2, #1
 8004c28:	3301      	adds	r3, #1
 8004c2a:	6062      	str	r2, [r4, #4]
 8004c2c:	9345      	str	r3, [sp, #276]	; 0x114
 8004c2e:	e755      	b.n	8004adc <__ssvfiscanf_r+0x54>
 8004c30:	9ba1      	ldr	r3, [sp, #644]	; 0x284
 8004c32:	4621      	mov	r1, r4
 8004c34:	4630      	mov	r0, r6
 8004c36:	4798      	blx	r3
 8004c38:	2800      	cmp	r0, #0
 8004c3a:	d0eb      	beq.n	8004c14 <__ssvfiscanf_r+0x18c>
 8004c3c:	9844      	ldr	r0, [sp, #272]	; 0x110
 8004c3e:	2800      	cmp	r0, #0
 8004c40:	f040 8084 	bne.w	8004d4c <__ssvfiscanf_r+0x2c4>
 8004c44:	f04f 30ff 	mov.w	r0, #4294967295
 8004c48:	e086      	b.n	8004d58 <__ssvfiscanf_r+0x2d0>
 8004c4a:	9a41      	ldr	r2, [sp, #260]	; 0x104
 8004c4c:	f042 0220 	orr.w	r2, r2, #32
 8004c50:	9241      	str	r2, [sp, #260]	; 0x104
 8004c52:	9a41      	ldr	r2, [sp, #260]	; 0x104
 8004c54:	f442 7200 	orr.w	r2, r2, #512	; 0x200
 8004c58:	9241      	str	r2, [sp, #260]	; 0x104
 8004c5a:	2210      	movs	r2, #16
 8004c5c:	2b6f      	cmp	r3, #111	; 0x6f
 8004c5e:	9242      	str	r2, [sp, #264]	; 0x108
 8004c60:	bf34      	ite	cc
 8004c62:	2303      	movcc	r3, #3
 8004c64:	2304      	movcs	r3, #4
 8004c66:	9347      	str	r3, [sp, #284]	; 0x11c
 8004c68:	6863      	ldr	r3, [r4, #4]
 8004c6a:	2b00      	cmp	r3, #0
 8004c6c:	dd41      	ble.n	8004cf2 <__ssvfiscanf_r+0x26a>
 8004c6e:	9b41      	ldr	r3, [sp, #260]	; 0x104
 8004c70:	0659      	lsls	r1, r3, #25
 8004c72:	d404      	bmi.n	8004c7e <__ssvfiscanf_r+0x1f6>
 8004c74:	6823      	ldr	r3, [r4, #0]
 8004c76:	781a      	ldrb	r2, [r3, #0]
 8004c78:	5cba      	ldrb	r2, [r7, r2]
 8004c7a:	0712      	lsls	r2, r2, #28
 8004c7c:	d440      	bmi.n	8004d00 <__ssvfiscanf_r+0x278>
 8004c7e:	9b47      	ldr	r3, [sp, #284]	; 0x11c
 8004c80:	2b02      	cmp	r3, #2
 8004c82:	dc4f      	bgt.n	8004d24 <__ssvfiscanf_r+0x29c>
 8004c84:	466b      	mov	r3, sp
 8004c86:	4622      	mov	r2, r4
 8004c88:	a941      	add	r1, sp, #260	; 0x104
 8004c8a:	4630      	mov	r0, r6
 8004c8c:	f000 fa08 	bl	80050a0 <_scanf_chars>
 8004c90:	2801      	cmp	r0, #1
 8004c92:	d065      	beq.n	8004d60 <__ssvfiscanf_r+0x2d8>
 8004c94:	2802      	cmp	r0, #2
 8004c96:	f47f af21 	bne.w	8004adc <__ssvfiscanf_r+0x54>
 8004c9a:	e7cf      	b.n	8004c3c <__ssvfiscanf_r+0x1b4>
 8004c9c:	220a      	movs	r2, #10
 8004c9e:	e7dd      	b.n	8004c5c <__ssvfiscanf_r+0x1d4>
 8004ca0:	2300      	movs	r3, #0
 8004ca2:	9342      	str	r3, [sp, #264]	; 0x108
 8004ca4:	2303      	movs	r3, #3
 8004ca6:	e7de      	b.n	8004c66 <__ssvfiscanf_r+0x1de>
 8004ca8:	2308      	movs	r3, #8
 8004caa:	9342      	str	r3, [sp, #264]	; 0x108
 8004cac:	2304      	movs	r3, #4
 8004cae:	e7da      	b.n	8004c66 <__ssvfiscanf_r+0x1de>
 8004cb0:	4629      	mov	r1, r5
 8004cb2:	4640      	mov	r0, r8
 8004cb4:	f000 fb40 	bl	8005338 <__sccl>
 8004cb8:	9b41      	ldr	r3, [sp, #260]	; 0x104
 8004cba:	f043 0340 	orr.w	r3, r3, #64	; 0x40
 8004cbe:	9341      	str	r3, [sp, #260]	; 0x104
 8004cc0:	4605      	mov	r5, r0
 8004cc2:	2301      	movs	r3, #1
 8004cc4:	e7cf      	b.n	8004c66 <__ssvfiscanf_r+0x1de>
 8004cc6:	9b41      	ldr	r3, [sp, #260]	; 0x104
 8004cc8:	f043 0340 	orr.w	r3, r3, #64	; 0x40
 8004ccc:	9341      	str	r3, [sp, #260]	; 0x104
 8004cce:	2300      	movs	r3, #0
 8004cd0:	e7c9      	b.n	8004c66 <__ssvfiscanf_r+0x1de>
 8004cd2:	2302      	movs	r3, #2
 8004cd4:	e7c7      	b.n	8004c66 <__ssvfiscanf_r+0x1de>
 8004cd6:	9841      	ldr	r0, [sp, #260]	; 0x104
 8004cd8:	06c3      	lsls	r3, r0, #27
 8004cda:	f53f aeff 	bmi.w	8004adc <__ssvfiscanf_r+0x54>
 8004cde:	9b00      	ldr	r3, [sp, #0]
 8004ce0:	9a45      	ldr	r2, [sp, #276]	; 0x114
 8004ce2:	1d19      	adds	r1, r3, #4
 8004ce4:	9100      	str	r1, [sp, #0]
 8004ce6:	681b      	ldr	r3, [r3, #0]
 8004ce8:	07c0      	lsls	r0, r0, #31
 8004cea:	bf4c      	ite	mi
 8004cec:	801a      	strhmi	r2, [r3, #0]
 8004cee:	601a      	strpl	r2, [r3, #0]
 8004cf0:	e6f4      	b.n	8004adc <__ssvfiscanf_r+0x54>
 8004cf2:	9ba1      	ldr	r3, [sp, #644]	; 0x284
 8004cf4:	4621      	mov	r1, r4
 8004cf6:	4630      	mov	r0, r6
 8004cf8:	4798      	blx	r3
 8004cfa:	2800      	cmp	r0, #0
 8004cfc:	d0b7      	beq.n	8004c6e <__ssvfiscanf_r+0x1e6>
 8004cfe:	e79d      	b.n	8004c3c <__ssvfiscanf_r+0x1b4>
 8004d00:	9a45      	ldr	r2, [sp, #276]	; 0x114
 8004d02:	3201      	adds	r2, #1
 8004d04:	9245      	str	r2, [sp, #276]	; 0x114
 8004d06:	6862      	ldr	r2, [r4, #4]
 8004d08:	3a01      	subs	r2, #1
 8004d0a:	2a00      	cmp	r2, #0
 8004d0c:	6062      	str	r2, [r4, #4]
 8004d0e:	dd02      	ble.n	8004d16 <__ssvfiscanf_r+0x28e>
 8004d10:	3301      	adds	r3, #1
 8004d12:	6023      	str	r3, [r4, #0]
 8004d14:	e7ae      	b.n	8004c74 <__ssvfiscanf_r+0x1ec>
 8004d16:	9ba1      	ldr	r3, [sp, #644]	; 0x284
 8004d18:	4621      	mov	r1, r4
 8004d1a:	4630      	mov	r0, r6
 8004d1c:	4798      	blx	r3
 8004d1e:	2800      	cmp	r0, #0
 8004d20:	d0a8      	beq.n	8004c74 <__ssvfiscanf_r+0x1ec>
 8004d22:	e78b      	b.n	8004c3c <__ssvfiscanf_r+0x1b4>
 8004d24:	2b04      	cmp	r3, #4
 8004d26:	dc06      	bgt.n	8004d36 <__ssvfiscanf_r+0x2ae>
 8004d28:	466b      	mov	r3, sp
 8004d2a:	4622      	mov	r2, r4
 8004d2c:	a941      	add	r1, sp, #260	; 0x104
 8004d2e:	4630      	mov	r0, r6
 8004d30:	f000 fa0e 	bl	8005150 <_scanf_i>
 8004d34:	e7ac      	b.n	8004c90 <__ssvfiscanf_r+0x208>
 8004d36:	4b0f      	ldr	r3, [pc, #60]	; (8004d74 <__ssvfiscanf_r+0x2ec>)
 8004d38:	2b00      	cmp	r3, #0
 8004d3a:	f43f aecf 	beq.w	8004adc <__ssvfiscanf_r+0x54>
 8004d3e:	466b      	mov	r3, sp
 8004d40:	4622      	mov	r2, r4
 8004d42:	a941      	add	r1, sp, #260	; 0x104
 8004d44:	4630      	mov	r0, r6
 8004d46:	f3af 8000 	nop.w
 8004d4a:	e7a1      	b.n	8004c90 <__ssvfiscanf_r+0x208>
 8004d4c:	89a3      	ldrh	r3, [r4, #12]
 8004d4e:	f013 0f40 	tst.w	r3, #64	; 0x40
 8004d52:	bf18      	it	ne
 8004d54:	f04f 30ff 	movne.w	r0, #4294967295
 8004d58:	f50d 7d23 	add.w	sp, sp, #652	; 0x28c
 8004d5c:	e8bd 8ff0 	ldmia.w	sp!, {r4, r5, r6, r7, r8, r9, sl, fp, pc}
 8004d60:	9844      	ldr	r0, [sp, #272]	; 0x110
 8004d62:	e7f9      	b.n	8004d58 <__ssvfiscanf_r+0x2d0>
 8004d64:	080049d5 	.word	0x080049d5
 8004d68:	08004a4f 	.word	0x08004a4f
 8004d6c:	08005947 	.word	0x08005947
 8004d70:	080058fe 	.word	0x080058fe
 8004d74:	00000000 	.word	0x00000000

08004d78 <_printf_common>:
 8004d78:	e92d 47f0 	stmdb	sp!, {r4, r5, r6, r7, r8, r9, sl, lr}
 8004d7c:	4616      	mov	r6, r2
 8004d7e:	4699      	mov	r9, r3
 8004d80:	688a      	ldr	r2, [r1, #8]
 8004d82:	690b      	ldr	r3, [r1, #16]
 8004d84:	f8dd 8020 	ldr.w	r8, [sp, #32]
 8004d88:	4293      	cmp	r3, r2
 8004d8a:	bfb8      	it	lt
 8004d8c:	4613      	movlt	r3, r2
 8004d8e:	6033      	str	r3, [r6, #0]
 8004d90:	f891 2043 	ldrb.w	r2, [r1, #67]	; 0x43
 8004d94:	4607      	mov	r7, r0
 8004d96:	460c      	mov	r4, r1
 8004d98:	b10a      	cbz	r2, 8004d9e <_printf_common+0x26>
 8004d9a:	3301      	adds	r3, #1
 8004d9c:	6033      	str	r3, [r6, #0]
 8004d9e:	6823      	ldr	r3, [r4, #0]
 8004da0:	0699      	lsls	r1, r3, #26
 8004da2:	bf42      	ittt	mi
 8004da4:	6833      	ldrmi	r3, [r6, #0]
 8004da6:	3302      	addmi	r3, #2
 8004da8:	6033      	strmi	r3, [r6, #0]
 8004daa:	6825      	ldr	r5, [r4, #0]
 8004dac:	f015 0506 	ands.w	r5, r5, #6
 8004db0:	d106      	bne.n	8004dc0 <_printf_common+0x48>
 8004db2:	f104 0a19 	add.w	sl, r4, #25
 8004db6:	68e3      	ldr	r3, [r4, #12]
 8004db8:	6832      	ldr	r2, [r6, #0]
 8004dba:	1a9b      	subs	r3, r3, r2
 8004dbc:	42ab      	cmp	r3, r5
 8004dbe:	dc26      	bgt.n	8004e0e <_printf_common+0x96>
 8004dc0:	f894 2043 	ldrb.w	r2, [r4, #67]	; 0x43
 8004dc4:	1e13      	subs	r3, r2, #0
 8004dc6:	6822      	ldr	r2, [r4, #0]
 8004dc8:	bf18      	it	ne
 8004dca:	2301      	movne	r3, #1
 8004dcc:	0692      	lsls	r2, r2, #26
 8004dce:	d42b      	bmi.n	8004e28 <_printf_common+0xb0>
 8004dd0:	f104 0243 	add.w	r2, r4, #67	; 0x43
 8004dd4:	4649      	mov	r1, r9
 8004dd6:	4638      	mov	r0, r7
 8004dd8:	47c0      	blx	r8
 8004dda:	3001      	adds	r0, #1
 8004ddc:	d01e      	beq.n	8004e1c <_printf_common+0xa4>
 8004dde:	6823      	ldr	r3, [r4, #0]
 8004de0:	68e5      	ldr	r5, [r4, #12]
 8004de2:	6832      	ldr	r2, [r6, #0]
 8004de4:	f003 0306 	and.w	r3, r3, #6
 8004de8:	2b04      	cmp	r3, #4
 8004dea:	bf08      	it	eq
 8004dec:	1aad      	subeq	r5, r5, r2
 8004dee:	68a3      	ldr	r3, [r4, #8]
 8004df0:	6922      	ldr	r2, [r4, #16]
 8004df2:	bf0c      	ite	eq
 8004df4:	ea25 75e5 	biceq.w	r5, r5, r5, asr #31
 8004df8:	2500      	movne	r5, #0
 8004dfa:	4293      	cmp	r3, r2
 8004dfc:	bfc4      	itt	gt
 8004dfe:	1a9b      	subgt	r3, r3, r2
 8004e00:	18ed      	addgt	r5, r5, r3
 8004e02:	2600      	movs	r6, #0
 8004e04:	341a      	adds	r4, #26
 8004e06:	42b5      	cmp	r5, r6
 8004e08:	d11a      	bne.n	8004e40 <_printf_common+0xc8>
 8004e0a:	2000      	movs	r0, #0
 8004e0c:	e008      	b.n	8004e20 <_printf_common+0xa8>
 8004e0e:	2301      	movs	r3, #1
 8004e10:	4652      	mov	r2, sl
 8004e12:	4649      	mov	r1, r9
 8004e14:	4638      	mov	r0, r7
 8004e16:	47c0      	blx	r8
 8004e18:	3001      	adds	r0, #1
 8004e1a:	d103      	bne.n	8004e24 <_printf_common+0xac>
 8004e1c:	f04f 30ff 	mov.w	r0, #4294967295
 8004e20:	e8bd 87f0 	ldmia.w	sp!, {r4, r5, r6, r7, r8, r9, sl, pc}
 8004e24:	3501      	adds	r5, #1
 8004e26:	e7c6      	b.n	8004db6 <_printf_common+0x3e>
 8004e28:	18e1      	adds	r1, r4, r3
 8004e2a:	1c5a      	adds	r2, r3, #1
 8004e2c:	2030      	movs	r0, #48	; 0x30
 8004e2e:	f881 0043 	strb.w	r0, [r1, #67]	; 0x43
 8004e32:	4422      	add	r2, r4
 8004e34:	f894 1045 	ldrb.w	r1, [r4, #69]	; 0x45
 8004e38:	f882 1043 	strb.w	r1, [r2, #67]	; 0x43
 8004e3c:	3302      	adds	r3, #2
 8004e3e:	e7c7      	b.n	8004dd0 <_printf_common+0x58>
 8004e40:	2301      	movs	r3, #1
 8004e42:	4622      	mov	r2, r4
 8004e44:	4649      	mov	r1, r9
 8004e46:	4638      	mov	r0, r7
 8004e48:	47c0      	blx	r8
 8004e4a:	3001      	adds	r0, #1
 8004e4c:	d0e6      	beq.n	8004e1c <_printf_common+0xa4>
 8004e4e:	3601      	adds	r6, #1
 8004e50:	e7d9      	b.n	8004e06 <_printf_common+0x8e>
	...

08004e54 <_printf_i>:
 8004e54:	e92d 47ff 	stmdb	sp!, {r0, r1, r2, r3, r4, r5, r6, r7, r8, r9, sl, lr}
 8004e58:	460c      	mov	r4, r1
 8004e5a:	4691      	mov	r9, r2
 8004e5c:	7e27      	ldrb	r7, [r4, #24]
 8004e5e:	990c      	ldr	r1, [sp, #48]	; 0x30
 8004e60:	2f78      	cmp	r7, #120	; 0x78
 8004e62:	4680      	mov	r8, r0
 8004e64:	469a      	mov	sl, r3
 8004e66:	f104 0243 	add.w	r2, r4, #67	; 0x43
 8004e6a:	d807      	bhi.n	8004e7c <_printf_i+0x28>
 8004e6c:	2f62      	cmp	r7, #98	; 0x62
 8004e6e:	d80a      	bhi.n	8004e86 <_printf_i+0x32>
 8004e70:	2f00      	cmp	r7, #0
 8004e72:	f000 80d8 	beq.w	8005026 <_printf_i+0x1d2>
 8004e76:	2f58      	cmp	r7, #88	; 0x58
 8004e78:	f000 80a3 	beq.w	8004fc2 <_printf_i+0x16e>
 8004e7c:	f104 0642 	add.w	r6, r4, #66	; 0x42
 8004e80:	f884 7042 	strb.w	r7, [r4, #66]	; 0x42
 8004e84:	e03a      	b.n	8004efc <_printf_i+0xa8>
 8004e86:	f1a7 0363 	sub.w	r3, r7, #99	; 0x63
 8004e8a:	2b15      	cmp	r3, #21
 8004e8c:	d8f6      	bhi.n	8004e7c <_printf_i+0x28>
 8004e8e:	a001      	add	r0, pc, #4	; (adr r0, 8004e94 <_printf_i+0x40>)
 8004e90:	f850 f023 	ldr.w	pc, [r0, r3, lsl #2]
 8004e94:	08004eed 	.word	0x08004eed
 8004e98:	08004f01 	.word	0x08004f01
 8004e9c:	08004e7d 	.word	0x08004e7d
 8004ea0:	08004e7d 	.word	0x08004e7d
 8004ea4:	08004e7d 	.word	0x08004e7d
 8004ea8:	08004e7d 	.word	0x08004e7d
 8004eac:	08004f01 	.word	0x08004f01
 8004eb0:	08004e7d 	.word	0x08004e7d
 8004eb4:	08004e7d 	.word	0x08004e7d
 8004eb8:	08004e7d 	.word	0x08004e7d
 8004ebc:	08004e7d 	.word	0x08004e7d
 8004ec0:	0800500d 	.word	0x0800500d
 8004ec4:	08004f31 	.word	0x08004f31
 8004ec8:	08004fef 	.word	0x08004fef
 8004ecc:	08004e7d 	.word	0x08004e7d
 8004ed0:	08004e7d 	.word	0x08004e7d
 8004ed4:	0800502f 	.word	0x0800502f
 8004ed8:	08004e7d 	.word	0x08004e7d
 8004edc:	08004f31 	.word	0x08004f31
 8004ee0:	08004e7d 	.word	0x08004e7d
 8004ee4:	08004e7d 	.word	0x08004e7d
 8004ee8:	08004ff7 	.word	0x08004ff7
 8004eec:	680b      	ldr	r3, [r1, #0]
 8004eee:	1d1a      	adds	r2, r3, #4
 8004ef0:	681b      	ldr	r3, [r3, #0]
 8004ef2:	600a      	str	r2, [r1, #0]
 8004ef4:	f104 0642 	add.w	r6, r4, #66	; 0x42
 8004ef8:	f884 3042 	strb.w	r3, [r4, #66]	; 0x42
 8004efc:	2301      	movs	r3, #1
 8004efe:	e0a3      	b.n	8005048 <_printf_i+0x1f4>
 8004f00:	6825      	ldr	r5, [r4, #0]
 8004f02:	6808      	ldr	r0, [r1, #0]
 8004f04:	062e      	lsls	r6, r5, #24
 8004f06:	f100 0304 	add.w	r3, r0, #4
 8004f0a:	d50a      	bpl.n	8004f22 <_printf_i+0xce>
 8004f0c:	6805      	ldr	r5, [r0, #0]
 8004f0e:	600b      	str	r3, [r1, #0]
 8004f10:	2d00      	cmp	r5, #0
 8004f12:	da03      	bge.n	8004f1c <_printf_i+0xc8>
 8004f14:	232d      	movs	r3, #45	; 0x2d
 8004f16:	426d      	negs	r5, r5
 8004f18:	f884 3043 	strb.w	r3, [r4, #67]	; 0x43
 8004f1c:	485e      	ldr	r0, [pc, #376]	; (8005098 <_printf_i+0x244>)
 8004f1e:	230a      	movs	r3, #10
 8004f20:	e019      	b.n	8004f56 <_printf_i+0x102>
 8004f22:	f015 0f40 	tst.w	r5, #64	; 0x40
 8004f26:	6805      	ldr	r5, [r0, #0]
 8004f28:	600b      	str	r3, [r1, #0]
 8004f2a:	bf18      	it	ne
 8004f2c:	b22d      	sxthne	r5, r5
 8004f2e:	e7ef      	b.n	8004f10 <_printf_i+0xbc>
 8004f30:	680b      	ldr	r3, [r1, #0]
 8004f32:	6825      	ldr	r5, [r4, #0]
 8004f34:	1d18      	adds	r0, r3, #4
 8004f36:	6008      	str	r0, [r1, #0]
 8004f38:	0628      	lsls	r0, r5, #24
 8004f3a:	d501      	bpl.n	8004f40 <_printf_i+0xec>
 8004f3c:	681d      	ldr	r5, [r3, #0]
 8004f3e:	e002      	b.n	8004f46 <_printf_i+0xf2>
 8004f40:	0669      	lsls	r1, r5, #25
 8004f42:	d5fb      	bpl.n	8004f3c <_printf_i+0xe8>
 8004f44:	881d      	ldrh	r5, [r3, #0]
 8004f46:	4854      	ldr	r0, [pc, #336]	; (8005098 <_printf_i+0x244>)
 8004f48:	2f6f      	cmp	r7, #111	; 0x6f
 8004f4a:	bf0c      	ite	eq
 8004f4c:	2308      	moveq	r3, #8
 8004f4e:	230a      	movne	r3, #10
 8004f50:	2100      	movs	r1, #0
 8004f52:	f884 1043 	strb.w	r1, [r4, #67]	; 0x43
 8004f56:	6866      	ldr	r6, [r4, #4]
 8004f58:	60a6      	str	r6, [r4, #8]
 8004f5a:	2e00      	cmp	r6, #0
 8004f5c:	bfa2      	ittt	ge
 8004f5e:	6821      	ldrge	r1, [r4, #0]
 8004f60:	f021 0104 	bicge.w	r1, r1, #4
 8004f64:	6021      	strge	r1, [r4, #0]
 8004f66:	b90d      	cbnz	r5, 8004f6c <_printf_i+0x118>
 8004f68:	2e00      	cmp	r6, #0
 8004f6a:	d04d      	beq.n	8005008 <_printf_i+0x1b4>
 8004f6c:	4616      	mov	r6, r2
 8004f6e:	fbb5 f1f3 	udiv	r1, r5, r3
 8004f72:	fb03 5711 	mls	r7, r3, r1, r5
 8004f76:	5dc7      	ldrb	r7, [r0, r7]
 8004f78:	f806 7d01 	strb.w	r7, [r6, #-1]!
 8004f7c:	462f      	mov	r7, r5
 8004f7e:	42bb      	cmp	r3, r7
 8004f80:	460d      	mov	r5, r1
 8004f82:	d9f4      	bls.n	8004f6e <_printf_i+0x11a>
 8004f84:	2b08      	cmp	r3, #8
 8004f86:	d10b      	bne.n	8004fa0 <_printf_i+0x14c>
 8004f88:	6823      	ldr	r3, [r4, #0]
 8004f8a:	07df      	lsls	r7, r3, #31
 8004f8c:	d508      	bpl.n	8004fa0 <_printf_i+0x14c>
 8004f8e:	6923      	ldr	r3, [r4, #16]
 8004f90:	6861      	ldr	r1, [r4, #4]
 8004f92:	4299      	cmp	r1, r3
 8004f94:	bfde      	ittt	le
 8004f96:	2330      	movle	r3, #48	; 0x30
 8004f98:	f806 3c01 	strble.w	r3, [r6, #-1]
 8004f9c:	f106 36ff 	addle.w	r6, r6, #4294967295
 8004fa0:	1b92      	subs	r2, r2, r6
 8004fa2:	6122      	str	r2, [r4, #16]
 8004fa4:	f8cd a000 	str.w	sl, [sp]
 8004fa8:	464b      	mov	r3, r9
 8004faa:	aa03      	add	r2, sp, #12
 8004fac:	4621      	mov	r1, r4
 8004fae:	4640      	mov	r0, r8
 8004fb0:	f7ff fee2 	bl	8004d78 <_printf_common>
 8004fb4:	3001      	adds	r0, #1
 8004fb6:	d14c      	bne.n	8005052 <_printf_i+0x1fe>
 8004fb8:	f04f 30ff 	mov.w	r0, #4294967295
 8004fbc:	b004      	add	sp, #16
 8004fbe:	e8bd 87f0 	ldmia.w	sp!, {r4, r5, r6, r7, r8, r9, sl, pc}
 8004fc2:	4835      	ldr	r0, [pc, #212]	; (8005098 <_printf_i+0x244>)
 8004fc4:	f884 7045 	strb.w	r7, [r4, #69]	; 0x45
 8004fc8:	6823      	ldr	r3, [r4, #0]
 8004fca:	680e      	ldr	r6, [r1, #0]
 8004fcc:	061f      	lsls	r7, r3, #24
 8004fce:	f856 5b04 	ldr.w	r5, [r6], #4
 8004fd2:	600e      	str	r6, [r1, #0]
 8004fd4:	d514      	bpl.n	8005000 <_printf_i+0x1ac>
 8004fd6:	07d9      	lsls	r1, r3, #31
 8004fd8:	bf44      	itt	mi
 8004fda:	f043 0320 	orrmi.w	r3, r3, #32
 8004fde:	6023      	strmi	r3, [r4, #0]
 8004fe0:	b91d      	cbnz	r5, 8004fea <_printf_i+0x196>
 8004fe2:	6823      	ldr	r3, [r4, #0]
 8004fe4:	f023 0320 	bic.w	r3, r3, #32
 8004fe8:	6023      	str	r3, [r4, #0]
 8004fea:	2310      	movs	r3, #16
 8004fec:	e7b0      	b.n	8004f50 <_printf_i+0xfc>
 8004fee:	6823      	ldr	r3, [r4, #0]
 8004ff0:	f043 0320 	orr.w	r3, r3, #32
 8004ff4:	6023      	str	r3, [r4, #0]
 8004ff6:	2378      	movs	r3, #120	; 0x78
 8004ff8:	4828      	ldr	r0, [pc, #160]	; (800509c <_printf_i+0x248>)
 8004ffa:	f884 3045 	strb.w	r3, [r4, #69]	; 0x45
 8004ffe:	e7e3      	b.n	8004fc8 <_printf_i+0x174>
 8005000:	065e      	lsls	r6, r3, #25
 8005002:	bf48      	it	mi
 8005004:	b2ad      	uxthmi	r5, r5
 8005006:	e7e6      	b.n	8004fd6 <_printf_i+0x182>
 8005008:	4616      	mov	r6, r2
 800500a:	e7bb      	b.n	8004f84 <_printf_i+0x130>
 800500c:	680b      	ldr	r3, [r1, #0]
 800500e:	6826      	ldr	r6, [r4, #0]
 8005010:	6960      	ldr	r0, [r4, #20]
 8005012:	1d1d      	adds	r5, r3, #4
 8005014:	600d      	str	r5, [r1, #0]
 8005016:	0635      	lsls	r5, r6, #24
 8005018:	681b      	ldr	r3, [r3, #0]
 800501a:	d501      	bpl.n	8005020 <_printf_i+0x1cc>
 800501c:	6018      	str	r0, [r3, #0]
 800501e:	e002      	b.n	8005026 <_printf_i+0x1d2>
 8005020:	0671      	lsls	r1, r6, #25
 8005022:	d5fb      	bpl.n	800501c <_printf_i+0x1c8>
 8005024:	8018      	strh	r0, [r3, #0]
 8005026:	2300      	movs	r3, #0
 8005028:	6123      	str	r3, [r4, #16]
 800502a:	4616      	mov	r6, r2
 800502c:	e7ba      	b.n	8004fa4 <_printf_i+0x150>
 800502e:	680b      	ldr	r3, [r1, #0]
 8005030:	1d1a      	adds	r2, r3, #4
 8005032:	600a      	str	r2, [r1, #0]
 8005034:	681e      	ldr	r6, [r3, #0]
 8005036:	6862      	ldr	r2, [r4, #4]
 8005038:	2100      	movs	r1, #0
 800503a:	4630      	mov	r0, r6
 800503c:	f7fb f8f0 	bl	8000220 <memchr>
 8005040:	b108      	cbz	r0, 8005046 <_printf_i+0x1f2>
 8005042:	1b80      	subs	r0, r0, r6
 8005044:	6060      	str	r0, [r4, #4]
 8005046:	6863      	ldr	r3, [r4, #4]
 8005048:	6123      	str	r3, [r4, #16]
 800504a:	2300      	movs	r3, #0
 800504c:	f884 3043 	strb.w	r3, [r4, #67]	; 0x43
 8005050:	e7a8      	b.n	8004fa4 <_printf_i+0x150>
 8005052:	6923      	ldr	r3, [r4, #16]
 8005054:	4632      	mov	r2, r6
 8005056:	4649      	mov	r1, r9
 8005058:	4640      	mov	r0, r8
 800505a:	47d0      	blx	sl
 800505c:	3001      	adds	r0, #1
 800505e:	d0ab      	beq.n	8004fb8 <_printf_i+0x164>
 8005060:	6823      	ldr	r3, [r4, #0]
 8005062:	079b      	lsls	r3, r3, #30
 8005064:	d413      	bmi.n	800508e <_printf_i+0x23a>
 8005066:	68e0      	ldr	r0, [r4, #12]
 8005068:	9b03      	ldr	r3, [sp, #12]
 800506a:	4298      	cmp	r0, r3
 800506c:	bfb8      	it	lt
 800506e:	4618      	movlt	r0, r3
 8005070:	e7a4      	b.n	8004fbc <_printf_i+0x168>
 8005072:	2301      	movs	r3, #1
 8005074:	4632      	mov	r2, r6
 8005076:	4649      	mov	r1, r9
 8005078:	4640      	mov	r0, r8
 800507a:	47d0      	blx	sl
 800507c:	3001      	adds	r0, #1
 800507e:	d09b      	beq.n	8004fb8 <_printf_i+0x164>
 8005080:	3501      	adds	r5, #1
 8005082:	68e3      	ldr	r3, [r4, #12]
 8005084:	9903      	ldr	r1, [sp, #12]
 8005086:	1a5b      	subs	r3, r3, r1
 8005088:	42ab      	cmp	r3, r5
 800508a:	dcf2      	bgt.n	8005072 <_printf_i+0x21e>
 800508c:	e7eb      	b.n	8005066 <_printf_i+0x212>
 800508e:	2500      	movs	r5, #0
 8005090:	f104 0619 	add.w	r6, r4, #25
 8005094:	e7f5      	b.n	8005082 <_printf_i+0x22e>
 8005096:	bf00      	nop
 8005098:	08005909 	.word	0x08005909
 800509c:	0800591a 	.word	0x0800591a

080050a0 <_scanf_chars>:
 80050a0:	e92d 43f8 	stmdb	sp!, {r3, r4, r5, r6, r7, r8, r9, lr}
 80050a4:	4615      	mov	r5, r2
 80050a6:	688a      	ldr	r2, [r1, #8]
 80050a8:	4680      	mov	r8, r0
 80050aa:	460c      	mov	r4, r1
 80050ac:	b932      	cbnz	r2, 80050bc <_scanf_chars+0x1c>
 80050ae:	698a      	ldr	r2, [r1, #24]
 80050b0:	2a00      	cmp	r2, #0
 80050b2:	bf0c      	ite	eq
 80050b4:	2201      	moveq	r2, #1
 80050b6:	f04f 32ff 	movne.w	r2, #4294967295
 80050ba:	608a      	str	r2, [r1, #8]
 80050bc:	6822      	ldr	r2, [r4, #0]
 80050be:	f8df 908c 	ldr.w	r9, [pc, #140]	; 800514c <_scanf_chars+0xac>
 80050c2:	06d1      	lsls	r1, r2, #27
 80050c4:	bf5f      	itttt	pl
 80050c6:	681a      	ldrpl	r2, [r3, #0]
 80050c8:	1d11      	addpl	r1, r2, #4
 80050ca:	6019      	strpl	r1, [r3, #0]
 80050cc:	6816      	ldrpl	r6, [r2, #0]
 80050ce:	2700      	movs	r7, #0
 80050d0:	69a0      	ldr	r0, [r4, #24]
 80050d2:	b188      	cbz	r0, 80050f8 <_scanf_chars+0x58>
 80050d4:	2801      	cmp	r0, #1
 80050d6:	d107      	bne.n	80050e8 <_scanf_chars+0x48>
 80050d8:	682b      	ldr	r3, [r5, #0]
 80050da:	781a      	ldrb	r2, [r3, #0]
 80050dc:	6963      	ldr	r3, [r4, #20]
 80050de:	5c9b      	ldrb	r3, [r3, r2]
 80050e0:	b953      	cbnz	r3, 80050f8 <_scanf_chars+0x58>
 80050e2:	bb27      	cbnz	r7, 800512e <_scanf_chars+0x8e>
 80050e4:	e8bd 83f8 	ldmia.w	sp!, {r3, r4, r5, r6, r7, r8, r9, pc}
 80050e8:	2802      	cmp	r0, #2
 80050ea:	d120      	bne.n	800512e <_scanf_chars+0x8e>
 80050ec:	682b      	ldr	r3, [r5, #0]
 80050ee:	781b      	ldrb	r3, [r3, #0]
 80050f0:	f813 3009 	ldrb.w	r3, [r3, r9]
 80050f4:	071b      	lsls	r3, r3, #28
 80050f6:	d41a      	bmi.n	800512e <_scanf_chars+0x8e>
 80050f8:	6823      	ldr	r3, [r4, #0]
 80050fa:	06da      	lsls	r2, r3, #27
 80050fc:	bf5e      	ittt	pl
 80050fe:	682b      	ldrpl	r3, [r5, #0]
 8005100:	781b      	ldrbpl	r3, [r3, #0]
 8005102:	f806 3b01 	strbpl.w	r3, [r6], #1
 8005106:	682a      	ldr	r2, [r5, #0]
 8005108:	686b      	ldr	r3, [r5, #4]
 800510a:	3201      	adds	r2, #1
 800510c:	602a      	str	r2, [r5, #0]
 800510e:	68a2      	ldr	r2, [r4, #8]
 8005110:	3b01      	subs	r3, #1
 8005112:	3a01      	subs	r2, #1
 8005114:	606b      	str	r3, [r5, #4]
 8005116:	3701      	adds	r7, #1
 8005118:	60a2      	str	r2, [r4, #8]
 800511a:	b142      	cbz	r2, 800512e <_scanf_chars+0x8e>
 800511c:	2b00      	cmp	r3, #0
 800511e:	dcd7      	bgt.n	80050d0 <_scanf_chars+0x30>
 8005120:	f8d4 3180 	ldr.w	r3, [r4, #384]	; 0x180
 8005124:	4629      	mov	r1, r5
 8005126:	4640      	mov	r0, r8
 8005128:	4798      	blx	r3
 800512a:	2800      	cmp	r0, #0
 800512c:	d0d0      	beq.n	80050d0 <_scanf_chars+0x30>
 800512e:	6823      	ldr	r3, [r4, #0]
 8005130:	f013 0310 	ands.w	r3, r3, #16
 8005134:	d105      	bne.n	8005142 <_scanf_chars+0xa2>
 8005136:	68e2      	ldr	r2, [r4, #12]
 8005138:	3201      	adds	r2, #1
 800513a:	60e2      	str	r2, [r4, #12]
 800513c:	69a2      	ldr	r2, [r4, #24]
 800513e:	b102      	cbz	r2, 8005142 <_scanf_chars+0xa2>
 8005140:	7033      	strb	r3, [r6, #0]
 8005142:	6923      	ldr	r3, [r4, #16]
 8005144:	441f      	add	r7, r3
 8005146:	6127      	str	r7, [r4, #16]
 8005148:	2000      	movs	r0, #0
 800514a:	e7cb      	b.n	80050e4 <_scanf_chars+0x44>
 800514c:	08005947 	.word	0x08005947

08005150 <_scanf_i>:
 8005150:	e92d 4ff0 	stmdb	sp!, {r4, r5, r6, r7, r8, r9, sl, fp, lr}
 8005154:	4698      	mov	r8, r3
 8005156:	4b74      	ldr	r3, [pc, #464]	; (8005328 <_scanf_i+0x1d8>)
 8005158:	460c      	mov	r4, r1
 800515a:	4682      	mov	sl, r0
 800515c:	4616      	mov	r6, r2
 800515e:	e893 0007 	ldmia.w	r3, {r0, r1, r2}
 8005162:	b087      	sub	sp, #28
 8005164:	ab03      	add	r3, sp, #12
 8005166:	e883 0007 	stmia.w	r3, {r0, r1, r2}
 800516a:	4b70      	ldr	r3, [pc, #448]	; (800532c <_scanf_i+0x1dc>)
 800516c:	69a1      	ldr	r1, [r4, #24]
 800516e:	4a70      	ldr	r2, [pc, #448]	; (8005330 <_scanf_i+0x1e0>)
 8005170:	2903      	cmp	r1, #3
 8005172:	bf18      	it	ne
 8005174:	461a      	movne	r2, r3
 8005176:	68a3      	ldr	r3, [r4, #8]
 8005178:	9201      	str	r2, [sp, #4]
 800517a:	1e5a      	subs	r2, r3, #1
 800517c:	f5b2 7fae 	cmp.w	r2, #348	; 0x15c
 8005180:	bf88      	it	hi
 8005182:	f46f 75ae 	mvnhi.w	r5, #348	; 0x15c
 8005186:	4627      	mov	r7, r4
 8005188:	bf82      	ittt	hi
 800518a:	eb03 0905 	addhi.w	r9, r3, r5
 800518e:	f240 135d 	movwhi	r3, #349	; 0x15d
 8005192:	60a3      	strhi	r3, [r4, #8]
 8005194:	f857 3b1c 	ldr.w	r3, [r7], #28
 8005198:	f443 6350 	orr.w	r3, r3, #3328	; 0xd00
 800519c:	bf98      	it	ls
 800519e:	f04f 0900 	movls.w	r9, #0
 80051a2:	6023      	str	r3, [r4, #0]
 80051a4:	463d      	mov	r5, r7
 80051a6:	f04f 0b00 	mov.w	fp, #0
 80051aa:	6831      	ldr	r1, [r6, #0]
 80051ac:	ab03      	add	r3, sp, #12
 80051ae:	7809      	ldrb	r1, [r1, #0]
 80051b0:	f853 002b 	ldr.w	r0, [r3, fp, lsl #2]
 80051b4:	2202      	movs	r2, #2
 80051b6:	f7fb f833 	bl	8000220 <memchr>
 80051ba:	b328      	cbz	r0, 8005208 <_scanf_i+0xb8>
 80051bc:	f1bb 0f01 	cmp.w	fp, #1
 80051c0:	d159      	bne.n	8005276 <_scanf_i+0x126>
 80051c2:	6862      	ldr	r2, [r4, #4]
 80051c4:	b92a      	cbnz	r2, 80051d2 <_scanf_i+0x82>
 80051c6:	6822      	ldr	r2, [r4, #0]
 80051c8:	2308      	movs	r3, #8
 80051ca:	f442 7200 	orr.w	r2, r2, #512	; 0x200
 80051ce:	6063      	str	r3, [r4, #4]
 80051d0:	6022      	str	r2, [r4, #0]
 80051d2:	6822      	ldr	r2, [r4, #0]
 80051d4:	f422 62a0 	bic.w	r2, r2, #1280	; 0x500
 80051d8:	6022      	str	r2, [r4, #0]
 80051da:	68a2      	ldr	r2, [r4, #8]
 80051dc:	1e51      	subs	r1, r2, #1
 80051de:	60a1      	str	r1, [r4, #8]
 80051e0:	b192      	cbz	r2, 8005208 <_scanf_i+0xb8>
 80051e2:	6832      	ldr	r2, [r6, #0]
 80051e4:	1c51      	adds	r1, r2, #1
 80051e6:	6031      	str	r1, [r6, #0]
 80051e8:	7812      	ldrb	r2, [r2, #0]
 80051ea:	f805 2b01 	strb.w	r2, [r5], #1
 80051ee:	6872      	ldr	r2, [r6, #4]
 80051f0:	3a01      	subs	r2, #1
 80051f2:	2a00      	cmp	r2, #0
 80051f4:	6072      	str	r2, [r6, #4]
 80051f6:	dc07      	bgt.n	8005208 <_scanf_i+0xb8>
 80051f8:	f8d4 2180 	ldr.w	r2, [r4, #384]	; 0x180
 80051fc:	4631      	mov	r1, r6
 80051fe:	4650      	mov	r0, sl
 8005200:	4790      	blx	r2
 8005202:	2800      	cmp	r0, #0
 8005204:	f040 8085 	bne.w	8005312 <_scanf_i+0x1c2>
 8005208:	f10b 0b01 	add.w	fp, fp, #1
 800520c:	f1bb 0f03 	cmp.w	fp, #3
 8005210:	d1cb      	bne.n	80051aa <_scanf_i+0x5a>
 8005212:	6863      	ldr	r3, [r4, #4]
 8005214:	b90b      	cbnz	r3, 800521a <_scanf_i+0xca>
 8005216:	230a      	movs	r3, #10
 8005218:	6063      	str	r3, [r4, #4]
 800521a:	6863      	ldr	r3, [r4, #4]
 800521c:	4945      	ldr	r1, [pc, #276]	; (8005334 <_scanf_i+0x1e4>)
 800521e:	6960      	ldr	r0, [r4, #20]
 8005220:	1ac9      	subs	r1, r1, r3
 8005222:	f000 f889 	bl	8005338 <__sccl>
 8005226:	f04f 0b00 	mov.w	fp, #0
 800522a:	68a3      	ldr	r3, [r4, #8]
 800522c:	6822      	ldr	r2, [r4, #0]
 800522e:	2b00      	cmp	r3, #0
 8005230:	d03d      	beq.n	80052ae <_scanf_i+0x15e>
 8005232:	6831      	ldr	r1, [r6, #0]
 8005234:	6960      	ldr	r0, [r4, #20]
 8005236:	f891 c000 	ldrb.w	ip, [r1]
 800523a:	f810 000c 	ldrb.w	r0, [r0, ip]
 800523e:	2800      	cmp	r0, #0
 8005240:	d035      	beq.n	80052ae <_scanf_i+0x15e>
 8005242:	f1bc 0f30 	cmp.w	ip, #48	; 0x30
 8005246:	d124      	bne.n	8005292 <_scanf_i+0x142>
 8005248:	0510      	lsls	r0, r2, #20
 800524a:	d522      	bpl.n	8005292 <_scanf_i+0x142>
 800524c:	f10b 0b01 	add.w	fp, fp, #1
 8005250:	f1b9 0f00 	cmp.w	r9, #0
 8005254:	d003      	beq.n	800525e <_scanf_i+0x10e>
 8005256:	3301      	adds	r3, #1
 8005258:	f109 39ff 	add.w	r9, r9, #4294967295
 800525c:	60a3      	str	r3, [r4, #8]
 800525e:	6873      	ldr	r3, [r6, #4]
 8005260:	3b01      	subs	r3, #1
 8005262:	2b00      	cmp	r3, #0
 8005264:	6073      	str	r3, [r6, #4]
 8005266:	dd1b      	ble.n	80052a0 <_scanf_i+0x150>
 8005268:	6833      	ldr	r3, [r6, #0]
 800526a:	3301      	adds	r3, #1
 800526c:	6033      	str	r3, [r6, #0]
 800526e:	68a3      	ldr	r3, [r4, #8]
 8005270:	3b01      	subs	r3, #1
 8005272:	60a3      	str	r3, [r4, #8]
 8005274:	e7d9      	b.n	800522a <_scanf_i+0xda>
 8005276:	f1bb 0f02 	cmp.w	fp, #2
 800527a:	d1ae      	bne.n	80051da <_scanf_i+0x8a>
 800527c:	6822      	ldr	r2, [r4, #0]
 800527e:	f402 61c0 	and.w	r1, r2, #1536	; 0x600
 8005282:	f5b1 7f00 	cmp.w	r1, #512	; 0x200
 8005286:	d1bf      	bne.n	8005208 <_scanf_i+0xb8>
 8005288:	2310      	movs	r3, #16
 800528a:	6063      	str	r3, [r4, #4]
 800528c:	f442 7280 	orr.w	r2, r2, #256	; 0x100
 8005290:	e7a2      	b.n	80051d8 <_scanf_i+0x88>
 8005292:	f422 6210 	bic.w	r2, r2, #2304	; 0x900
 8005296:	6022      	str	r2, [r4, #0]
 8005298:	780b      	ldrb	r3, [r1, #0]
 800529a:	f805 3b01 	strb.w	r3, [r5], #1
 800529e:	e7de      	b.n	800525e <_scanf_i+0x10e>
 80052a0:	f8d4 3180 	ldr.w	r3, [r4, #384]	; 0x180
 80052a4:	4631      	mov	r1, r6
 80052a6:	4650      	mov	r0, sl
 80052a8:	4798      	blx	r3
 80052aa:	2800      	cmp	r0, #0
 80052ac:	d0df      	beq.n	800526e <_scanf_i+0x11e>
 80052ae:	6823      	ldr	r3, [r4, #0]
 80052b0:	05d9      	lsls	r1, r3, #23
 80052b2:	d50d      	bpl.n	80052d0 <_scanf_i+0x180>
 80052b4:	42bd      	cmp	r5, r7
 80052b6:	d909      	bls.n	80052cc <_scanf_i+0x17c>
 80052b8:	f815 1c01 	ldrb.w	r1, [r5, #-1]
 80052bc:	f8d4 317c 	ldr.w	r3, [r4, #380]	; 0x17c
 80052c0:	4632      	mov	r2, r6
 80052c2:	4650      	mov	r0, sl
 80052c4:	4798      	blx	r3
 80052c6:	f105 39ff 	add.w	r9, r5, #4294967295
 80052ca:	464d      	mov	r5, r9
 80052cc:	42bd      	cmp	r5, r7
 80052ce:	d028      	beq.n	8005322 <_scanf_i+0x1d2>
 80052d0:	6822      	ldr	r2, [r4, #0]
 80052d2:	f012 0210 	ands.w	r2, r2, #16
 80052d6:	d113      	bne.n	8005300 <_scanf_i+0x1b0>
 80052d8:	702a      	strb	r2, [r5, #0]
 80052da:	6863      	ldr	r3, [r4, #4]
 80052dc:	9e01      	ldr	r6, [sp, #4]
 80052de:	4639      	mov	r1, r7
 80052e0:	4650      	mov	r0, sl
 80052e2:	47b0      	blx	r6
 80052e4:	f8d8 3000 	ldr.w	r3, [r8]
 80052e8:	6821      	ldr	r1, [r4, #0]
 80052ea:	1d1a      	adds	r2, r3, #4
 80052ec:	f8c8 2000 	str.w	r2, [r8]
 80052f0:	f011 0f20 	tst.w	r1, #32
 80052f4:	681b      	ldr	r3, [r3, #0]
 80052f6:	d00f      	beq.n	8005318 <_scanf_i+0x1c8>
 80052f8:	6018      	str	r0, [r3, #0]
 80052fa:	68e3      	ldr	r3, [r4, #12]
 80052fc:	3301      	adds	r3, #1
 80052fe:	60e3      	str	r3, [r4, #12]
 8005300:	1bed      	subs	r5, r5, r7
 8005302:	44ab      	add	fp, r5
 8005304:	6925      	ldr	r5, [r4, #16]
 8005306:	445d      	add	r5, fp
 8005308:	6125      	str	r5, [r4, #16]
 800530a:	2000      	movs	r0, #0
 800530c:	b007      	add	sp, #28
 800530e:	e8bd 8ff0 	ldmia.w	sp!, {r4, r5, r6, r7, r8, r9, sl, fp, pc}
 8005312:	f04f 0b00 	mov.w	fp, #0
 8005316:	e7ca      	b.n	80052ae <_scanf_i+0x15e>
 8005318:	07ca      	lsls	r2, r1, #31
 800531a:	bf4c      	ite	mi
 800531c:	8018      	strhmi	r0, [r3, #0]
 800531e:	6018      	strpl	r0, [r3, #0]
 8005320:	e7eb      	b.n	80052fa <_scanf_i+0x1aa>
 8005322:	2001      	movs	r0, #1
 8005324:	e7f2      	b.n	800530c <_scanf_i+0x1bc>
 8005326:	bf00      	nop
 8005328:	080058a8 	.word	0x080058a8
 800532c:	080055b1 	.word	0x080055b1
 8005330:	080054b5 	.word	0x080054b5
 8005334:	08005944 	.word	0x08005944

08005338 <__sccl>:
 8005338:	b570      	push	{r4, r5, r6, lr}
 800533a:	780b      	ldrb	r3, [r1, #0]
 800533c:	4604      	mov	r4, r0
 800533e:	2b5e      	cmp	r3, #94	; 0x5e
 8005340:	bf0b      	itete	eq
 8005342:	784b      	ldrbeq	r3, [r1, #1]
 8005344:	1c48      	addne	r0, r1, #1
 8005346:	1c88      	addeq	r0, r1, #2
 8005348:	2200      	movne	r2, #0
 800534a:	bf08      	it	eq
 800534c:	2201      	moveq	r2, #1
 800534e:	1e61      	subs	r1, r4, #1
 8005350:	f104 05ff 	add.w	r5, r4, #255	; 0xff
 8005354:	f801 2f01 	strb.w	r2, [r1, #1]!
 8005358:	42a9      	cmp	r1, r5
 800535a:	d1fb      	bne.n	8005354 <__sccl+0x1c>
 800535c:	b90b      	cbnz	r3, 8005362 <__sccl+0x2a>
 800535e:	3801      	subs	r0, #1
 8005360:	bd70      	pop	{r4, r5, r6, pc}
 8005362:	f082 0101 	eor.w	r1, r2, #1
 8005366:	54e1      	strb	r1, [r4, r3]
 8005368:	1c42      	adds	r2, r0, #1
 800536a:	f812 5c01 	ldrb.w	r5, [r2, #-1]
 800536e:	2d2d      	cmp	r5, #45	; 0x2d
 8005370:	f102 36ff 	add.w	r6, r2, #4294967295
 8005374:	4610      	mov	r0, r2
 8005376:	d006      	beq.n	8005386 <__sccl+0x4e>
 8005378:	2d5d      	cmp	r5, #93	; 0x5d
 800537a:	d0f1      	beq.n	8005360 <__sccl+0x28>
 800537c:	b90d      	cbnz	r5, 8005382 <__sccl+0x4a>
 800537e:	4630      	mov	r0, r6
 8005380:	e7ee      	b.n	8005360 <__sccl+0x28>
 8005382:	462b      	mov	r3, r5
 8005384:	e7ef      	b.n	8005366 <__sccl+0x2e>
 8005386:	7816      	ldrb	r6, [r2, #0]
 8005388:	2e5d      	cmp	r6, #93	; 0x5d
 800538a:	d0fa      	beq.n	8005382 <__sccl+0x4a>
 800538c:	42b3      	cmp	r3, r6
 800538e:	dcf8      	bgt.n	8005382 <__sccl+0x4a>
 8005390:	4618      	mov	r0, r3
 8005392:	3001      	adds	r0, #1
 8005394:	4286      	cmp	r6, r0
 8005396:	5421      	strb	r1, [r4, r0]
 8005398:	dcfb      	bgt.n	8005392 <__sccl+0x5a>
 800539a:	43d8      	mvns	r0, r3
 800539c:	4430      	add	r0, r6
 800539e:	1c5d      	adds	r5, r3, #1
 80053a0:	42b3      	cmp	r3, r6
 80053a2:	bfa8      	it	ge
 80053a4:	2000      	movge	r0, #0
 80053a6:	182b      	adds	r3, r5, r0
 80053a8:	3202      	adds	r2, #2
 80053aa:	e7de      	b.n	800536a <__sccl+0x32>

080053ac <_strtol_l.isra.0>:
 80053ac:	2b01      	cmp	r3, #1
 80053ae:	e92d 47f0 	stmdb	sp!, {r4, r5, r6, r7, r8, r9, sl, lr}
 80053b2:	d001      	beq.n	80053b8 <_strtol_l.isra.0+0xc>
 80053b4:	2b24      	cmp	r3, #36	; 0x24
 80053b6:	d906      	bls.n	80053c6 <_strtol_l.isra.0+0x1a>
 80053b8:	f7ff f930 	bl	800461c <__errno>
 80053bc:	2316      	movs	r3, #22
 80053be:	6003      	str	r3, [r0, #0]
 80053c0:	2000      	movs	r0, #0
 80053c2:	e8bd 87f0 	ldmia.w	sp!, {r4, r5, r6, r7, r8, r9, sl, pc}
 80053c6:	4f3a      	ldr	r7, [pc, #232]	; (80054b0 <_strtol_l.isra.0+0x104>)
 80053c8:	468e      	mov	lr, r1
 80053ca:	4676      	mov	r6, lr
 80053cc:	f81e 4b01 	ldrb.w	r4, [lr], #1
 80053d0:	5de5      	ldrb	r5, [r4, r7]
 80053d2:	f015 0508 	ands.w	r5, r5, #8
 80053d6:	d1f8      	bne.n	80053ca <_strtol_l.isra.0+0x1e>
 80053d8:	2c2d      	cmp	r4, #45	; 0x2d
 80053da:	d134      	bne.n	8005446 <_strtol_l.isra.0+0x9a>
 80053dc:	f89e 4000 	ldrb.w	r4, [lr]
 80053e0:	f04f 0801 	mov.w	r8, #1
 80053e4:	f106 0e02 	add.w	lr, r6, #2
 80053e8:	2b00      	cmp	r3, #0
 80053ea:	d05c      	beq.n	80054a6 <_strtol_l.isra.0+0xfa>
 80053ec:	2b10      	cmp	r3, #16
 80053ee:	d10c      	bne.n	800540a <_strtol_l.isra.0+0x5e>
 80053f0:	2c30      	cmp	r4, #48	; 0x30
 80053f2:	d10a      	bne.n	800540a <_strtol_l.isra.0+0x5e>
 80053f4:	f89e 4000 	ldrb.w	r4, [lr]
 80053f8:	f004 04df 	and.w	r4, r4, #223	; 0xdf
 80053fc:	2c58      	cmp	r4, #88	; 0x58
 80053fe:	d14d      	bne.n	800549c <_strtol_l.isra.0+0xf0>
 8005400:	f89e 4001 	ldrb.w	r4, [lr, #1]
 8005404:	2310      	movs	r3, #16
 8005406:	f10e 0e02 	add.w	lr, lr, #2
 800540a:	f108 4c00 	add.w	ip, r8, #2147483648	; 0x80000000
 800540e:	f10c 3cff 	add.w	ip, ip, #4294967295
 8005412:	2600      	movs	r6, #0
 8005414:	fbbc f9f3 	udiv	r9, ip, r3
 8005418:	4635      	mov	r5, r6
 800541a:	fb03 ca19 	mls	sl, r3, r9, ip
 800541e:	f1a4 0730 	sub.w	r7, r4, #48	; 0x30
 8005422:	2f09      	cmp	r7, #9
 8005424:	d818      	bhi.n	8005458 <_strtol_l.isra.0+0xac>
 8005426:	463c      	mov	r4, r7
 8005428:	42a3      	cmp	r3, r4
 800542a:	dd24      	ble.n	8005476 <_strtol_l.isra.0+0xca>
 800542c:	2e00      	cmp	r6, #0
 800542e:	db1f      	blt.n	8005470 <_strtol_l.isra.0+0xc4>
 8005430:	45a9      	cmp	r9, r5
 8005432:	d31d      	bcc.n	8005470 <_strtol_l.isra.0+0xc4>
 8005434:	d101      	bne.n	800543a <_strtol_l.isra.0+0x8e>
 8005436:	45a2      	cmp	sl, r4
 8005438:	db1a      	blt.n	8005470 <_strtol_l.isra.0+0xc4>
 800543a:	fb05 4503 	mla	r5, r5, r3, r4
 800543e:	2601      	movs	r6, #1
 8005440:	f81e 4b01 	ldrb.w	r4, [lr], #1
 8005444:	e7eb      	b.n	800541e <_strtol_l.isra.0+0x72>
 8005446:	2c2b      	cmp	r4, #43	; 0x2b
 8005448:	bf08      	it	eq
 800544a:	f89e 4000 	ldrbeq.w	r4, [lr]
 800544e:	46a8      	mov	r8, r5
 8005450:	bf08      	it	eq
 8005452:	f106 0e02 	addeq.w	lr, r6, #2
 8005456:	e7c7      	b.n	80053e8 <_strtol_l.isra.0+0x3c>
 8005458:	f1a4 0741 	sub.w	r7, r4, #65	; 0x41
 800545c:	2f19      	cmp	r7, #25
 800545e:	d801      	bhi.n	8005464 <_strtol_l.isra.0+0xb8>
 8005460:	3c37      	subs	r4, #55	; 0x37
 8005462:	e7e1      	b.n	8005428 <_strtol_l.isra.0+0x7c>
 8005464:	f1a4 0761 	sub.w	r7, r4, #97	; 0x61
 8005468:	2f19      	cmp	r7, #25
 800546a:	d804      	bhi.n	8005476 <_strtol_l.isra.0+0xca>
 800546c:	3c57      	subs	r4, #87	; 0x57
 800546e:	e7db      	b.n	8005428 <_strtol_l.isra.0+0x7c>
 8005470:	f04f 36ff 	mov.w	r6, #4294967295
 8005474:	e7e4      	b.n	8005440 <_strtol_l.isra.0+0x94>
 8005476:	2e00      	cmp	r6, #0
 8005478:	da05      	bge.n	8005486 <_strtol_l.isra.0+0xda>
 800547a:	2322      	movs	r3, #34	; 0x22
 800547c:	6003      	str	r3, [r0, #0]
 800547e:	4665      	mov	r5, ip
 8005480:	b942      	cbnz	r2, 8005494 <_strtol_l.isra.0+0xe8>
 8005482:	4628      	mov	r0, r5
 8005484:	e79d      	b.n	80053c2 <_strtol_l.isra.0+0x16>
 8005486:	f1b8 0f00 	cmp.w	r8, #0
 800548a:	d000      	beq.n	800548e <_strtol_l.isra.0+0xe2>
 800548c:	426d      	negs	r5, r5
 800548e:	2a00      	cmp	r2, #0
 8005490:	d0f7      	beq.n	8005482 <_strtol_l.isra.0+0xd6>
 8005492:	b10e      	cbz	r6, 8005498 <_strtol_l.isra.0+0xec>
 8005494:	f10e 31ff 	add.w	r1, lr, #4294967295
 8005498:	6011      	str	r1, [r2, #0]
 800549a:	e7f2      	b.n	8005482 <_strtol_l.isra.0+0xd6>
 800549c:	2430      	movs	r4, #48	; 0x30
 800549e:	2b00      	cmp	r3, #0
 80054a0:	d1b3      	bne.n	800540a <_strtol_l.isra.0+0x5e>
 80054a2:	2308      	movs	r3, #8
 80054a4:	e7b1      	b.n	800540a <_strtol_l.isra.0+0x5e>
 80054a6:	2c30      	cmp	r4, #48	; 0x30
 80054a8:	d0a4      	beq.n	80053f4 <_strtol_l.isra.0+0x48>
 80054aa:	230a      	movs	r3, #10
 80054ac:	e7ad      	b.n	800540a <_strtol_l.isra.0+0x5e>
 80054ae:	bf00      	nop
 80054b0:	08005947 	.word	0x08005947

080054b4 <_strtol_r>:
 80054b4:	f7ff bf7a 	b.w	80053ac <_strtol_l.isra.0>

080054b8 <_strtoul_l.isra.0>:
 80054b8:	e92d 43f0 	stmdb	sp!, {r4, r5, r6, r7, r8, r9, lr}
 80054bc:	4e3b      	ldr	r6, [pc, #236]	; (80055ac <_strtoul_l.isra.0+0xf4>)
 80054be:	4686      	mov	lr, r0
 80054c0:	468c      	mov	ip, r1
 80054c2:	4660      	mov	r0, ip
 80054c4:	f81c 4b01 	ldrb.w	r4, [ip], #1
 80054c8:	5da5      	ldrb	r5, [r4, r6]
 80054ca:	f015 0508 	ands.w	r5, r5, #8
 80054ce:	d1f8      	bne.n	80054c2 <_strtoul_l.isra.0+0xa>
 80054d0:	2c2d      	cmp	r4, #45	; 0x2d
 80054d2:	d134      	bne.n	800553e <_strtoul_l.isra.0+0x86>
 80054d4:	f89c 4000 	ldrb.w	r4, [ip]
 80054d8:	f04f 0801 	mov.w	r8, #1
 80054dc:	f100 0c02 	add.w	ip, r0, #2
 80054e0:	2b00      	cmp	r3, #0
 80054e2:	d05e      	beq.n	80055a2 <_strtoul_l.isra.0+0xea>
 80054e4:	2b10      	cmp	r3, #16
 80054e6:	d10c      	bne.n	8005502 <_strtoul_l.isra.0+0x4a>
 80054e8:	2c30      	cmp	r4, #48	; 0x30
 80054ea:	d10a      	bne.n	8005502 <_strtoul_l.isra.0+0x4a>
 80054ec:	f89c 0000 	ldrb.w	r0, [ip]
 80054f0:	f000 00df 	and.w	r0, r0, #223	; 0xdf
 80054f4:	2858      	cmp	r0, #88	; 0x58
 80054f6:	d14f      	bne.n	8005598 <_strtoul_l.isra.0+0xe0>
 80054f8:	f89c 4001 	ldrb.w	r4, [ip, #1]
 80054fc:	2310      	movs	r3, #16
 80054fe:	f10c 0c02 	add.w	ip, ip, #2
 8005502:	f04f 37ff 	mov.w	r7, #4294967295
 8005506:	2500      	movs	r5, #0
 8005508:	fbb7 f7f3 	udiv	r7, r7, r3
 800550c:	fb03 f907 	mul.w	r9, r3, r7
 8005510:	ea6f 0909 	mvn.w	r9, r9
 8005514:	4628      	mov	r0, r5
 8005516:	f1a4 0630 	sub.w	r6, r4, #48	; 0x30
 800551a:	2e09      	cmp	r6, #9
 800551c:	d818      	bhi.n	8005550 <_strtoul_l.isra.0+0x98>
 800551e:	4634      	mov	r4, r6
 8005520:	42a3      	cmp	r3, r4
 8005522:	dd24      	ble.n	800556e <_strtoul_l.isra.0+0xb6>
 8005524:	2d00      	cmp	r5, #0
 8005526:	db1f      	blt.n	8005568 <_strtoul_l.isra.0+0xb0>
 8005528:	4287      	cmp	r7, r0
 800552a:	d31d      	bcc.n	8005568 <_strtoul_l.isra.0+0xb0>
 800552c:	d101      	bne.n	8005532 <_strtoul_l.isra.0+0x7a>
 800552e:	45a1      	cmp	r9, r4
 8005530:	db1a      	blt.n	8005568 <_strtoul_l.isra.0+0xb0>
 8005532:	fb00 4003 	mla	r0, r0, r3, r4
 8005536:	2501      	movs	r5, #1
 8005538:	f81c 4b01 	ldrb.w	r4, [ip], #1
 800553c:	e7eb      	b.n	8005516 <_strtoul_l.isra.0+0x5e>
 800553e:	2c2b      	cmp	r4, #43	; 0x2b
 8005540:	bf08      	it	eq
 8005542:	f89c 4000 	ldrbeq.w	r4, [ip]
 8005546:	46a8      	mov	r8, r5
 8005548:	bf08      	it	eq
 800554a:	f100 0c02 	addeq.w	ip, r0, #2
 800554e:	e7c7      	b.n	80054e0 <_strtoul_l.isra.0+0x28>
 8005550:	f1a4 0641 	sub.w	r6, r4, #65	; 0x41
 8005554:	2e19      	cmp	r6, #25
 8005556:	d801      	bhi.n	800555c <_strtoul_l.isra.0+0xa4>
 8005558:	3c37      	subs	r4, #55	; 0x37
 800555a:	e7e1      	b.n	8005520 <_strtoul_l.isra.0+0x68>
 800555c:	f1a4 0661 	sub.w	r6, r4, #97	; 0x61
 8005560:	2e19      	cmp	r6, #25
 8005562:	d804      	bhi.n	800556e <_strtoul_l.isra.0+0xb6>
 8005564:	3c57      	subs	r4, #87	; 0x57
 8005566:	e7db      	b.n	8005520 <_strtoul_l.isra.0+0x68>
 8005568:	f04f 35ff 	mov.w	r5, #4294967295
 800556c:	e7e4      	b.n	8005538 <_strtoul_l.isra.0+0x80>
 800556e:	2d00      	cmp	r5, #0
 8005570:	da07      	bge.n	8005582 <_strtoul_l.isra.0+0xca>
 8005572:	2322      	movs	r3, #34	; 0x22
 8005574:	f8ce 3000 	str.w	r3, [lr]
 8005578:	f04f 30ff 	mov.w	r0, #4294967295
 800557c:	b942      	cbnz	r2, 8005590 <_strtoul_l.isra.0+0xd8>
 800557e:	e8bd 83f0 	ldmia.w	sp!, {r4, r5, r6, r7, r8, r9, pc}
 8005582:	f1b8 0f00 	cmp.w	r8, #0
 8005586:	d000      	beq.n	800558a <_strtoul_l.isra.0+0xd2>
 8005588:	4240      	negs	r0, r0
 800558a:	2a00      	cmp	r2, #0
 800558c:	d0f7      	beq.n	800557e <_strtoul_l.isra.0+0xc6>
 800558e:	b10d      	cbz	r5, 8005594 <_strtoul_l.isra.0+0xdc>
 8005590:	f10c 31ff 	add.w	r1, ip, #4294967295
 8005594:	6011      	str	r1, [r2, #0]
 8005596:	e7f2      	b.n	800557e <_strtoul_l.isra.0+0xc6>
 8005598:	2430      	movs	r4, #48	; 0x30
 800559a:	2b00      	cmp	r3, #0
 800559c:	d1b1      	bne.n	8005502 <_strtoul_l.isra.0+0x4a>
 800559e:	2308      	movs	r3, #8
 80055a0:	e7af      	b.n	8005502 <_strtoul_l.isra.0+0x4a>
 80055a2:	2c30      	cmp	r4, #48	; 0x30
 80055a4:	d0a2      	beq.n	80054ec <_strtoul_l.isra.0+0x34>
 80055a6:	230a      	movs	r3, #10
 80055a8:	e7ab      	b.n	8005502 <_strtoul_l.isra.0+0x4a>
 80055aa:	bf00      	nop
 80055ac:	08005947 	.word	0x08005947

080055b0 <_strtoul_r>:
 80055b0:	f7ff bf82 	b.w	80054b8 <_strtoul_l.isra.0>

080055b4 <__submore>:
 80055b4:	e92d 41f0 	stmdb	sp!, {r4, r5, r6, r7, r8, lr}
 80055b8:	460c      	mov	r4, r1
 80055ba:	6b49      	ldr	r1, [r1, #52]	; 0x34
 80055bc:	f104 0344 	add.w	r3, r4, #68	; 0x44
 80055c0:	4299      	cmp	r1, r3
 80055c2:	d11d      	bne.n	8005600 <__submore+0x4c>
 80055c4:	f44f 6180 	mov.w	r1, #1024	; 0x400
 80055c8:	f000 f8a8 	bl	800571c <_malloc_r>
 80055cc:	b918      	cbnz	r0, 80055d6 <__submore+0x22>
 80055ce:	f04f 30ff 	mov.w	r0, #4294967295
 80055d2:	e8bd 81f0 	ldmia.w	sp!, {r4, r5, r6, r7, r8, pc}
 80055d6:	f44f 6380 	mov.w	r3, #1024	; 0x400
 80055da:	63a3      	str	r3, [r4, #56]	; 0x38
 80055dc:	f894 3046 	ldrb.w	r3, [r4, #70]	; 0x46
 80055e0:	6360      	str	r0, [r4, #52]	; 0x34
 80055e2:	f880 33ff 	strb.w	r3, [r0, #1023]	; 0x3ff
 80055e6:	f894 3045 	ldrb.w	r3, [r4, #69]	; 0x45
 80055ea:	f880 33fe 	strb.w	r3, [r0, #1022]	; 0x3fe
 80055ee:	f894 3044 	ldrb.w	r3, [r4, #68]	; 0x44
 80055f2:	f880 33fd 	strb.w	r3, [r0, #1021]	; 0x3fd
 80055f6:	f200 30fd 	addw	r0, r0, #1021	; 0x3fd
 80055fa:	6020      	str	r0, [r4, #0]
 80055fc:	2000      	movs	r0, #0
 80055fe:	e7e8      	b.n	80055d2 <__submore+0x1e>
 8005600:	6ba6      	ldr	r6, [r4, #56]	; 0x38
 8005602:	0077      	lsls	r7, r6, #1
 8005604:	463a      	mov	r2, r7
 8005606:	f000 f8e3 	bl	80057d0 <_realloc_r>
 800560a:	4605      	mov	r5, r0
 800560c:	2800      	cmp	r0, #0
 800560e:	d0de      	beq.n	80055ce <__submore+0x1a>
 8005610:	eb00 0806 	add.w	r8, r0, r6
 8005614:	4601      	mov	r1, r0
 8005616:	4632      	mov	r2, r6
 8005618:	4640      	mov	r0, r8
 800561a:	f000 f807 	bl	800562c <memcpy>
 800561e:	e9c4 570d 	strd	r5, r7, [r4, #52]	; 0x34
 8005622:	f8c4 8000 	str.w	r8, [r4]
 8005626:	e7e9      	b.n	80055fc <__submore+0x48>

08005628 <__retarget_lock_acquire_recursive>:
 8005628:	4770      	bx	lr

0800562a <__retarget_lock_release_recursive>:
 800562a:	4770      	bx	lr

0800562c <memcpy>:
 800562c:	440a      	add	r2, r1
 800562e:	4291      	cmp	r1, r2
 8005630:	f100 33ff 	add.w	r3, r0, #4294967295
 8005634:	d100      	bne.n	8005638 <memcpy+0xc>
 8005636:	4770      	bx	lr
 8005638:	b510      	push	{r4, lr}
 800563a:	f811 4b01 	ldrb.w	r4, [r1], #1
 800563e:	f803 4f01 	strb.w	r4, [r3, #1]!
 8005642:	4291      	cmp	r1, r2
 8005644:	d1f9      	bne.n	800563a <memcpy+0xe>
 8005646:	bd10      	pop	{r4, pc}

08005648 <memmove>:
 8005648:	4288      	cmp	r0, r1
 800564a:	b510      	push	{r4, lr}
 800564c:	eb01 0402 	add.w	r4, r1, r2
 8005650:	d902      	bls.n	8005658 <memmove+0x10>
 8005652:	4284      	cmp	r4, r0
 8005654:	4623      	mov	r3, r4
 8005656:	d807      	bhi.n	8005668 <memmove+0x20>
 8005658:	1e43      	subs	r3, r0, #1
 800565a:	42a1      	cmp	r1, r4
 800565c:	d008      	beq.n	8005670 <memmove+0x28>
 800565e:	f811 2b01 	ldrb.w	r2, [r1], #1
 8005662:	f803 2f01 	strb.w	r2, [r3, #1]!
 8005666:	e7f8      	b.n	800565a <memmove+0x12>
 8005668:	4402      	add	r2, r0
 800566a:	4601      	mov	r1, r0
 800566c:	428a      	cmp	r2, r1
 800566e:	d100      	bne.n	8005672 <memmove+0x2a>
 8005670:	bd10      	pop	{r4, pc}
 8005672:	f813 4d01 	ldrb.w	r4, [r3, #-1]!
 8005676:	f802 4d01 	strb.w	r4, [r2, #-1]!
 800567a:	e7f7      	b.n	800566c <memmove+0x24>

0800567c <_free_r>:
 800567c:	b537      	push	{r0, r1, r2, r4, r5, lr}
 800567e:	2900      	cmp	r1, #0
 8005680:	d048      	beq.n	8005714 <_free_r+0x98>
 8005682:	f851 3c04 	ldr.w	r3, [r1, #-4]
 8005686:	9001      	str	r0, [sp, #4]
 8005688:	2b00      	cmp	r3, #0
 800568a:	f1a1 0404 	sub.w	r4, r1, #4
 800568e:	bfb8      	it	lt
 8005690:	18e4      	addlt	r4, r4, r3
 8005692:	f000 f8d3 	bl	800583c <__malloc_lock>
 8005696:	4a20      	ldr	r2, [pc, #128]	; (8005718 <_free_r+0x9c>)
 8005698:	9801      	ldr	r0, [sp, #4]
 800569a:	6813      	ldr	r3, [r2, #0]
 800569c:	4615      	mov	r5, r2
 800569e:	b933      	cbnz	r3, 80056ae <_free_r+0x32>
 80056a0:	6063      	str	r3, [r4, #4]
 80056a2:	6014      	str	r4, [r2, #0]
 80056a4:	b003      	add	sp, #12
 80056a6:	e8bd 4030 	ldmia.w	sp!, {r4, r5, lr}
 80056aa:	f000 b8cd 	b.w	8005848 <__malloc_unlock>
 80056ae:	42a3      	cmp	r3, r4
 80056b0:	d90b      	bls.n	80056ca <_free_r+0x4e>
 80056b2:	6821      	ldr	r1, [r4, #0]
 80056b4:	1862      	adds	r2, r4, r1
 80056b6:	4293      	cmp	r3, r2
 80056b8:	bf04      	itt	eq
 80056ba:	681a      	ldreq	r2, [r3, #0]
 80056bc:	685b      	ldreq	r3, [r3, #4]
 80056be:	6063      	str	r3, [r4, #4]
 80056c0:	bf04      	itt	eq
 80056c2:	1852      	addeq	r2, r2, r1
 80056c4:	6022      	streq	r2, [r4, #0]
 80056c6:	602c      	str	r4, [r5, #0]
 80056c8:	e7ec      	b.n	80056a4 <_free_r+0x28>
 80056ca:	461a      	mov	r2, r3
 80056cc:	685b      	ldr	r3, [r3, #4]
 80056ce:	b10b      	cbz	r3, 80056d4 <_free_r+0x58>
 80056d0:	42a3      	cmp	r3, r4
 80056d2:	d9fa      	bls.n	80056ca <_free_r+0x4e>
 80056d4:	6811      	ldr	r1, [r2, #0]
 80056d6:	1855      	adds	r5, r2, r1
 80056d8:	42a5      	cmp	r5, r4
 80056da:	d10b      	bne.n	80056f4 <_free_r+0x78>
 80056dc:	6824      	ldr	r4, [r4, #0]
 80056de:	4421      	add	r1, r4
 80056e0:	1854      	adds	r4, r2, r1
 80056e2:	42a3      	cmp	r3, r4
 80056e4:	6011      	str	r1, [r2, #0]
 80056e6:	d1dd      	bne.n	80056a4 <_free_r+0x28>
 80056e8:	681c      	ldr	r4, [r3, #0]
 80056ea:	685b      	ldr	r3, [r3, #4]
 80056ec:	6053      	str	r3, [r2, #4]
 80056ee:	4421      	add	r1, r4
 80056f0:	6011      	str	r1, [r2, #0]
 80056f2:	e7d7      	b.n	80056a4 <_free_r+0x28>
 80056f4:	d902      	bls.n	80056fc <_free_r+0x80>
 80056f6:	230c      	movs	r3, #12
 80056f8:	6003      	str	r3, [r0, #0]
 80056fa:	e7d3      	b.n	80056a4 <_free_r+0x28>
 80056fc:	6825      	ldr	r5, [r4, #0]
 80056fe:	1961      	adds	r1, r4, r5
 8005700:	428b      	cmp	r3, r1
 8005702:	bf04      	itt	eq
 8005704:	6819      	ldreq	r1, [r3, #0]
 8005706:	685b      	ldreq	r3, [r3, #4]
 8005708:	6063      	str	r3, [r4, #4]
 800570a:	bf04      	itt	eq
 800570c:	1949      	addeq	r1, r1, r5
 800570e:	6021      	streq	r1, [r4, #0]
 8005710:	6054      	str	r4, [r2, #4]
 8005712:	e7c7      	b.n	80056a4 <_free_r+0x28>
 8005714:	b003      	add	sp, #12
 8005716:	bd30      	pop	{r4, r5, pc}
 8005718:	200009b4 	.word	0x200009b4

0800571c <_malloc_r>:
 800571c:	b5f8      	push	{r3, r4, r5, r6, r7, lr}
 800571e:	1ccd      	adds	r5, r1, #3
 8005720:	f025 0503 	bic.w	r5, r5, #3
 8005724:	3508      	adds	r5, #8
 8005726:	2d0c      	cmp	r5, #12
 8005728:	bf38      	it	cc
 800572a:	250c      	movcc	r5, #12
 800572c:	2d00      	cmp	r5, #0
 800572e:	4606      	mov	r6, r0
 8005730:	db01      	blt.n	8005736 <_malloc_r+0x1a>
 8005732:	42a9      	cmp	r1, r5
 8005734:	d903      	bls.n	800573e <_malloc_r+0x22>
 8005736:	230c      	movs	r3, #12
 8005738:	6033      	str	r3, [r6, #0]
 800573a:	2000      	movs	r0, #0
 800573c:	bdf8      	pop	{r3, r4, r5, r6, r7, pc}
 800573e:	f000 f87d 	bl	800583c <__malloc_lock>
 8005742:	4921      	ldr	r1, [pc, #132]	; (80057c8 <_malloc_r+0xac>)
 8005744:	680a      	ldr	r2, [r1, #0]
 8005746:	4614      	mov	r4, r2
 8005748:	b99c      	cbnz	r4, 8005772 <_malloc_r+0x56>
 800574a:	4f20      	ldr	r7, [pc, #128]	; (80057cc <_malloc_r+0xb0>)
 800574c:	683b      	ldr	r3, [r7, #0]
 800574e:	b923      	cbnz	r3, 800575a <_malloc_r+0x3e>
 8005750:	4621      	mov	r1, r4
 8005752:	4630      	mov	r0, r6
 8005754:	f000 f862 	bl	800581c <_sbrk_r>
 8005758:	6038      	str	r0, [r7, #0]
 800575a:	4629      	mov	r1, r5
 800575c:	4630      	mov	r0, r6
 800575e:	f000 f85d 	bl	800581c <_sbrk_r>
 8005762:	1c43      	adds	r3, r0, #1
 8005764:	d123      	bne.n	80057ae <_malloc_r+0x92>
 8005766:	230c      	movs	r3, #12
 8005768:	6033      	str	r3, [r6, #0]
 800576a:	4630      	mov	r0, r6
 800576c:	f000 f86c 	bl	8005848 <__malloc_unlock>
 8005770:	e7e3      	b.n	800573a <_malloc_r+0x1e>
 8005772:	6823      	ldr	r3, [r4, #0]
 8005774:	1b5b      	subs	r3, r3, r5
 8005776:	d417      	bmi.n	80057a8 <_malloc_r+0x8c>
 8005778:	2b0b      	cmp	r3, #11
 800577a:	d903      	bls.n	8005784 <_malloc_r+0x68>
 800577c:	6023      	str	r3, [r4, #0]
 800577e:	441c      	add	r4, r3
 8005780:	6025      	str	r5, [r4, #0]
 8005782:	e004      	b.n	800578e <_malloc_r+0x72>
 8005784:	6863      	ldr	r3, [r4, #4]
 8005786:	42a2      	cmp	r2, r4
 8005788:	bf0c      	ite	eq
 800578a:	600b      	streq	r3, [r1, #0]
 800578c:	6053      	strne	r3, [r2, #4]
 800578e:	4630      	mov	r0, r6
 8005790:	f000 f85a 	bl	8005848 <__malloc_unlock>
 8005794:	f104 000b 	add.w	r0, r4, #11
 8005798:	1d23      	adds	r3, r4, #4
 800579a:	f020 0007 	bic.w	r0, r0, #7
 800579e:	1ac2      	subs	r2, r0, r3
 80057a0:	d0cc      	beq.n	800573c <_malloc_r+0x20>
 80057a2:	1a1b      	subs	r3, r3, r0
 80057a4:	50a3      	str	r3, [r4, r2]
 80057a6:	e7c9      	b.n	800573c <_malloc_r+0x20>
 80057a8:	4622      	mov	r2, r4
 80057aa:	6864      	ldr	r4, [r4, #4]
 80057ac:	e7cc      	b.n	8005748 <_malloc_r+0x2c>
 80057ae:	1cc4      	adds	r4, r0, #3
 80057b0:	f024 0403 	bic.w	r4, r4, #3
 80057b4:	42a0      	cmp	r0, r4
 80057b6:	d0e3      	beq.n	8005780 <_malloc_r+0x64>
 80057b8:	1a21      	subs	r1, r4, r0
 80057ba:	4630      	mov	r0, r6
 80057bc:	f000 f82e 	bl	800581c <_sbrk_r>
 80057c0:	3001      	adds	r0, #1
 80057c2:	d1dd      	bne.n	8005780 <_malloc_r+0x64>
 80057c4:	e7cf      	b.n	8005766 <_malloc_r+0x4a>
 80057c6:	bf00      	nop
 80057c8:	200009b4 	.word	0x200009b4
 80057cc:	200009b8 	.word	0x200009b8

080057d0 <_realloc_r>:
 80057d0:	b5f8      	push	{r3, r4, r5, r6, r7, lr}
 80057d2:	4607      	mov	r7, r0
 80057d4:	4614      	mov	r4, r2
 80057d6:	460e      	mov	r6, r1
 80057d8:	b921      	cbnz	r1, 80057e4 <_realloc_r+0x14>
 80057da:	e8bd 40f8 	ldmia.w	sp!, {r3, r4, r5, r6, r7, lr}
 80057de:	4611      	mov	r1, r2
 80057e0:	f7ff bf9c 	b.w	800571c <_malloc_r>
 80057e4:	b922      	cbnz	r2, 80057f0 <_realloc_r+0x20>
 80057e6:	f7ff ff49 	bl	800567c <_free_r>
 80057ea:	4625      	mov	r5, r4
 80057ec:	4628      	mov	r0, r5
 80057ee:	bdf8      	pop	{r3, r4, r5, r6, r7, pc}
 80057f0:	f000 f830 	bl	8005854 <_malloc_usable_size_r>
 80057f4:	42a0      	cmp	r0, r4
 80057f6:	d20f      	bcs.n	8005818 <_realloc_r+0x48>
 80057f8:	4621      	mov	r1, r4
 80057fa:	4638      	mov	r0, r7
 80057fc:	f7ff ff8e 	bl	800571c <_malloc_r>
 8005800:	4605      	mov	r5, r0
 8005802:	2800      	cmp	r0, #0
 8005804:	d0f2      	beq.n	80057ec <_realloc_r+0x1c>
 8005806:	4631      	mov	r1, r6
 8005808:	4622      	mov	r2, r4
 800580a:	f7ff ff0f 	bl	800562c <memcpy>
 800580e:	4631      	mov	r1, r6
 8005810:	4638      	mov	r0, r7
 8005812:	f7ff ff33 	bl	800567c <_free_r>
 8005816:	e7e9      	b.n	80057ec <_realloc_r+0x1c>
 8005818:	4635      	mov	r5, r6
 800581a:	e7e7      	b.n	80057ec <_realloc_r+0x1c>

0800581c <_sbrk_r>:
 800581c:	b538      	push	{r3, r4, r5, lr}
 800581e:	4d06      	ldr	r5, [pc, #24]	; (8005838 <_sbrk_r+0x1c>)
 8005820:	2300      	movs	r3, #0
 8005822:	4604      	mov	r4, r0
 8005824:	4608      	mov	r0, r1
 8005826:	602b      	str	r3, [r5, #0]
 8005828:	f7fe fd82 	bl	8004330 <_sbrk>
 800582c:	1c43      	adds	r3, r0, #1
 800582e:	d102      	bne.n	8005836 <_sbrk_r+0x1a>
 8005830:	682b      	ldr	r3, [r5, #0]
 8005832:	b103      	cbz	r3, 8005836 <_sbrk_r+0x1a>
 8005834:	6023      	str	r3, [r4, #0]
 8005836:	bd38      	pop	{r3, r4, r5, pc}
 8005838:	20000bac 	.word	0x20000bac

0800583c <__malloc_lock>:
 800583c:	4801      	ldr	r0, [pc, #4]	; (8005844 <__malloc_lock+0x8>)
 800583e:	f7ff bef3 	b.w	8005628 <__retarget_lock_acquire_recursive>
 8005842:	bf00      	nop
 8005844:	20000bb4 	.word	0x20000bb4

08005848 <__malloc_unlock>:
 8005848:	4801      	ldr	r0, [pc, #4]	; (8005850 <__malloc_unlock+0x8>)
 800584a:	f7ff beee 	b.w	800562a <__retarget_lock_release_recursive>
 800584e:	bf00      	nop
 8005850:	20000bb4 	.word	0x20000bb4

08005854 <_malloc_usable_size_r>:
 8005854:	f851 3c04 	ldr.w	r3, [r1, #-4]
 8005858:	1f18      	subs	r0, r3, #4
 800585a:	2b00      	cmp	r3, #0
 800585c:	bfbc      	itt	lt
 800585e:	580b      	ldrlt	r3, [r1, r0]
 8005860:	18c0      	addlt	r0, r0, r3
 8005862:	4770      	bx	lr

08005864 <_init>:
 8005864:	b5f8      	push	{r3, r4, r5, r6, r7, lr}
 8005866:	bf00      	nop
 8005868:	bcf8      	pop	{r3, r4, r5, r6, r7}
 800586a:	bc08      	pop	{r3}
 800586c:	469e      	mov	lr, r3
 800586e:	4770      	bx	lr

08005870 <_fini>:
 8005870:	b5f8      	push	{r3, r4, r5, r6, r7, lr}
 8005872:	bf00      	nop
 8005874:	bcf8      	pop	{r3, r4, r5, r6, r7}
 8005876:	bc08      	pop	{r3}
 8005878:	469e      	mov	lr, r3
 800587a:	4770      	bx	lr
